 NvClothDEBUG_x64

 Timestamp is 5c6976c7 (Sun Feb 17 15:59:19 2019)

 Preferred load address is 0000000180000000

 Start         Length     Name                   Class
 0001:00000000 00012240H .text$di                CODE
 0001:00012240 001a1080H .text$mn                CODE
 0001:001b32c0 00001020H .text$mn$00             CODE
 0001:001b42e0 00002069H .text$x                 CODE
 0002:00000000 00000110H .CRT$XCA                DATA
 0002:00000110 000002d0H .CRT$XCU                DATA
 0002:000003e0 00000110H .CRT$XCZ                DATA
 0002:000004f0 00000110H .CRT$XIA                DATA
 0002:00000600 00000130H .CRT$XIC                DATA
 0002:00000730 00000110H .CRT$XIZ                DATA
 0002:00000840 00000110H .CRT$XPA                DATA
 0002:00000950 00000120H .CRT$XPX                DATA
 0002:00000a70 00000110H .CRT$XPXA               DATA
 0002:00000b80 00000110H .CRT$XPZ                DATA
 0002:00000c90 00000110H .CRT$XTA                DATA
 0002:00000da0 00000120H .CRT$XTZ                DATA
 0002:00000ec0 0007f4e0H .rdata                  DATA
 0002:000803a0 00000740H .rdata$r                DATA
 0002:00080ae0 000001a8H .rdata$zzzdbg           DATA
 0002:00080c88 00000110H .rtc$IAA                DATA
 0002:00080d98 00000350H .rtc$IMZ                DATA
 0002:000810e8 00000110H .rtc$IZZ                DATA
 0002:000811f8 00000110H .rtc$TAA                DATA
 0002:00081308 00000350H .rtc$TMZ                DATA
 0002:00081658 00000118H .rtc$TZZ                DATA
 0002:00081770 0000ee00H .xdata                  DATA
 0002:00090570 00000280H .xdata$x                DATA
 0002:000907f0 000007c4H .edata                  DATA
 0003:00000000 00522d08H .data                   DATA
 0003:00522d08 000002f8H .data$r                 DATA
 0003:00523000 000026d9H .bss                    DATA
 0004:00000000 0001359cH .pdata                  DATA
 0005:00000000 000003d0H .idata$5                DATA
 0005:000003d0 00000014H .idata$2                DATA
 0005:000003e4 00000014H .idata$3                DATA
 0005:000003f8 000003d0H .idata$4                DATA
 0005:000007c8 000008b3H .idata$6                DATA
 0006:00000000 00000040H .didat$2                DATA
 0006:00000040 00000020H .didat$3                DATA
 0006:00000060 000001b8H .didat$4                DATA
 0006:00000218 000001b8H .didat$5                DATA
 0006:000003d0 00000420H .didat$6                DATA
 0006:000007f0 00000208H .didat$7                DATA
 0007:00000000 000001f4H .gfids$x                DATA
 0007:000001f4 000001dcH .gfids$y                DATA
 0008:00000000 0000011bH .00cfg                  DATA
 0009:00000000 00000170H .rsrc$01                DATA
 0009:00000170 000002ccH .rsrc$02                DATA

  Address         Publics by Value              Rva+Base               Lib:Object

 0000:00000000       __guard_fids_table         0000000000000000     <absolute>
 0000:00000000       __dynamic_value_reloc_table 0000000000000000     <absolute>
 0000:00000000       __guard_iat_table          0000000000000000     <absolute>
 0000:00000000       ___safe_se_handler_count   0000000000000000     <absolute>
 0000:00000000       __guard_iat_count          0000000000000000     <absolute>
 0000:00000000       __guard_longjmp_table      0000000000000000     <absolute>
 0000:00000000       ___safe_se_handler_table   0000000000000000     <absolute>
 0000:00000000       __guard_fids_count         0000000000000000     <absolute>
 0000:00000000       __guard_longjmp_count      0000000000000000     <absolute>
 0000:00000100       __guard_flags              0000000000000100     <absolute>
 0000:00000000       __ImageBase                0000000180000000     <linker-defined>
 0001:00012240       ??0CuCloth@cloth@nv@@QEAA@AEAVCuFactory@12@AEAVCuFabric@12@U?$Range@$$CBVPxVec4@physx@@@12@@Z 0000000180013240 f   CuCloth.obj
 0001:000129e0       ??0CuCloth@cloth@nv@@QEAA@AEAVCuFactory@12@AEBV012@@Z 00000001800139e0 f   CuCloth.obj
 0001:00013030       ??1CuCloth@cloth@nv@@UEAA@XZ 0000000180014030 f   CuCloth.obj
 0001:00013260       ?getNumParticles@CuCloth@cloth@nv@@UEBAIXZ 0000000180014260 f   CuCloth.obj
 0001:00013280       ?lockParticles@CuCloth@cloth@nv@@UEBAXXZ 0000000180014280 f   CuCloth.obj
 0001:000132c0       ?unlockParticles@CuCloth@cloth@nv@@UEBAXXZ 00000001800142c0 f   CuCloth.obj
 0001:000132d0       ?getCurrentParticles@CuCloth@cloth@nv@@UEAA?AU?$MappedRange@VPxVec4@physx@@@23@XZ 00000001800142d0 f   CuCloth.obj
 0001:00013360       ?getCurrentParticles@CuCloth@cloth@nv@@UEBA?AU?$MappedRange@$$CBVPxVec4@physx@@@23@XZ 0000000180014360 f   CuCloth.obj
 0001:000133d0       ?getPreviousParticles@CuCloth@cloth@nv@@UEAA?AU?$MappedRange@VPxVec4@physx@@@23@XZ 00000001800143d0 f   CuCloth.obj
 0001:00013470       ?getPreviousParticles@CuCloth@cloth@nv@@UEBA?AU?$MappedRange@$$CBVPxVec4@physx@@@23@XZ 0000000180014470 f   CuCloth.obj
 0001:000134f0       ?getGpuParticles@CuCloth@cloth@nv@@UEAA?AUGpuParticles@23@XZ 00000001800144f0 f   CuCloth.obj
 0001:000135e0       ?setPhaseConfig@CuCloth@cloth@nv@@UEAAXU?$Range@$$CBUPhaseConfig@cloth@nv@@@23@@Z 00000001800145e0 f   CuCloth.obj
 0001:00013750       ?setSelfCollisionIndices@CuCloth@cloth@nv@@UEAAXU?$Range@$$CBI@23@@Z 0000000180014750 f   CuCloth.obj
 0001:00013840       ?getNumVirtualParticles@CuCloth@cloth@nv@@UEBAIXZ 0000000180014840 f   CuCloth.obj
 0001:00013880       ?getParticleAccelerations@CuCloth@cloth@nv@@UEAA?AU?$Range@VPxVec4@physx@@@23@XZ 0000000180014880 f   CuCloth.obj
 0001:000139f0       ?clearParticleAccelerations@CuCloth@cloth@nv@@UEAAXXZ 00000001800149f0 f   CuCloth.obj
 0001:00013b20       ?setVirtualParticles@CuCloth@cloth@nv@@UEAAXU?$Range@$$BY03$$CBI@23@U?$Range@$$CBVPxVec3@physx@@@23@@Z 0000000180014b20 f   CuCloth.obj
 0001:00013e20       ?notifyChanged@CuCloth@cloth@nv@@QEAAXXZ 0000000180014e20 f   CuCloth.obj
 0001:00013e40       ?updateClothData@CuCloth@cloth@nv@@QEAA_NAEAUCuClothData@23@@Z 0000000180014e40 f   CuCloth.obj
 0001:00014110       ?getSharedMemorySize@CuCloth@cloth@nv@@QEBAIXZ 0000000180015110 f   CuCloth.obj
 0001:00014390       ?setPhaseConfigInternal@CuCloth@cloth@nv@@QEAAXU?$Range@$$CBUPhaseConfig@cloth@nv@@@23@@Z 0000000180015390 f   CuCloth.obj
 0001:00014640       ?push@CuCloth@cloth@nv@@QEAA?AU?$Range@VPxVec4@physx@@@23@AEAUCuConstraints@23@@Z 0000000180015640 f   CuCloth.obj
 0001:00014820       ?clear@CuCloth@cloth@nv@@QEAAXAEAUCuConstraints@23@@Z 0000000180015820 f   CuCloth.obj
 0001:00014920       ?syncDeviceParticles@CuCloth@cloth@nv@@QEAAXXZ 0000000180015920 f   CuCloth.obj
 0001:00014a20       ?syncHostParticles@CuCloth@cloth@nv@@QEAAXXZ 0000000180015a20 f   CuCloth.obj
 0001:00014b20       ?clampTriangleCount@CuCloth@cloth@nv@@QEAA?AU?$Range@$$CBVPxVec3@physx@@@23@U423@I@Z 0000000180015b20 f   CuCloth.obj
 0001:00015ab0       ??$?0I@?$CuDevicePointer@I@cloth@nv@@QEAA@PEAI@Z 0000000180016ab0 f i CuCloth.obj
 0001:00015ae0       ??$?0I@?$Vec4T@G@cloth@nv@@QEAA@AEBU?$Vec4T@I@12@@Z 0000000180016ae0 f i CuCloth.obj
 0001:00015b50       ??$?0M@?$CuDevicePointer@M@cloth@nv@@QEAA@PEAM@Z 0000000180016b50 f i CuCloth.obj
 0001:00015b80       ??$?0U?$Vec4T@G@cloth@nv@@@?$CuDevicePointer@U?$Vec4T@G@cloth@nv@@@cloth@nv@@QEAA@PEAU?$Vec4T@G@12@@Z 0000000180016b80 f i CuCloth.obj
 0001:00015bb0       ??$?0UCuPhaseConfig@cloth@nv@@@?$CuDevicePointer@UCuPhaseConfig@cloth@nv@@@cloth@nv@@QEAA@PEAUCuPhaseConfig@12@@Z 0000000180016bb0 f i CuCloth.obj
 0001:00015be0       ??$?0VPxVec4@physx@@@?$CuDevicePointer@VPxVec4@physx@@@cloth@nv@@QEAA@PEAVPxVec4@physx@@@Z 0000000180016be0 f i CuCloth.obj
 0001:00015c10       ??$?4VNonTrackingAllocator@cloth@nv@@@?$CuDeviceVector@I@cloth@nv@@QEAAAEAV012@AEBV?$Array@IVNonTrackingAllocator@cloth@nv@@@shdfnd@physx@@@Z 0000000180016c10 f i CuCloth.obj
 0001:00015cc0       ??$?4VNonTrackingAllocator@cloth@nv@@@?$CuDeviceVector@U?$Vec4T@G@cloth@nv@@@cloth@nv@@QEAAAEAV012@AEBV?$Array@U?$Vec4T@G@cloth@nv@@VNonTrackingAllocator@23@@shdfnd@physx@@@Z 0000000180016cc0 f i CuCloth.obj
 0001:00015d70       ??$?4VNonTrackingAllocator@cloth@nv@@@?$CuDeviceVector@VPxVec4@physx@@@cloth@nv@@QEAAAEAV012@AEBV?$Array@VPxVec4@physx@@VNonTrackingAllocator@cloth@nv@@@shdfnd@physx@@@Z 0000000180016d70 f i CuCloth.obj
 0001:00015e30       ??$?8I@?$CuDevicePointer@I@cloth@nv@@QEBA_NAEBV012@@Z 0000000180016e30 f i CuCloth.obj
 0001:00015ea0       ??$?8M@?$CuDevicePointer@M@cloth@nv@@QEBA_NAEBV012@@Z 0000000180016ea0 f i CuCloth.obj
 0001:00015f10       ??$?8VPxVec4@physx@@@?$CuDevicePointer@VPxVec4@physx@@@cloth@nv@@QEBA_NAEBV012@@Z 0000000180016f10 f i CuCloth.obj
 0001:00015f80       ??$?AH@?$Vec4T@I@cloth@nv@@QEBAAEBIH@Z 0000000180016f80 f i CuCloth.obj
 0001:00015fa0       ??$?RAEBEAEBE@?$less@X@std@@QEBA_NAEBE0@Z 0000000180016fa0 f i CuCloth.obj
 0001:00016010       ??$?RAEBHAEBH@?$less@X@std@@QEBA_NAEBH0@Z 0000000180017010 f i CuCloth.obj
 0001:00016080       ??$?RAEBIAEBI@?$less@X@std@@QEBA_NAEBI0@Z 0000000180017080 f i CuCloth.obj
 0001:000160f0       ??$?RAEBMAEBM@?$less@X@std@@QEBA_NAEBM0@Z 00000001800170f0 f i CuCloth.obj
 0001:00016160       ??$?RAEBQEBVPxVec3@physx@@AEBQEBV01@@?$less@X@std@@QEBA_NAEBQEBVPxVec3@physx@@0@Z 0000000180017160 f i CuCloth.obj
 0001:000161d0       ??$?RAEB_JAEB_J@?$less@X@std@@QEBA_NAEB_J0@Z 00000001800171d0 f i CuCloth.obj
 0001:00016240       ??$?RAEB_KAEB_K@?$less@X@std@@QEBA_NAEB_K0@Z 0000000180017240 f i CuCloth.obj
 0001:000162b0       ??$PX_UNUSED@W4PxIDENTITY@physx@@@@YAXAEBW4PxIDENTITY@physx@@@Z 00000001800172b0 f i CuCloth.obj
 0001:000162c0       ??$PX_UNUSED@W4PxZERO@physx@@@@YAXAEBW4PxZERO@physx@@@Z 00000001800172c0 f i CuCloth.obj
 0001:000162d0       ??$PxMax@M@physx@@YAMMM@Z  00000001800172d0 f i CuCloth.obj
 0001:00016320       ??$PxMin@M@physx@@YAMMM@Z  0000000180017320 f i CuCloth.obj
 0001:00016370       ??$_Debug_lt@AEBEAEBE@std@@YA_NAEBE0PEB_WI@Z 0000000180017370 f i CuCloth.obj
 0001:00016400       ??$_Debug_lt@AEBHAEBH@std@@YA_NAEBH0PEB_WI@Z 0000000180017400 f i CuCloth.obj
 0001:00016490       ??$_Debug_lt@AEBIAEBI@std@@YA_NAEBI0PEB_WI@Z 0000000180017490 f i CuCloth.obj
 0001:00016520       ??$_Debug_lt@AEBMAEBM@std@@YA_NAEBM0PEB_WI@Z 0000000180017520 f i CuCloth.obj
 0001:000165b0       ??$_Debug_lt@AEBQEBVPxVec3@physx@@AEBQEBV12@@std@@YA_NAEBQEBVPxVec3@physx@@0PEB_WI@Z 00000001800175b0 f i CuCloth.obj
 0001:00016640       ??$_Debug_lt@AEB_JAEB_J@std@@YA_NAEB_J0PEB_WI@Z 0000000180017640 f i CuCloth.obj
 0001:000166d0       ??$_Debug_lt@AEB_KAEB_K@std@@YA_NAEB_K0PEB_WI@Z 00000001800176d0 f i CuCloth.obj
 0001:00016760       ??$_Debug_lt_pred@U?$less@X@std@@AEBEAEBE@std@@YA_N$$QEAU?$less@X@0@AEBE1PEB_WI@Z 0000000180017760 f i CuCloth.obj
 0001:00016830       ??$_Debug_lt_pred@U?$less@X@std@@AEBHAEBH@std@@YA_N$$QEAU?$less@X@0@AEBH1PEB_WI@Z 0000000180017830 f i CuCloth.obj
 0001:00016900       ??$_Debug_lt_pred@U?$less@X@std@@AEBIAEBI@std@@YA_N$$QEAU?$less@X@0@AEBI1PEB_WI@Z 0000000180017900 f i CuCloth.obj
 0001:000169d0       ??$_Debug_lt_pred@U?$less@X@std@@AEBMAEBM@std@@YA_N$$QEAU?$less@X@0@AEBM1PEB_WI@Z 00000001800179d0 f i CuCloth.obj
 0001:00016aa0       ??$_Debug_lt_pred@U?$less@X@std@@AEBQEBVPxVec3@physx@@AEBQEBV34@@std@@YA_N$$QEAU?$less@X@0@AEBQEBVPxVec3@physx@@1PEB_WI@Z 0000000180017aa0 f i CuCloth.obj
 0001:00016b70       ??$_Debug_lt_pred@U?$less@X@std@@AEB_JAEB_J@std@@YA_N$$QEAU?$less@X@0@AEB_J1PEB_WI@Z 0000000180017b70 f i CuCloth.obj
 0001:00016c40       ??$_Debug_lt_pred@U?$less@X@std@@AEB_KAEB_K@std@@YA_N$$QEAU?$less@X@0@AEB_K1PEB_WI@Z 0000000180017c40 f i CuCloth.obj
 0001:00016d10       ??$assign@PEAUCuPhaseConfig@cloth@nv@@@?$CuDeviceVector@UCuPhaseConfig@cloth@nv@@@cloth@nv@@QEAAXPEAUCuPhaseConfig@12@0@Z 0000000180017d10 f i CuCloth.obj
 0001:00016de0       ??$assign@PEBI@?$CuDeviceVector@I@cloth@nv@@QEAAXPEBI0@Z 0000000180017de0 f i CuCloth.obj
 0001:00016eb0       ??$assign@PEBU?$Vec4T@G@cloth@nv@@@?$CuDeviceVector@U?$Vec4T@G@cloth@nv@@@cloth@nv@@QEAAXPEBU?$Vec4T@G@12@0@Z 0000000180017eb0 f i CuCloth.obj
 0001:00016f80       ??$assign@PEBVPxVec4@physx@@@?$CuDeviceVector@VPxVec4@physx@@@cloth@nv@@QEAAXPEBVPxVec4@physx@@0@Z 0000000180017f80 f i CuCloth.obj
 0001:00017050       ??$copy@V?$CuHostAllocator@UIndexPair@cloth@nv@@$01@cloth@nv@@@?$Array@UIndexPair@cloth@nv@@V?$CuHostAllocator@UIndexPair@cloth@nv@@$01@23@@shdfnd@physx@@IEAAXAEBV012@@Z 0000000180018050 f i CuCloth.obj
 0001:00017160       ??$copy@V?$CuHostAllocator@VPxVec3@physx@@$01@cloth@nv@@@?$Array@VPxVec3@physx@@V?$CuHostAllocator@VPxVec3@physx@@$01@cloth@nv@@@shdfnd@physx@@IEAAXAEBV012@@Z 0000000180018160 f i CuCloth.obj
 0001:00017270       ??$copy@V?$CuHostAllocator@VPxVec4@physx@@$01@cloth@nv@@@?$Array@VPxVec4@physx@@V?$CuHostAllocator@VPxVec4@physx@@$01@cloth@nv@@@shdfnd@physx@@IEAAXAEBV012@@Z 0000000180018270 f i CuCloth.obj
 0001:00017380       ??$copy@VCuCloth@cloth@nv@@V123@@cloth@nv@@YAXAEAVCuCloth@01@AEBV201@@Z 0000000180018380 f i CuCloth.obj
 0001:00017840       ??$copy@VNonTrackingAllocator@cloth@nv@@@?$Array@UPhaseConfig@cloth@nv@@VNonTrackingAllocator@23@@shdfnd@physx@@IEAAXAEBV012@@Z 0000000180018840 f i CuCloth.obj
 0001:00017940       ??$forward@AEBE@std@@YAAEBEAEBE@Z 0000000180018940 f i CuCloth.obj
 0001:00017950       ??$forward@AEBH@std@@YAAEBHAEBH@Z 0000000180018950 f i CuCloth.obj
 0001:00017960       ??$forward@AEBI@std@@YAAEBIAEBI@Z 0000000180018960 f i CuCloth.obj
 0001:00017970       ??$forward@AEBM@std@@YAAEBMAEBM@Z 0000000180018970 f i CuCloth.obj
 0001:00017980       ??$forward@AEBQEBVPxVec3@physx@@@std@@YAAEBQEBVPxVec3@physx@@AEBQEBV12@@Z 0000000180018980 f i CuCloth.obj
 0001:00017990       ??$forward@AEB_J@std@@YAAEB_JAEB_J@Z 0000000180018990 f i CuCloth.obj
 0001:000179a0       ??$forward@AEB_K@std@@YAAEB_KAEB_K@Z 00000001800189a0 f i CuCloth.obj
 0001:000179b0       ??$getMappedParticles@$$CBVPxVec4@physx@@@?$ClothImpl@VCuCloth@cloth@nv@@@cloth@nv@@QEBA?AU?$MappedRange@$$CBVPxVec4@physx@@@12@PEBVPxVec4@physx@@@Z 00000001800189b0 f i CuCloth.obj
 0001:00017ae0       ??$getMappedParticles@VPxVec4@physx@@@?$ClothImpl@VCuCloth@cloth@nv@@@cloth@nv@@QEBA?AU?$MappedRange@VPxVec4@physx@@@12@PEAVPxVec4@physx@@@Z 0000000180018ae0 f i CuCloth.obj
 0001:00017c10       ??$initialize@VCuCloth@cloth@nv@@@cloth@nv@@YAXAEAVCuCloth@01@PEBVPxVec4@physx@@1@Z 0000000180018c10 f i CuCloth.obj
 0001:00018290       ??$max@E@std@@YAAEBEAEBE0@Z 0000000180019290 f i CuCloth.obj
 0001:00018320       ??$max@H@std@@YAAEBHAEBH0@Z 0000000180019320 f i CuCloth.obj
 0001:000183b0       ??$max@I@std@@YAAEBIAEBI0@Z 00000001800193b0 f i CuCloth.obj
 0001:00018440       ??$max@_K@std@@YAAEB_KAEB_K0@Z 0000000180019440 f i CuCloth.obj
 0001:000184d0       ??$min@H@std@@YAAEBHAEBH0@Z 00000001800194d0 f i CuCloth.obj
 0001:00018560       ??$min@I@std@@YAAEBIAEBI0@Z 0000000180019560 f i CuCloth.obj
 0001:000185f0       ??$min@M@std@@YAAEBMAEBM0@Z 00000001800195f0 f i CuCloth.obj
 0001:00018680       ??$min@PEBVPxVec3@physx@@@std@@YAAEBQEBVPxVec3@physx@@AEBQEBV12@0@Z 0000000180019680 f i CuCloth.obj
 0001:00018710       ??$min@_J@std@@YAAEB_JAEB_J0@Z 0000000180019710 f i CuCloth.obj
 0001:000187a0       ??$move@AEAV?$CuDevicePointer@VPxVec4@physx@@@cloth@nv@@@std@@YA$$QEAV?$CuDevicePointer@VPxVec4@physx@@@cloth@nv@@AEAV123@@Z 00000001800197a0 f i CuCloth.obj
 0001:000187b0       ??$move@PEAI@cloth@nv@@YAXPEAIIII@Z 00000001800197b0 f i CuCloth.obj
 0001:00018890       ??$move@PEAUIndexPair@cloth@nv@@@cloth@nv@@YAXPEAUIndexPair@01@III@Z 0000000180019890 f i CuCloth.obj
 0001:00018970       ??$move@PEAVPxVec3@physx@@@cloth@nv@@YAXPEAVPxVec3@physx@@III@Z 0000000180019970 f i CuCloth.obj
 0001:00018ac0       ??$move@PEAVPxVec4@physx@@@cloth@nv@@YAXPEAVPxVec4@physx@@III@Z 0000000180019ac0 f i CuCloth.obj
 0001:00018c10       ??$swap@I@shdfnd@physx@@YAXAEAI0@Z 0000000180019c10 f i CuCloth.obj
 0001:00018c70       ??$swap@PEAVPxVec4@physx@@@shdfnd@physx@@YAXAEAPEAVPxVec4@1@0@Z 0000000180019c70 f i CuCloth.obj
 0001:00018ce0       ??$swap@V?$CuDevicePointer@VPxVec4@physx@@@cloth@nv@@X@std@@YAXAEAV?$CuDevicePointer@VPxVec4@physx@@@cloth@nv@@0@Z 0000000180019ce0 f i CuCloth.obj
 0001:00018d80       ??$swap@VPxVec4@physx@@$01@shdfnd@physx@@YAXAEAV?$CuHostVectorImpl@VPxVec4@physx@@$01@cloth@nv@@0@Z 0000000180019d80 f i CuCloth.obj
 0001:00018dd0       ??$swap@_K@shdfnd@physx@@YAXAEA_K0@Z 0000000180019dd0 f i CuCloth.obj
 0001:00018e40       ??0?$Array@IV?$CuHostAllocator@I$01@cloth@nv@@@shdfnd@physx@@QEAA@AEBV?$CuHostAllocator@I$01@cloth@nv@@@Z 0000000180019e40 f i CuCloth.obj
 0001:00018ea0       ??0?$Array@IVNonTrackingAllocator@cloth@nv@@@shdfnd@physx@@QEAA@AEBVNonTrackingAllocator@cloth@nv@@@Z 0000000180019ea0 f i CuCloth.obj
 0001:00018ef0       ??0?$Array@U?$Vec4T@G@cloth@nv@@VNonTrackingAllocator@23@@shdfnd@physx@@QEAA@AEBVNonTrackingAllocator@cloth@nv@@@Z 0000000180019ef0 f i CuCloth.obj
 0001:00018f40       ??0?$Array@UCuPhaseConfig@cloth@nv@@VNonTrackingAllocator@23@@shdfnd@physx@@QEAA@AEBVNonTrackingAllocator@cloth@nv@@@Z 0000000180019f40 f i CuCloth.obj
 0001:00018f90       ??0?$Array@UIndexPair@cloth@nv@@V?$CuHostAllocator@UIndexPair@cloth@nv@@$01@23@@shdfnd@physx@@QEAA@AEBV012@AEBV?$CuHostAllocator@UIndexPair@cloth@nv@@$01@cloth@nv@@@Z 0000000180019f90 f i CuCloth.obj
 0001:00019000       ??0?$Array@UIndexPair@cloth@nv@@V?$CuHostAllocator@UIndexPair@cloth@nv@@$01@23@@shdfnd@physx@@QEAA@AEBV?$CuHostAllocator@UIndexPair@cloth@nv@@$01@cloth@nv@@@Z 000000018001a000 f i CuCloth.obj
 0001:00019060       ??0?$Array@UPhaseConfig@cloth@nv@@VNonTrackingAllocator@23@@shdfnd@physx@@QEAA@AEBV012@AEBVNonTrackingAllocator@cloth@nv@@@Z 000000018001a060 f i CuCloth.obj
 0001:000190c0       ??0?$Array@UPhaseConfig@cloth@nv@@VNonTrackingAllocator@23@@shdfnd@physx@@QEAA@AEBVNonTrackingAllocator@cloth@nv@@@Z 000000018001a0c0 f i CuCloth.obj
 0001:00019110       ??0?$Array@VPxVec3@physx@@V?$CuHostAllocator@VPxVec3@physx@@$01@cloth@nv@@@shdfnd@physx@@QEAA@AEBV012@AEBV?$CuHostAllocator@VPxVec3@physx@@$01@cloth@nv@@@Z 000000018001a110 f i CuCloth.obj
 0001:00019180       ??0?$Array@VPxVec3@physx@@V?$CuHostAllocator@VPxVec3@physx@@$01@cloth@nv@@@shdfnd@physx@@QEAA@AEBV?$CuHostAllocator@VPxVec3@physx@@$01@cloth@nv@@@Z 000000018001a180 f i CuCloth.obj
 0001:000191e0       ??0?$Array@VPxVec4@physx@@V?$CuHostAllocator@VPxVec4@physx@@$01@cloth@nv@@@shdfnd@physx@@QEAA@AEBV012@AEBV?$CuHostAllocator@VPxVec4@physx@@$01@cloth@nv@@@Z 000000018001a1e0 f i CuCloth.obj
 0001:00019250       ??0?$Array@VPxVec4@physx@@V?$CuHostAllocator@VPxVec4@physx@@$01@cloth@nv@@@shdfnd@physx@@QEAA@AEBV?$CuHostAllocator@VPxVec4@physx@@$01@cloth@nv@@@Z 000000018001a250 f i CuCloth.obj
 0001:000192b0       ??0?$Array@VPxVec4@physx@@VNonTrackingAllocator@cloth@nv@@@shdfnd@physx@@QEAA@AEBVNonTrackingAllocator@cloth@nv@@@Z 000000018001a2b0 f i CuCloth.obj
 0001:00019300       ??0?$ClothImpl@VCuCloth@cloth@nv@@@cloth@nv@@QEAA@XZ 000000018001a300 f i CuCloth.obj
 0001:000194b0       ??0?$CuDevicePointer@I@cloth@nv@@QEAA@XZ 000000018001a4b0 f i CuCloth.obj
 0001:000194d0       ??0?$CuDevicePointer@M@cloth@nv@@QEAA@AEBV012@@Z 000000018001a4d0 f i CuCloth.obj
 0001:00019520       ??0?$CuDevicePointer@M@cloth@nv@@QEAA@XZ 000000018001a520 f i CuCloth.obj
 0001:00019540       ??0?$CuDevicePointer@U?$Vec4T@G@cloth@nv@@@cloth@nv@@QEAA@XZ 000000018001a540 f i CuCloth.obj
 0001:00019560       ??0?$CuDevicePointer@UCuPhaseConfig@cloth@nv@@@cloth@nv@@QEAA@XZ 000000018001a560 f i CuCloth.obj
 0001:00019580       ??0?$CuDevicePointer@VPxVec4@physx@@@cloth@nv@@QEAA@AEBV012@@Z 000000018001a580 f i CuCloth.obj
 0001:000195d0       ??0?$CuDevicePointer@VPxVec4@physx@@@cloth@nv@@QEAA@XZ 000000018001a5d0 f i CuCloth.obj
 0001:000195f0       ??0?$CuDeviceVector@I@cloth@nv@@QEAA@AEBV012@@Z 000000018001a5f0 f i CuCloth.obj
 0001:00019700       ??0?$CuDeviceVector@I@cloth@nv@@QEAA@PEAUCUctx_st@@@Z 000000018001a700 f i CuCloth.obj
 0001:000197f0       ??0?$CuDeviceVector@M@cloth@nv@@QEAA@PEAUCUctx_st@@@Z 000000018001a7f0 f i CuCloth.obj
 0001:000198e0       ??0?$CuDeviceVector@U?$Vec4T@G@cloth@nv@@@cloth@nv@@QEAA@AEBV012@@Z 000000018001a8e0 f i CuCloth.obj
 0001:000199f0       ??0?$CuDeviceVector@U?$Vec4T@G@cloth@nv@@@cloth@nv@@QEAA@PEAUCUctx_st@@@Z 000000018001a9f0 f i CuCloth.obj
 0001:00019ae0       ??0?$CuDeviceVector@UCuPhaseConfig@cloth@nv@@@cloth@nv@@QEAA@AEBV012@@Z 000000018001aae0 f i CuCloth.obj
 0001:00019bf0       ??0?$CuDeviceVector@UCuPhaseConfig@cloth@nv@@@cloth@nv@@QEAA@PEAUCUctx_st@@@Z 000000018001abf0 f i CuCloth.obj
 0001:00019ce0       ??0?$CuDeviceVector@VPxVec4@physx@@@cloth@nv@@QEAA@AEBV012@@Z 000000018001ace0 f i CuCloth.obj
 0001:00019df0       ??0?$CuDeviceVector@VPxVec4@physx@@@cloth@nv@@QEAA@PEAUCUctx_st@@@Z 000000018001adf0 f i CuCloth.obj
 0001:00019ee0       ??0?$CuHostAllocator@I$01@cloth@nv@@QEAA@PEAUCUctx_st@@@Z 000000018001aee0 f i CuCloth.obj
 0001:00019f20       ??0?$CuHostAllocator@UIndexPair@cloth@nv@@$01@cloth@nv@@QEAA@PEAUCUctx_st@@@Z 000000018001af20 f i CuCloth.obj
 0001:00019f60       ??0?$CuHostAllocator@VPxVec3@physx@@$01@cloth@nv@@QEAA@PEAUCUctx_st@@@Z 000000018001af60 f i CuCloth.obj
 0001:00019fa0       ??0?$CuHostAllocator@VPxVec4@physx@@$01@cloth@nv@@QEAA@PEAUCUctx_st@@@Z 000000018001afa0 f i CuCloth.obj
 0001:00019fe0       ??0?$CuHostVectorImpl@I$01@cloth@nv@@QEAA@AEBV?$CuHostAllocator@I$01@12@@Z 000000018001afe0 f i CuCloth.obj
 0001:0001a030       ??0?$CuHostVectorImpl@UIndexPair@cloth@nv@@$01@cloth@nv@@QEAA@AEBV012@AEBV?$CuHostAllocator@UIndexPair@cloth@nv@@$01@12@@Z 000000018001b030 f i CuCloth.obj
 0001:0001a090       ??0?$CuHostVectorImpl@UIndexPair@cloth@nv@@$01@cloth@nv@@QEAA@AEBV?$CuHostAllocator@UIndexPair@cloth@nv@@$01@12@@Z 000000018001b090 f i CuCloth.obj
 0001:0001a0e0       ??0?$CuHostVectorImpl@VPxVec3@physx@@$01@cloth@nv@@QEAA@AEBV012@AEBV?$CuHostAllocator@VPxVec3@physx@@$01@12@@Z 000000018001b0e0 f i CuCloth.obj
 0001:0001a140       ??0?$CuHostVectorImpl@VPxVec3@physx@@$01@cloth@nv@@QEAA@AEBV?$CuHostAllocator@VPxVec3@physx@@$01@12@@Z 000000018001b140 f i CuCloth.obj
 0001:0001a190       ??0?$CuHostVectorImpl@VPxVec4@physx@@$01@cloth@nv@@QEAA@AEBV012@AEBV?$CuHostAllocator@VPxVec4@physx@@$01@12@@Z 000000018001b190 f i CuCloth.obj
 0001:0001a1f0       ??0?$CuHostVectorImpl@VPxVec4@physx@@$01@cloth@nv@@QEAA@AEBV?$CuHostAllocator@VPxVec4@physx@@$01@12@@Z 000000018001b1f0 f i CuCloth.obj
 0001:0001a240       ??0?$MappedRange@$$CBVPxVec4@physx@@@cloth@nv@@QEAA@PEBVPxVec4@physx@@0AEBVCloth@12@P8512@EBAXXZ2@Z 000000018001b240 f i CuCloth.obj
 0001:0001a2f0       ??0?$MappedRange@VPxVec4@physx@@@cloth@nv@@QEAA@PEAVPxVec4@physx@@0AEBVCloth@12@P8512@EBAXXZ2@Z 000000018001b2f0 f i CuCloth.obj
 0001:0001a3a0       ??0?$Range@$$CBUPhaseConfig@cloth@nv@@@cloth@nv@@QEAA@PEBUPhaseConfig@12@0@Z 000000018001b3a0 f i CuCloth.obj
 0001:0001a3e0       ??0?$Range@$$CBVPxVec3@physx@@@cloth@nv@@QEAA@PEBVPxVec3@physx@@0@Z 000000018001b3e0 f i CuCloth.obj
 0001:0001a420       ??0?$Range@$$CBVPxVec4@physx@@@cloth@nv@@QEAA@PEBVPxVec4@physx@@0@Z 000000018001b420 f i CuCloth.obj
 0001:0001a460       ??0?$Range@VPxVec4@physx@@@cloth@nv@@QEAA@PEAVPxVec4@physx@@0@Z 000000018001b460 f i CuCloth.obj
 0001:0001a4a0       ??0Cloth@cloth@nv@@IEAA@XZ 000000018001b4a0 f i CuCloth.obj
 0001:0001a4d0       ??0CuConstraints@cloth@nv@@QEAA@AEBU012@@Z 000000018001b4d0 f i CuCloth.obj
 0001:0001a590       ??0CuConstraints@cloth@nv@@QEAA@PEAUCUctx_st@@@Z 000000018001b590 f i CuCloth.obj
 0001:0001a630       ??0MovingAverage@cloth@nv@@QEAA@I@Z 000000018001b630 f i CuCloth.obj
 0001:0001a700       ??0NonTrackingAllocator@cloth@nv@@QEAA@PEBD@Z 000000018001b700 f i CuCloth.obj
 0001:0001a720       ??0PxQuat@physx@@QEAA@MMMM@Z 000000018001b720 f i CuCloth.obj
 0001:0001a7a0       ??0PxQuat@physx@@QEAA@W4PxIDENTITY@1@@Z 000000018001b7a0 f i CuCloth.obj
 0001:0001a830       ??0PxQuat@physx@@QEAA@XZ   000000018001b830 f i CuCloth.obj
 0001:0001a840       ??0PxTransform@physx@@QEAA@W4PxIDENTITY@1@@Z 000000018001b840 f i CuCloth.obj
 0001:0001a8b0       ??0PxTransform@physx@@QEAA@XZ 000000018001b8b0 f i CuCloth.obj
 0001:0001a910       ??0PxVec3@physx@@QEAA@AEBV01@@Z 000000018001b910 f i CuCloth.obj
 0001:0001a970       ??0PxVec3@physx@@QEAA@M@Z  000000018001b970 f i CuCloth.obj
 0001:0001a9d0       ??0PxVec3@physx@@QEAA@MMM@Z 000000018001b9d0 f i CuCloth.obj
 0001:0001aa40       ??0PxVec3@physx@@QEAA@W4PxZERO@1@@Z 000000018001ba40 f i CuCloth.obj
 0001:0001aac0       ??0PxVec3@physx@@QEAA@XZ   000000018001bac0 f i CuCloth.obj
 0001:0001aad0       ??0PxVec4@physx@@QEAA@AEBV01@@Z 000000018001bad0 f i CuCloth.obj
 0001:0001ab50       ??0PxVec4@physx@@QEAA@M@Z  000000018001bb50 f i CuCloth.obj
 0001:0001abc0       ??0PxVec4@physx@@QEAA@MMMM@Z 000000018001bbc0 f i CuCloth.obj
 0001:0001ac40       ??0PxVec4@physx@@QEAA@XZ   000000018001bc40 f i CuCloth.obj
 0001:0001ac50       ??0Simd4fScalarFactory@cloth@nv@@QEAA@AEBM@Z 000000018001bc50 f i CuCloth.obj
 0001:0001ac80       ??0Simd4fTupleFactory@cloth@nv@@QEAA@IIII@Z 000000018001bc80 f i CuCloth.obj
 0001:0001ad40       ??0Simd4iScalarFactory@cloth@nv@@QEAA@AEBH@Z 000000018001bd40 f i CuCloth.obj
 0001:0001ad70       ??1?$Array@IV?$CuHostAllocator@I$01@cloth@nv@@@shdfnd@physx@@QEAA@XZ 000000018001bd70 f i CuCloth.obj
 0001:0001ae10       ??1?$Array@IVNonTrackingAllocator@cloth@nv@@@shdfnd@physx@@QEAA@XZ 000000018001be10 f i CuCloth.obj
 0001:0001aeb0       ??1?$Array@U?$Vec4T@G@cloth@nv@@VNonTrackingAllocator@23@@shdfnd@physx@@QEAA@XZ 000000018001beb0 f i CuCloth.obj
 0001:0001af50       ??1?$Array@U?$Vec4T@I@cloth@nv@@VNonTrackingAllocator@23@@shdfnd@physx@@QEAA@XZ 000000018001bf50 f i CuCloth.obj
 0001:0001aff0       ??1?$Array@UCuPhaseConfig@cloth@nv@@VNonTrackingAllocator@23@@shdfnd@physx@@QEAA@XZ 000000018001bff0 f i CuCloth.obj
 0001:0001b090       ??1?$Array@UIndexPair@cloth@nv@@V?$CuHostAllocator@UIndexPair@cloth@nv@@$01@23@@shdfnd@physx@@QEAA@XZ 000000018001c090 f i CuCloth.obj
 0001:0001b130       ??1?$Array@UPhaseConfig@cloth@nv@@VNonTrackingAllocator@23@@shdfnd@physx@@QEAA@XZ 000000018001c130 f i CuCloth.obj
 0001:0001b1d0       ??1?$Array@VPxVec3@physx@@V?$CuHostAllocator@VPxVec3@physx@@$01@cloth@nv@@@shdfnd@physx@@QEAA@XZ 000000018001c1d0 f i CuCloth.obj
 0001:0001b270       ??1?$Array@VPxVec4@physx@@V?$CuHostAllocator@VPxVec4@physx@@$01@cloth@nv@@@shdfnd@physx@@QEAA@XZ 000000018001c270 f i CuCloth.obj
 0001:0001b310       ??1?$Array@VPxVec4@physx@@VNonTrackingAllocator@cloth@nv@@@shdfnd@physx@@QEAA@XZ 000000018001c310 f i CuCloth.obj
 0001:0001b3b0       ??1?$ClothImpl@VCuCloth@cloth@nv@@@cloth@nv@@UEAA@XZ 000000018001c3b0 f i CuCloth.obj
 0001:0001b410       ??1?$CuDeviceVector@I@cloth@nv@@QEAA@XZ 000000018001c410 f i CuCloth.obj
 0001:0001b480       ??1?$CuDeviceVector@M@cloth@nv@@QEAA@XZ 000000018001c480 f i CuCloth.obj
 0001:0001b4f0       ??1?$CuDeviceVector@U?$Vec4T@G@cloth@nv@@@cloth@nv@@QEAA@XZ 000000018001c4f0 f i CuCloth.obj
 0001:0001b560       ??1?$CuDeviceVector@UCuPhaseConfig@cloth@nv@@@cloth@nv@@QEAA@XZ 000000018001c560 f i CuCloth.obj
 0001:0001b5d0       ??1?$CuDeviceVector@VPxVec4@physx@@@cloth@nv@@QEAA@XZ 000000018001c5d0 f i CuCloth.obj
 0001:0001b640       ??1?$CuHostVectorImpl@I$01@cloth@nv@@QEAA@XZ 000000018001c640 f i CuCloth.obj
 0001:0001b680       ??1?$CuHostVectorImpl@UIndexPair@cloth@nv@@$01@cloth@nv@@QEAA@XZ 000000018001c680 f i CuCloth.obj
 0001:0001b6c0       ??1?$CuHostVectorImpl@VPxVec3@physx@@$01@cloth@nv@@QEAA@XZ 000000018001c6c0 f i CuCloth.obj
 0001:0001b700       ??1?$CuHostVectorImpl@VPxVec4@physx@@$01@cloth@nv@@QEAA@XZ 000000018001c700 f i CuCloth.obj
 0001:0001b740       ??1Cloth@cloth@nv@@UEAA@XZ 000000018001c740 f i CuCloth.obj
 0001:0001b760       ??1CuConstraints@cloth@nv@@QEAA@XZ 000000018001c760 f i CuCloth.obj
 0001:0001b7d0       ??1MovingAverage@cloth@nv@@QEAA@XZ 000000018001c7d0 f i CuCloth.obj
 0001:0001b830       ??1TripletScheduler@cloth@nv@@QEAA@XZ 000000018001c830 f i CuCloth.obj
 0001:0001b8a0       ??2@YAPEAX_KPEAX@Z         000000018001c8a0 f i CuCloth.obj
 0001:0001b8c0       ??3UserAllocated@cloth@nv@@SAXPEAX@Z 000000018001c8c0 f i CuCloth.obj
 0001:0001b920       ??4?$CuDeviceVector@I@cloth@nv@@QEAAAEAV012@AEBV012@@Z 000000018001c920 f i CuCloth.obj
 0001:0001b9f0       ??4?$CuDeviceVector@U?$Vec4T@G@cloth@nv@@@cloth@nv@@QEAAAEAV012@AEBV012@@Z 000000018001c9f0 f i CuCloth.obj
 0001:0001bac0       ??4?$CuDeviceVector@UCuPhaseConfig@cloth@nv@@@cloth@nv@@QEAAAEAV012@AEBV012@@Z 000000018001cac0 f i CuCloth.obj
 0001:0001bb90       ??4?$CuDeviceVector@VPxVec4@physx@@@cloth@nv@@QEAAAEAV012@AEBV012@@Z 000000018001cb90 f i CuCloth.obj
 0001:0001bc60       ??4MovingAverage@cloth@nv@@QEAAAEAU012@AEBU012@@Z 000000018001cc60 f i CuCloth.obj
 0001:0001bda0       ??4PxQuat@physx@@QEAAAEAV01@AEBV01@@Z 000000018001cda0 f i CuCloth.obj
 0001:0001be20       ??4PxTransform@physx@@QEAAAEAV01@$$QEAV01@@Z 000000018001ce20 f i CuCloth.obj
 0001:0001be90       ??4PxTransform@physx@@QEAAAEAV01@AEBV01@@Z 000000018001ce90 f i CuCloth.obj
 0001:0001bf00       ??4PxVec3@physx@@QEAAAEAV01@AEBV01@@Z 000000018001cf00 f i CuCloth.obj
 0001:0001bf60       ??4PxVec4@physx@@QEAAAEAV01@AEBV01@@Z 000000018001cf60 f i CuCloth.obj
 0001:0001bfe0       ??4TripletSchedulerTestInterface@cloth@nv@@QEAAAEAU012@AEBU012@@Z 000000018001cfe0 f i CuCloth.obj
 0001:0001c010       ??8PxVec3@physx@@QEBA_NAEBV01@@Z 000000018001d010 f i CuCloth.obj
 0001:0001c0b0       ??A?$Array@IV?$CuHostAllocator@I$01@cloth@nv@@@shdfnd@physx@@QEAAAEAII@Z 000000018001d0b0 f i CuCloth.obj
 0001:0001c170       ??A?$Array@IVNonTrackingAllocator@cloth@nv@@@shdfnd@physx@@QEAAAEAII@Z 000000018001d170 f i CuCloth.obj
 0001:0001c230       ??A?$Array@UIndexPair@cloth@nv@@V?$CuHostAllocator@UIndexPair@cloth@nv@@$01@23@@shdfnd@physx@@QEAAAEAUIndexPair@cloth@nv@@I@Z 000000018001d230 f i CuCloth.obj
 0001:0001c2f0       ??A?$Array@V?$CuDevicePointer@$$CBG@cloth@nv@@VNonTrackingAllocator@23@@shdfnd@physx@@QEAAAEAV?$CuDevicePointer@$$CBG@cloth@nv@@I@Z 000000018001d2f0 f i CuCloth.obj
 0001:0001c3b0       ??A?$Array@V?$CuDevicePointer@$$CBM@cloth@nv@@VNonTrackingAllocator@23@@shdfnd@physx@@QEAAAEAV?$CuDevicePointer@$$CBM@cloth@nv@@I@Z 000000018001d3b0 f i CuCloth.obj
 0001:0001c470       ??A?$Array@VPxVec3@physx@@V?$CuHostAllocator@VPxVec3@physx@@$01@cloth@nv@@@shdfnd@physx@@QEAAAEAVPxVec3@2@I@Z 000000018001d470 f i CuCloth.obj
 0001:0001c530       ??A?$Array@VPxVec4@physx@@V?$CuHostAllocator@VPxVec4@physx@@$01@cloth@nv@@@shdfnd@physx@@QEAAAEAVPxVec4@2@I@Z 000000018001d530 f i CuCloth.obj
 0001:0001c5f0       ??A?$Range@$$CBI@cloth@nv@@QEBAAEBII@Z 000000018001d5f0 f i CuCloth.obj
 0001:0001c6b0       ??A?$Range@$$CBVPxVec3@physx@@@cloth@nv@@QEBAAEBVPxVec3@physx@@I@Z 000000018001d6b0 f i CuCloth.obj
 0001:0001c770       ??A?$Range@$$CBVPxVec4@physx@@@cloth@nv@@QEBAAEBVPxVec4@physx@@I@Z 000000018001d770 f i CuCloth.obj
 0001:0001c830       ??DPxVec4@physx@@QEBA?AV01@M@Z 000000018001d830 f i CuCloth.obj
 0001:0001c8f0       ??G?$CuDevicePointer@I@cloth@nv@@QEBA_JAEBV012@@Z 000000018001d8f0 f i CuCloth.obj
 0001:0001c920       ??G?$CuDevicePointer@M@cloth@nv@@QEBA_JAEBV012@@Z 000000018001d920 f i CuCloth.obj
 0001:0001c950       ??G?$CuDevicePointer@U?$Vec4T@G@cloth@nv@@@cloth@nv@@QEBA_JAEBV012@@Z 000000018001d950 f i CuCloth.obj
 0001:0001c980       ??G?$CuDevicePointer@UCuPhaseConfig@cloth@nv@@@cloth@nv@@QEBA_JAEBV012@@Z 000000018001d980 f i CuCloth.obj
 0001:0001c9c0       ??G?$CuDevicePointer@VPxVec4@physx@@@cloth@nv@@QEBA_JAEBV012@@Z 000000018001d9c0 f i CuCloth.obj
 0001:0001c9f0       ??GPxQuat@physx@@QEBA?AV01@AEBV01@@Z 000000018001d9f0 f i CuCloth.obj
 0001:0001cac0       ??GPxVec3@physx@@QEBA?AV01@AEBV01@@Z 000000018001dac0 f i CuCloth.obj
 0001:0001cb70       ??GPxVec4@physx@@QEBA?AV01@AEBV01@@Z 000000018001db70 f i CuCloth.obj
 0001:0001cc40       ??GPxVec4@physx@@QEBA?AV01@XZ 000000018001dc40 f i CuCloth.obj
 0001:0001cd00       ??H?$CuDevicePointer@I@cloth@nv@@QEBA?AV012@AEB_J@Z 000000018001dd00 f i CuCloth.obj
 0001:0001cd70       ??H?$CuDevicePointer@M@cloth@nv@@QEBA?AV012@AEB_J@Z 000000018001dd70 f i CuCloth.obj
 0001:0001cde0       ??H?$CuDevicePointer@U?$Vec4T@G@cloth@nv@@@cloth@nv@@QEBA?AV012@AEB_J@Z 000000018001dde0 f i CuCloth.obj
 0001:0001ce50       ??H?$CuDevicePointer@UCuPhaseConfig@cloth@nv@@@cloth@nv@@QEBA?AV012@AEB_J@Z 000000018001de50 f i CuCloth.obj
 0001:0001cec0       ??H?$CuDevicePointer@VPxVec4@physx@@@cloth@nv@@QEBA?AV012@AEB_J@Z 000000018001dec0 f i CuCloth.obj
 0001:0001cf30       ??HPxVec4@physx@@QEBA?AV01@AEBV01@@Z 000000018001df30 f i CuCloth.obj
 0001:0001d000       ??Y?$CuDevicePointer@VPxVec4@physx@@@cloth@nv@@QEAAAEAV012@_J@Z 000000018001e000 f i CuCloth.obj
 0001:0001d040       ??YPxVec3@physx@@QEAAAEAV01@AEBV01@@Z 000000018001e040 f i CuCloth.obj
 0001:0001d0c4       ??_9Cloth@cloth@nv@@$BCI@AA 000000018001e0c4 f i CuCloth.obj
 0001:0001d0cc       ??_9Cloth@cloth@nv@@$BDA@AA 000000018001e0cc f i CuCloth.obj
 0001:0001d0e0       ??_G?$ClothImpl@VCuCloth@cloth@nv@@@cloth@nv@@UEAAPEAXI@Z 000000018001e0e0 f i CuCloth.obj
 0001:0001d0e0       ??_E?$ClothImpl@VCuCloth@cloth@nv@@@cloth@nv@@UEAAPEAXI@Z 000000018001e0e0 f i CuCloth.obj
 0001:0001d170       ??_ECloth@cloth@nv@@UEAAPEAXI@Z 000000018001e170 f i CuCloth.obj
 0001:0001d170       ??_GCloth@cloth@nv@@UEAAPEAXI@Z 000000018001e170 f i CuCloth.obj
 0001:0001d200       ??_ECuCloth@cloth@nv@@UEAAPEAXI@Z 000000018001e200 f i CuCloth.obj
 0001:0001d200       ??_GCuCloth@cloth@nv@@UEAAPEAXI@Z 000000018001e200 f i CuCloth.obj
 0001:0001d290       ?__empty_global_delete@@YAXPEAX@Z 000000018001e290 f i CuCloth.obj
 0001:0001d2a0       ?__empty_global_delete@@YAXPEAX_K@Z 000000018001e2a0 f i CuCloth.obj
 0001:0001d2b0       ?allocate@?$Array@IV?$CuHostAllocator@I$01@cloth@nv@@@shdfnd@physx@@IEAAPEAII@Z 000000018001e2b0 f i CuCloth.obj
 0001:0001d380       ?allocate@?$Array@IVNonTrackingAllocator@cloth@nv@@@shdfnd@physx@@IEAAPEAII@Z 000000018001e380 f i CuCloth.obj
 0001:0001d450       ?allocate@?$Array@U?$Vec4T@G@cloth@nv@@VNonTrackingAllocator@23@@shdfnd@physx@@IEAAPEAU?$Vec4T@G@cloth@nv@@I@Z 000000018001e450 f i CuCloth.obj
 0001:0001d520       ?allocate@?$Array@UCuPhaseConfig@cloth@nv@@VNonTrackingAllocator@23@@shdfnd@physx@@IEAAPEAUCuPhaseConfig@cloth@nv@@I@Z 000000018001e520 f i CuCloth.obj
 0001:0001d5f0       ?allocate@?$Array@UIndexPair@cloth@nv@@V?$CuHostAllocator@UIndexPair@cloth@nv@@$01@23@@shdfnd@physx@@IEAAPEAUIndexPair@cloth@nv@@I@Z 000000018001e5f0 f i CuCloth.obj
 0001:0001d6c0       ?allocate@?$Array@UPhaseConfig@cloth@nv@@VNonTrackingAllocator@23@@shdfnd@physx@@IEAAPEAUPhaseConfig@cloth@nv@@I@Z 000000018001e6c0 f i CuCloth.obj
 0001:0001d790       ?allocate@?$Array@VPxVec3@physx@@V?$CuHostAllocator@VPxVec3@physx@@$01@cloth@nv@@@shdfnd@physx@@IEAAPEAVPxVec3@3@I@Z 000000018001e790 f i CuCloth.obj
 0001:0001d860       ?allocate@?$Array@VPxVec4@physx@@V?$CuHostAllocator@VPxVec4@physx@@$01@cloth@nv@@@shdfnd@physx@@IEAAPEAVPxVec4@3@I@Z 000000018001e860 f i CuCloth.obj
 0001:0001d930       ?allocate@?$Array@VPxVec4@physx@@VNonTrackingAllocator@cloth@nv@@@shdfnd@physx@@IEAAPEAVPxVec4@3@I@Z 000000018001e930 f i CuCloth.obj
 0001:0001da00       ?allocate@?$CuHostAllocator@I$01@cloth@nv@@QEAAPEAI_KPEBDH@Z 000000018001ea00 f i CuCloth.obj
 0001:0001daf0       ?allocate@?$CuHostAllocator@UIndexPair@cloth@nv@@$01@cloth@nv@@QEAAPEAUIndexPair@23@_KPEBDH@Z 000000018001eaf0 f i CuCloth.obj
 0001:0001dbe0       ?allocate@?$CuHostAllocator@VPxVec3@physx@@$01@cloth@nv@@QEAAPEAVPxVec3@physx@@_KPEBDH@Z 000000018001ebe0 f i CuCloth.obj
 0001:0001dcd0       ?allocate@?$CuHostAllocator@VPxVec4@physx@@$01@cloth@nv@@QEAAPEAVPxVec4@physx@@_KPEBDH@Z 000000018001ecd0 f i CuCloth.obj
 0001:0001ddc0       ?allocate@NonTrackingAllocator@cloth@nv@@QEAAPEAX_KPEBDH@Z 000000018001edc0 f i CuCloth.obj
 0001:0001de70       ?array@cloth@nv@@YAAEAY03MAEAVPxVec4@physx@@@Z 000000018001ee70 f i CuCloth.obj
 0001:0001de80       ?assign@?$Array@IVNonTrackingAllocator@cloth@nv@@@shdfnd@physx@@QEAAXPEBI0@Z 000000018001ee80 f i CuCloth.obj
 0001:0001df20       ?assign@?$Array@UPhaseConfig@cloth@nv@@VNonTrackingAllocator@23@@shdfnd@physx@@QEAAXPEBUPhaseConfig@cloth@nv@@0@Z 000000018001ef20 f i CuCloth.obj
 0001:0001dfd0       ?assign@?$Array@VPxVec3@physx@@V?$CuHostAllocator@VPxVec3@physx@@$01@cloth@nv@@@shdfnd@physx@@QEAAXPEBVPxVec3@3@0@Z 000000018001efd0 f i CuCloth.obj
 0001:0001e080       ?assign@?$Array@VPxVec4@physx@@V?$CuHostAllocator@VPxVec4@physx@@$01@cloth@nv@@@shdfnd@physx@@QEAAXPEBVPxVec4@3@0@Z 000000018001f080 f i CuCloth.obj
 0001:0001e120       ?begin@?$Array@IV?$CuHostAllocator@I$01@cloth@nv@@@shdfnd@physx@@QEAAPEAIXZ 000000018001f120 f i CuCloth.obj
 0001:0001e140       ?begin@?$Array@IVNonTrackingAllocator@cloth@nv@@@shdfnd@physx@@QEAAPEAIXZ 000000018001f140 f i CuCloth.obj
 0001:0001e160       ?begin@?$Array@IVNonTrackingAllocator@cloth@nv@@@shdfnd@physx@@QEBAPEBIXZ 000000018001f160 f i CuCloth.obj
 0001:0001e180       ?begin@?$Array@U?$Vec4T@I@cloth@nv@@VNonTrackingAllocator@23@@shdfnd@physx@@QEAAPEAU?$Vec4T@I@cloth@nv@@XZ 000000018001f180 f i CuCloth.obj
 0001:0001e1a0       ?begin@?$Array@U?$Vec4T@I@cloth@nv@@VNonTrackingAllocator@23@@shdfnd@physx@@QEBAPEBU?$Vec4T@I@cloth@nv@@XZ 000000018001f1a0 f i CuCloth.obj
 0001:0001e1c0       ?begin@?$Array@UCuPhaseConfig@cloth@nv@@VNonTrackingAllocator@23@@shdfnd@physx@@QEAAPEAUCuPhaseConfig@cloth@nv@@XZ 000000018001f1c0 f i CuCloth.obj
 0001:0001e1e0       ?begin@?$Array@UIndexPair@cloth@nv@@V?$CuHostAllocator@UIndexPair@cloth@nv@@$01@23@@shdfnd@physx@@QEAAPEAUIndexPair@cloth@nv@@XZ 000000018001f1e0 f i CuCloth.obj
 0001:0001e200       ?begin@?$Array@UIndexPair@cloth@nv@@V?$CuHostAllocator@UIndexPair@cloth@nv@@$01@23@@shdfnd@physx@@QEBAPEBUIndexPair@cloth@nv@@XZ 000000018001f200 f i CuCloth.obj
 0001:0001e220       ?begin@?$Array@UPhaseConfig@cloth@nv@@VNonTrackingAllocator@23@@shdfnd@physx@@QEAAPEAUPhaseConfig@cloth@nv@@XZ 000000018001f220 f i CuCloth.obj
 0001:0001e240       ?begin@?$Array@UPhaseConfig@cloth@nv@@VNonTrackingAllocator@23@@shdfnd@physx@@QEBAPEBUPhaseConfig@cloth@nv@@XZ 000000018001f240 f i CuCloth.obj
 0001:0001e260       ?begin@?$Array@VPxVec3@physx@@V?$CuHostAllocator@VPxVec3@physx@@$01@cloth@nv@@@shdfnd@physx@@QEAAPEAVPxVec3@3@XZ 000000018001f260 f i CuCloth.obj
 0001:0001e280       ?begin@?$Array@VPxVec3@physx@@V?$CuHostAllocator@VPxVec3@physx@@$01@cloth@nv@@@shdfnd@physx@@QEBAPEBVPxVec3@3@XZ 000000018001f280 f i CuCloth.obj
 0001:0001e2a0       ?begin@?$Array@VPxVec4@physx@@V?$CuHostAllocator@VPxVec4@physx@@$01@cloth@nv@@@shdfnd@physx@@QEAAPEAVPxVec4@3@XZ 000000018001f2a0 f i CuCloth.obj
 0001:0001e2c0       ?begin@?$Array@VPxVec4@physx@@V?$CuHostAllocator@VPxVec4@physx@@$01@cloth@nv@@@shdfnd@physx@@QEBAPEBVPxVec4@3@XZ 000000018001f2c0 f i CuCloth.obj
 0001:0001e2e0       ?begin@?$CuDeviceVector@M@cloth@nv@@QEAA?AV?$CuDevicePointer@M@23@XZ 000000018001f2e0 f i CuCloth.obj
 0001:0001e340       ?begin@?$CuDeviceVector@VPxVec4@physx@@@cloth@nv@@QEAA?AV?$CuDevicePointer@VPxVec4@physx@@@23@XZ 000000018001f340 f i CuCloth.obj
 0001:0001e3a0       ?begin@?$Range@$$CBI@cloth@nv@@QEBAPEBIXZ 000000018001f3a0 f i CuCloth.obj
 0001:0001e3c0       ?begin@?$Range@$$CBUPhaseConfig@cloth@nv@@@cloth@nv@@QEBAPEBUPhaseConfig@23@XZ 000000018001f3c0 f i CuCloth.obj
 0001:0001e3e0       ?begin@?$Range@$$CBVPxVec3@physx@@@cloth@nv@@QEBAPEBVPxVec3@physx@@XZ 000000018001f3e0 f i CuCloth.obj
 0001:0001e400       ?begin@?$Range@$$CBVPxVec4@physx@@@cloth@nv@@QEBAPEBVPxVec4@physx@@XZ 000000018001f400 f i CuCloth.obj
 0001:0001e420       ?capacity@?$Array@IV?$CuHostAllocator@I$01@cloth@nv@@@shdfnd@physx@@QEBAIXZ 000000018001f420 f i CuCloth.obj
 0001:0001e440       ?capacity@?$Array@IVNonTrackingAllocator@cloth@nv@@@shdfnd@physx@@QEBAIXZ 000000018001f440 f i CuCloth.obj
 0001:0001e460       ?capacity@?$Array@U?$Vec4T@G@cloth@nv@@VNonTrackingAllocator@23@@shdfnd@physx@@QEBAIXZ 000000018001f460 f i CuCloth.obj
 0001:0001e480       ?capacity@?$Array@U?$Vec4T@I@cloth@nv@@VNonTrackingAllocator@23@@shdfnd@physx@@QEBAIXZ 000000018001f480 f i CuCloth.obj
 0001:0001e4a0       ?capacity@?$Array@UCuPhaseConfig@cloth@nv@@VNonTrackingAllocator@23@@shdfnd@physx@@QEBAIXZ 000000018001f4a0 f i CuCloth.obj
 0001:0001e4c0       ?capacity@?$Array@UIndexPair@cloth@nv@@V?$CuHostAllocator@UIndexPair@cloth@nv@@$01@23@@shdfnd@physx@@QEBAIXZ 000000018001f4c0 f i CuCloth.obj
 0001:0001e4e0       ?capacity@?$Array@UPhaseConfig@cloth@nv@@VNonTrackingAllocator@23@@shdfnd@physx@@QEBAIXZ 000000018001f4e0 f i CuCloth.obj
 0001:0001e500       ?capacity@?$Array@VPxVec3@physx@@V?$CuHostAllocator@VPxVec3@physx@@$01@cloth@nv@@@shdfnd@physx@@QEBAIXZ 000000018001f500 f i CuCloth.obj
 0001:0001e520       ?capacity@?$Array@VPxVec4@physx@@V?$CuHostAllocator@VPxVec4@physx@@$01@cloth@nv@@@shdfnd@physx@@QEBAIXZ 000000018001f520 f i CuCloth.obj
 0001:0001e540       ?capacity@?$Array@VPxVec4@physx@@VNonTrackingAllocator@cloth@nv@@@shdfnd@physx@@QEBAIXZ 000000018001f540 f i CuCloth.obj
 0001:0001e560       ?capacity@?$CuDeviceVector@I@cloth@nv@@QEBA_KXZ 000000018001f560 f i CuCloth.obj
 0001:0001e5b0       ?capacity@?$CuDeviceVector@M@cloth@nv@@QEBA_KXZ 000000018001f5b0 f i CuCloth.obj
 0001:0001e600       ?capacity@?$CuDeviceVector@U?$Vec4T@G@cloth@nv@@@cloth@nv@@QEBA_KXZ 000000018001f600 f i CuCloth.obj
 0001:0001e650       ?capacity@?$CuDeviceVector@UCuPhaseConfig@cloth@nv@@@cloth@nv@@QEBA_KXZ 000000018001f650 f i CuCloth.obj
 0001:0001e6a0       ?capacity@?$CuDeviceVector@VPxVec4@physx@@@cloth@nv@@QEBA_KXZ 000000018001f6a0 f i CuCloth.obj
 0001:0001e6f0       ?capacityIncrement@?$Array@U?$Vec4T@G@cloth@nv@@VNonTrackingAllocator@23@@shdfnd@physx@@IEBAIXZ 000000018001f6f0 f i CuCloth.obj
 0001:0001e760       ?capacityIncrement@?$Array@UCuPhaseConfig@cloth@nv@@VNonTrackingAllocator@23@@shdfnd@physx@@IEBAIXZ 000000018001f760 f i CuCloth.obj
 0001:0001e7d0       ?capacityIncrement@?$Array@UPhaseConfig@cloth@nv@@VNonTrackingAllocator@23@@shdfnd@physx@@IEBAIXZ 000000018001f7d0 f i CuCloth.obj
 0001:0001e840       ?capacityIncrement@?$Array@VPxVec3@physx@@V?$CuHostAllocator@VPxVec3@physx@@$01@cloth@nv@@@shdfnd@physx@@IEBAIXZ 000000018001f840 f i CuCloth.obj
 0001:0001e8b0       ?capacityIncrement@?$Array@VPxVec4@physx@@V?$CuHostAllocator@VPxVec4@physx@@$01@cloth@nv@@@shdfnd@physx@@IEBAIXZ 000000018001f8b0 f i CuCloth.obj
 0001:0001e920       ?capacityIncrement@?$Array@VPxVec4@physx@@VNonTrackingAllocator@cloth@nv@@@shdfnd@physx@@IEBAIXZ 000000018001f920 f i CuCloth.obj
 0001:0001e990       ?clearInertia@?$ClothImpl@VCuCloth@cloth@nv@@@cloth@nv@@UEAAXXZ 000000018001f990 f i CuCloth.obj
 0001:0001ea50       ?clearInterpolation@?$ClothImpl@VCuCloth@cloth@nv@@@cloth@nv@@UEAAXXZ 000000018001fa50 f i CuCloth.obj
 0001:0001ebc0       ?clearMotionConstraints@?$ClothImpl@VCuCloth@cloth@nv@@@cloth@nv@@UEAAXXZ 000000018001fbc0 f i CuCloth.obj
 0001:0001ec40       ?clearSeparationConstraints@?$ClothImpl@VCuCloth@cloth@nv@@@cloth@nv@@UEAAXXZ 000000018001fc40 f i CuCloth.obj
 0001:0001ecc0       ?copy@?$Array@IV?$CuHostAllocator@I$01@cloth@nv@@@shdfnd@physx@@KAXPEAI0PEBI@Z 000000018001fcc0 f i CuCloth.obj
 0001:0001ed90       ?copy@?$Array@IVNonTrackingAllocator@cloth@nv@@@shdfnd@physx@@KAXPEAI0PEBI@Z 000000018001fd90 f i CuCloth.obj
 0001:0001ee60       ?copy@?$Array@U?$Vec4T@G@cloth@nv@@VNonTrackingAllocator@23@@shdfnd@physx@@KAXPEAU?$Vec4T@G@cloth@nv@@0PEBU456@@Z 000000018001fe60 f i CuCloth.obj
 0001:0001ef40       ?copy@?$Array@UCuPhaseConfig@cloth@nv@@VNonTrackingAllocator@23@@shdfnd@physx@@KAXPEAUCuPhaseConfig@cloth@nv@@0PEBU456@@Z 000000018001ff40 f i CuCloth.obj
 0001:0001f020       ?copy@?$Array@UIndexPair@cloth@nv@@V?$CuHostAllocator@UIndexPair@cloth@nv@@$01@23@@shdfnd@physx@@KAXPEAUIndexPair@cloth@nv@@0PEBU456@@Z 0000000180020020 f i CuCloth.obj
 0001:0001f100       ?copy@?$Array@UPhaseConfig@cloth@nv@@VNonTrackingAllocator@23@@shdfnd@physx@@KAXPEAUPhaseConfig@cloth@nv@@0PEBU456@@Z 0000000180020100 f i CuCloth.obj
 0001:0001f1e0       ?copy@?$Array@VPxVec3@physx@@V?$CuHostAllocator@VPxVec3@physx@@$01@cloth@nv@@@shdfnd@physx@@KAXPEAVPxVec3@3@0PEBV43@@Z 00000001800201e0 f i CuCloth.obj
 0001:0001f2b0       ?copy@?$Array@VPxVec4@physx@@V?$CuHostAllocator@VPxVec4@physx@@$01@cloth@nv@@@shdfnd@physx@@KAXPEAVPxVec4@3@0PEBV43@@Z 00000001800202b0 f i CuCloth.obj
 0001:0001f380       ?copy@?$Array@VPxVec4@physx@@VNonTrackingAllocator@cloth@nv@@@shdfnd@physx@@KAXPEAVPxVec4@3@0PEBV43@@Z 0000000180020380 f i CuCloth.obj
 0001:0001f450       ?create@?$Array@IV?$CuHostAllocator@I$01@cloth@nv@@@shdfnd@physx@@KAXPEAI0AEBI@Z 0000000180020450 f i CuCloth.obj
 0001:0001f500       ?create@?$Array@UIndexPair@cloth@nv@@V?$CuHostAllocator@UIndexPair@cloth@nv@@$01@23@@shdfnd@physx@@KAXPEAUIndexPair@cloth@nv@@0AEBU456@@Z 0000000180020500 f i CuCloth.obj
 0001:0001f5b0       ?create@?$Array@VPxVec3@physx@@V?$CuHostAllocator@VPxVec3@physx@@$01@cloth@nv@@@shdfnd@physx@@KAXPEAVPxVec3@3@0AEBV43@@Z 00000001800205b0 f i CuCloth.obj
 0001:0001f660       ?create@?$Array@VPxVec4@physx@@V?$CuHostAllocator@VPxVec4@physx@@$01@cloth@nv@@@shdfnd@physx@@KAXPEAVPxVec4@3@0AEBV43@@Z 0000000180020660 f i CuCloth.obj
 0001:0001f710       ?deallocate@?$Array@IV?$CuHostAllocator@I$01@cloth@nv@@@shdfnd@physx@@IEAAXPEAX@Z 0000000180020710 f i CuCloth.obj
 0001:0001f760       ?deallocate@?$Array@IVNonTrackingAllocator@cloth@nv@@@shdfnd@physx@@IEAAXPEAX@Z 0000000180020760 f i CuCloth.obj
 0001:0001f7b0       ?deallocate@?$Array@U?$Vec4T@G@cloth@nv@@VNonTrackingAllocator@23@@shdfnd@physx@@IEAAXPEAX@Z 00000001800207b0 f i CuCloth.obj
 0001:0001f800       ?deallocate@?$Array@U?$Vec4T@I@cloth@nv@@VNonTrackingAllocator@23@@shdfnd@physx@@IEAAXPEAX@Z 0000000180020800 f i CuCloth.obj
 0001:0001f850       ?deallocate@?$Array@UCuPhaseConfig@cloth@nv@@VNonTrackingAllocator@23@@shdfnd@physx@@IEAAXPEAX@Z 0000000180020850 f i CuCloth.obj
 0001:0001f8a0       ?deallocate@?$Array@UIndexPair@cloth@nv@@V?$CuHostAllocator@UIndexPair@cloth@nv@@$01@23@@shdfnd@physx@@IEAAXPEAX@Z 00000001800208a0 f i CuCloth.obj
 0001:0001f8f0       ?deallocate@?$Array@UPhaseConfig@cloth@nv@@VNonTrackingAllocator@23@@shdfnd@physx@@IEAAXPEAX@Z 00000001800208f0 f i CuCloth.obj
 0001:0001f940       ?deallocate@?$Array@VPxVec3@physx@@V?$CuHostAllocator@VPxVec3@physx@@$01@cloth@nv@@@shdfnd@physx@@IEAAXPEAX@Z 0000000180020940 f i CuCloth.obj
 0001:0001f990       ?deallocate@?$Array@VPxVec4@physx@@V?$CuHostAllocator@VPxVec4@physx@@$01@cloth@nv@@@shdfnd@physx@@IEAAXPEAX@Z 0000000180020990 f i CuCloth.obj
 0001:0001f9e0       ?deallocate@?$Array@VPxVec4@physx@@VNonTrackingAllocator@cloth@nv@@@shdfnd@physx@@IEAAXPEAX@Z 00000001800209e0 f i CuCloth.obj
 0001:0001fa30       ?deallocate@?$CuHostAllocator@I$01@cloth@nv@@QEAAXPEAX@Z 0000000180020a30 f i CuCloth.obj
 0001:0001fa90       ?deallocate@?$CuHostAllocator@UIndexPair@cloth@nv@@$01@cloth@nv@@QEAAXPEAX@Z 0000000180020a90 f i CuCloth.obj
 0001:0001faf0       ?deallocate@?$CuHostAllocator@VPxVec3@physx@@$01@cloth@nv@@QEAAXPEAX@Z 0000000180020af0 f i CuCloth.obj
 0001:0001fb50       ?deallocate@?$CuHostAllocator@VPxVec4@physx@@$01@cloth@nv@@QEAAXPEAX@Z 0000000180020b50 f i CuCloth.obj
 0001:0001fbb0       ?deallocate@NonTrackingAllocator@cloth@nv@@QEAAXPEAX@Z 0000000180020bb0 f i CuCloth.obj
 0001:0001fc20       ?decRefCount@Fabric@cloth@nv@@QEAA_NXZ 0000000180020c20 f i CuCloth.obj
 0001:0001fd30       ?destroy@?$Array@IV?$CuHostAllocator@I$01@cloth@nv@@@shdfnd@physx@@KAXPEAI0@Z 0000000180020d30 f i CuCloth.obj
 0001:0001fd70       ?destroy@?$Array@IVNonTrackingAllocator@cloth@nv@@@shdfnd@physx@@KAXPEAI0@Z 0000000180020d70 f i CuCloth.obj
 0001:0001fdb0       ?destroy@?$Array@U?$Vec4T@G@cloth@nv@@VNonTrackingAllocator@23@@shdfnd@physx@@KAXPEAU?$Vec4T@G@cloth@nv@@0@Z 0000000180020db0 f i CuCloth.obj
 0001:0001fdf0       ?destroy@?$Array@U?$Vec4T@I@cloth@nv@@VNonTrackingAllocator@23@@shdfnd@physx@@KAXPEAU?$Vec4T@I@cloth@nv@@0@Z 0000000180020df0 f i CuCloth.obj
 0001:0001fe30       ?destroy@?$Array@UCuPhaseConfig@cloth@nv@@VNonTrackingAllocator@23@@shdfnd@physx@@KAXPEAUCuPhaseConfig@cloth@nv@@0@Z 0000000180020e30 f i CuCloth.obj
 0001:0001fe70       ?destroy@?$Array@UIndexPair@cloth@nv@@V?$CuHostAllocator@UIndexPair@cloth@nv@@$01@23@@shdfnd@physx@@KAXPEAUIndexPair@cloth@nv@@0@Z 0000000180020e70 f i CuCloth.obj
 0001:0001feb0       ?destroy@?$Array@UPhaseConfig@cloth@nv@@VNonTrackingAllocator@23@@shdfnd@physx@@KAXPEAUPhaseConfig@cloth@nv@@0@Z 0000000180020eb0 f i CuCloth.obj
 0001:0001fef0       ?destroy@?$Array@VPxVec3@physx@@V?$CuHostAllocator@VPxVec3@physx@@$01@cloth@nv@@@shdfnd@physx@@KAXPEAVPxVec3@3@0@Z 0000000180020ef0 f i CuCloth.obj
 0001:0001ff30       ?destroy@?$Array@VPxVec4@physx@@V?$CuHostAllocator@VPxVec4@physx@@$01@cloth@nv@@@shdfnd@physx@@KAXPEAVPxVec4@3@0@Z 0000000180020f30 f i CuCloth.obj
 0001:0001ff70       ?destroy@?$Array@VPxVec4@physx@@VNonTrackingAllocator@cloth@nv@@@shdfnd@physx@@KAXPEAVPxVec4@3@0@Z 0000000180020f70 f i CuCloth.obj
 0001:0001ffb0       ?dev@?$CuDevicePointer@I@cloth@nv@@QEBA_KXZ 0000000180020fb0 f i CuCloth.obj
 0001:0001ffd0       ?dev@?$CuDevicePointer@M@cloth@nv@@QEBA_KXZ 0000000180020fd0 f i CuCloth.obj
 0001:0001fff0       ?dev@?$CuDevicePointer@U?$Vec4T@G@cloth@nv@@@cloth@nv@@QEBA_KXZ 0000000180020ff0 f i CuCloth.obj
 0001:00020010       ?dev@?$CuDevicePointer@UCuPhaseConfig@cloth@nv@@@cloth@nv@@QEBA_KXZ 0000000180021010 f i CuCloth.obj
 0001:00020030       ?dev@?$CuDevicePointer@VPxVec4@physx@@@cloth@nv@@QEBA_KXZ 0000000180021030 f i CuCloth.obj
 0001:00020050       ?empty@?$Array@IVNonTrackingAllocator@cloth@nv@@@shdfnd@physx@@QEBA_NXZ 0000000180021050 f i CuCloth.obj
 0001:000200b0       ?empty@?$Array@U?$Vec4T@G@cloth@nv@@VNonTrackingAllocator@23@@shdfnd@physx@@QEBA_NXZ 00000001800210b0 f i CuCloth.obj
 0001:00020110       ?empty@?$Array@UIndexPair@cloth@nv@@V?$CuHostAllocator@UIndexPair@cloth@nv@@$01@23@@shdfnd@physx@@QEBA_NXZ 0000000180021110 f i CuCloth.obj
 0001:00020170       ?empty@?$Array@UPhaseConfig@cloth@nv@@VNonTrackingAllocator@23@@shdfnd@physx@@QEBA_NXZ 0000000180021170 f i CuCloth.obj
 0001:000201d0       ?empty@?$Array@VPxVec3@physx@@V?$CuHostAllocator@VPxVec3@physx@@$01@cloth@nv@@@shdfnd@physx@@QEBA_NXZ 00000001800211d0 f i CuCloth.obj
 0001:00020230       ?empty@?$Array@VPxVec4@physx@@V?$CuHostAllocator@VPxVec4@physx@@$01@cloth@nv@@@shdfnd@physx@@QEBA_NXZ 0000000180021230 f i CuCloth.obj
 0001:00020290       ?empty@?$Array@VPxVec4@physx@@VNonTrackingAllocator@cloth@nv@@@shdfnd@physx@@QEBA_NXZ 0000000180021290 f i CuCloth.obj
 0001:000202f0       ?empty@?$CuDeviceVector@I@cloth@nv@@QEBA_NXZ 00000001800212f0 f i CuCloth.obj
 0001:00020340       ?empty@?$CuDeviceVector@M@cloth@nv@@QEBA_NXZ 0000000180021340 f i CuCloth.obj
 0001:00020390       ?empty@?$CuDeviceVector@VPxVec4@physx@@@cloth@nv@@QEBA_NXZ 0000000180021390 f i CuCloth.obj
 0001:000203e0       ?empty@?$Range@$$CBUPhaseConfig@cloth@nv@@@cloth@nv@@QEBA_NXZ 00000001800213e0 f i CuCloth.obj
 0001:00020440       ?empty@?$Range@$$CBVPxVec3@physx@@@cloth@nv@@QEBA_NXZ 0000000180021440 f i CuCloth.obj
 0001:000204a0       ?empty@?$Range@$$CBVPxVec4@physx@@@cloth@nv@@QEBA_NXZ 00000001800214a0 f i CuCloth.obj
 0001:00020500       ?enableContinuousCollision@?$ClothImpl@VCuCloth@cloth@nv@@@cloth@nv@@UEAAX_N@Z 0000000180021500 f i CuCloth.obj
 0001:000205b0       ?end@?$Array@IV?$CuHostAllocator@I$01@cloth@nv@@@shdfnd@physx@@QEAAPEAIXZ 00000001800215b0 f i CuCloth.obj
 0001:000205e0       ?end@?$Array@IVNonTrackingAllocator@cloth@nv@@@shdfnd@physx@@QEAAPEAIXZ 00000001800215e0 f i CuCloth.obj
 0001:00020610       ?end@?$Array@IVNonTrackingAllocator@cloth@nv@@@shdfnd@physx@@QEBAPEBIXZ 0000000180021610 f i CuCloth.obj
 0001:00020640       ?end@?$Array@U?$Vec4T@I@cloth@nv@@VNonTrackingAllocator@23@@shdfnd@physx@@QEAAPEAU?$Vec4T@I@cloth@nv@@XZ 0000000180021640 f i CuCloth.obj
 0001:00020670       ?end@?$Array@UCuPhaseConfig@cloth@nv@@VNonTrackingAllocator@23@@shdfnd@physx@@QEAAPEAUCuPhaseConfig@cloth@nv@@XZ 0000000180021670 f i CuCloth.obj
 0001:000206a0       ?end@?$Array@UIndexPair@cloth@nv@@V?$CuHostAllocator@UIndexPair@cloth@nv@@$01@23@@shdfnd@physx@@QEAAPEAUIndexPair@cloth@nv@@XZ 00000001800216a0 f i CuCloth.obj
 0001:000206d0       ?end@?$Array@UPhaseConfig@cloth@nv@@VNonTrackingAllocator@23@@shdfnd@physx@@QEAAPEAUPhaseConfig@cloth@nv@@XZ 00000001800216d0 f i CuCloth.obj
 0001:00020700       ?end@?$Array@VPxVec3@physx@@V?$CuHostAllocator@VPxVec3@physx@@$01@cloth@nv@@@shdfnd@physx@@QEAAPEAVPxVec3@3@XZ 0000000180021700 f i CuCloth.obj
 0001:00020730       ?end@?$Array@VPxVec4@physx@@V?$CuHostAllocator@VPxVec4@physx@@$01@cloth@nv@@@shdfnd@physx@@QEAAPEAVPxVec4@3@XZ 0000000180021730 f i CuCloth.obj
 0001:00020760       ?end@?$Range@$$CBI@cloth@nv@@QEBAPEBIXZ 0000000180021760 f i CuCloth.obj
 0001:00020780       ?end@?$Range@$$CBUPhaseConfig@cloth@nv@@@cloth@nv@@QEBAPEBUPhaseConfig@23@XZ 0000000180021780 f i CuCloth.obj
 0001:000207a0       ?end@?$Range@$$CBVPxVec3@physx@@@cloth@nv@@QEBAPEBVPxVec3@physx@@XZ 00000001800217a0 f i CuCloth.obj
 0001:000207c0       ?end@?$Range@$$CBVPxVec4@physx@@@cloth@nv@@QEBAPEBVPxVec4@physx@@XZ 00000001800217c0 f i CuCloth.obj
 0001:000207e0       ?exp2@shdfnd@physx@@YAMM@Z 00000001800217e0 f i CuCloth.obj
 0001:00020820       ?front@?$Array@IVNonTrackingAllocator@cloth@nv@@@shdfnd@physx@@QEBAAEBIXZ 0000000180021820 f i CuCloth.obj
 0001:000208d0       ?front@?$Array@U?$Vec4T@G@cloth@nv@@VNonTrackingAllocator@23@@shdfnd@physx@@QEBAAEBU?$Vec4T@G@cloth@nv@@XZ 00000001800218d0 f i CuCloth.obj
 0001:00020980       ?front@?$Array@VPxVec4@physx@@V?$CuHostAllocator@VPxVec4@physx@@$01@cloth@nv@@@shdfnd@physx@@QEAAAEAVPxVec4@3@XZ 0000000180021980 f i CuCloth.obj
 0001:00020a30       ?front@?$Array@VPxVec4@physx@@VNonTrackingAllocator@cloth@nv@@@shdfnd@physx@@QEBAAEBVPxVec4@3@XZ 0000000180021a30 f i CuCloth.obj
 0001:00020ae0       ?front@?$Range@$$CBUPhaseConfig@cloth@nv@@@cloth@nv@@QEBAAEBUPhaseConfig@23@XZ 0000000180021ae0 f i CuCloth.obj
 0001:00020b90       ?front@?$Range@$$CBVPxVec3@physx@@@cloth@nv@@QEBAAEBVPxVec3@physx@@XZ 0000000180021b90 f i CuCloth.obj
 0001:00020c40       ?get@?$CuDevicePointer@$$CBG@cloth@nv@@QEBAPEBGXZ 0000000180021c40 f i CuCloth.obj
 0001:00020c60       ?get@?$CuDevicePointer@$$CBM@cloth@nv@@QEBAPEBMXZ 0000000180021c60 f i CuCloth.obj
 0001:00020c80       ?get@?$CuDevicePointer@M@cloth@nv@@QEBAPEAMXZ 0000000180021c80 f i CuCloth.obj
 0001:00020ca0       ?get@?$CuDevicePointer@VPxVec4@physx@@@cloth@nv@@QEBAPEAVPxVec4@physx@@XZ 0000000180021ca0 f i CuCloth.obj
 0001:00020cc0       ?getAccelerationFilterWidth@?$ClothImpl@VCuCloth@cloth@nv@@@cloth@nv@@UEBAIXZ 0000000180021cc0 f i CuCloth.obj
 0001:00020d10       ?getAngularDrag@?$ClothImpl@VCuCloth@cloth@nv@@@cloth@nv@@UEBA?AVPxVec3@physx@@XZ 0000000180021d10 f i CuCloth.obj
 0001:00020da0       ?getAngularInertia@?$ClothImpl@VCuCloth@cloth@nv@@@cloth@nv@@UEBA?AVPxVec3@physx@@XZ 0000000180021da0 f i CuCloth.obj
 0001:00020e00       ?getBoundingBoxCenter@?$ClothImpl@VCuCloth@cloth@nv@@@cloth@nv@@UEBAAEBVPxVec3@physx@@XZ 0000000180021e00 f i CuCloth.obj
 0001:00020e40       ?getBoundingBoxScale@?$ClothImpl@VCuCloth@cloth@nv@@@cloth@nv@@UEBAAEBVPxVec3@physx@@XZ 0000000180021e40 f i CuCloth.obj
 0001:00020e80       ?getCentrifugalInertia@?$ClothImpl@VCuCloth@cloth@nv@@@cloth@nv@@UEBA?AVPxVec3@physx@@XZ 0000000180021e80 f i CuCloth.obj
 0001:00020ee0       ?getChildCloth@?$ClothImpl@VCuCloth@cloth@nv@@@cloth@nv@@QEAAPEAVCuCloth@23@XZ 0000000180021ee0 f i CuCloth.obj
 0001:00020ef0       ?getChildCloth@?$ClothImpl@VCuCloth@cloth@nv@@@cloth@nv@@QEBAPEBVCuCloth@23@XZ 0000000180021ef0 f i CuCloth.obj
 0001:00020f00       ?getCollisionMassScale@?$ClothImpl@VCuCloth@cloth@nv@@@cloth@nv@@UEBAMXZ 0000000180021f00 f i CuCloth.obj
 0001:00020f50       ?getDamping@?$ClothImpl@VCuCloth@cloth@nv@@@cloth@nv@@UEBA?AVPxVec3@physx@@XZ 0000000180021f50 f i CuCloth.obj
 0001:00020fe0       ?getDragCoefficient@?$ClothImpl@VCuCloth@cloth@nv@@@cloth@nv@@UEBAMXZ 0000000180021fe0 f i CuCloth.obj
 0001:00021040       ?getFabric@?$ClothImpl@VCuCloth@cloth@nv@@@cloth@nv@@UEBAAEAVFabric@23@XZ 0000000180022040 f i CuCloth.obj
 0001:00021090       ?getFactory@?$ClothImpl@VCuCloth@cloth@nv@@@cloth@nv@@UEBAAEAVFactory@23@XZ 0000000180022090 f i CuCloth.obj
 0001:000210e0       ?getFluidDensity@?$ClothImpl@VCuCloth@cloth@nv@@@cloth@nv@@UEBAMXZ 00000001800220e0 f i CuCloth.obj
 0001:00021120       ?getFriction@?$ClothImpl@VCuCloth@cloth@nv@@@cloth@nv@@UEBAMXZ 0000000180022120 f i CuCloth.obj
 0001:00021170       ?getGravity@?$ClothImpl@VCuCloth@cloth@nv@@@cloth@nv@@UEBA?AVPxVec3@physx@@XZ 0000000180022170 f i CuCloth.obj
 0001:000211d0       ?getLiftCoefficient@?$ClothImpl@VCuCloth@cloth@nv@@@cloth@nv@@UEBAMXZ 00000001800221d0 f i CuCloth.obj
 0001:00021230       ?getLinearDrag@?$ClothImpl@VCuCloth@cloth@nv@@@cloth@nv@@UEBA?AVPxVec3@physx@@XZ 0000000180022230 f i CuCloth.obj
 0001:000212c0       ?getLinearInertia@?$ClothImpl@VCuCloth@cloth@nv@@@cloth@nv@@UEBA?AVPxVec3@physx@@XZ 00000001800222c0 f i CuCloth.obj
 0001:00021320       ?getMotionConstraintBias@?$ClothImpl@VCuCloth@cloth@nv@@@cloth@nv@@UEBAMXZ 0000000180022320 f i CuCloth.obj
 0001:00021370       ?getMotionConstraintScale@?$ClothImpl@VCuCloth@cloth@nv@@@cloth@nv@@UEBAMXZ 0000000180022370 f i CuCloth.obj
 0001:000213c0       ?getMotionConstraintStiffness@?$ClothImpl@VCuCloth@cloth@nv@@@cloth@nv@@UEBAMXZ 00000001800223c0 f i CuCloth.obj
 0001:00021420       ?getMotionConstraints@?$ClothImpl@VCuCloth@cloth@nv@@@cloth@nv@@UEAA?AU?$Range@VPxVec4@physx@@@23@XZ 0000000180022420 f i CuCloth.obj
 0001:000214c0       ?getNumCapsules@?$ClothImpl@VCuCloth@cloth@nv@@@cloth@nv@@UEBAIXZ 00000001800224c0 f i CuCloth.obj
 0001:00021510       ?getNumConvexes@?$ClothImpl@VCuCloth@cloth@nv@@@cloth@nv@@UEBAIXZ 0000000180022510 f i CuCloth.obj
 0001:00021560       ?getNumMotionConstraints@?$ClothImpl@VCuCloth@cloth@nv@@@cloth@nv@@UEBAIXZ 0000000180022560 f i CuCloth.obj
 0001:000215b0       ?getNumParticleAccelerations@?$ClothImpl@VCuCloth@cloth@nv@@@cloth@nv@@UEBAIXZ 00000001800225b0 f i CuCloth.obj
 0001:00021600       ?getNumPlanes@?$ClothImpl@VCuCloth@cloth@nv@@@cloth@nv@@UEBAIXZ 0000000180022600 f i CuCloth.obj
 0001:00021650       ?getNumRestPositions@?$ClothImpl@VCuCloth@cloth@nv@@@cloth@nv@@UEBAIXZ 0000000180022650 f i CuCloth.obj
 0001:000216a0       ?getNumSelfCollisionIndices@?$ClothImpl@VCuCloth@cloth@nv@@@cloth@nv@@UEBAIXZ 00000001800226a0 f i CuCloth.obj
 0001:000216f0       ?getNumSeparationConstraints@?$ClothImpl@VCuCloth@cloth@nv@@@cloth@nv@@UEBAIXZ 00000001800226f0 f i CuCloth.obj
 0001:00021740       ?getNumSpheres@?$ClothImpl@VCuCloth@cloth@nv@@@cloth@nv@@UEBAIXZ 0000000180022740 f i CuCloth.obj
 0001:00021790       ?getNumTriangles@?$ClothImpl@VCuCloth@cloth@nv@@@cloth@nv@@UEBAIXZ 0000000180022790 f i CuCloth.obj
 0001:000217f0       ?getNumVirtualParticleWeights@?$ClothImpl@VCuCloth@cloth@nv@@@cloth@nv@@UEBAIXZ 00000001800227f0 f i CuCloth.obj
 0001:00021840       ?getPreviousIterationDt@?$ClothImpl@VCuCloth@cloth@nv@@@cloth@nv@@UEBAMXZ 0000000180022840 f i CuCloth.obj
 0001:00021880       ?getRotation@?$ClothImpl@VCuCloth@cloth@nv@@@cloth@nv@@UEBAAEBVPxQuat@physx@@XZ 0000000180022880 f i CuCloth.obj
 0001:000218a0       ?getSelfCollisionDistance@?$ClothImpl@VCuCloth@cloth@nv@@@cloth@nv@@UEBAMXZ 00000001800228a0 f i CuCloth.obj
 0001:000218f0       ?getSelfCollisionStiffness@?$ClothImpl@VCuCloth@cloth@nv@@@cloth@nv@@UEBAMXZ 00000001800228f0 f i CuCloth.obj
 0001:00021950       ?getSeparationConstraints@?$ClothImpl@VCuCloth@cloth@nv@@@cloth@nv@@UEAA?AU?$Range@VPxVec4@physx@@@23@XZ 0000000180022950 f i CuCloth.obj
 0001:000219f0       ?getSleepAfterCount@?$ClothImpl@VCuCloth@cloth@nv@@@cloth@nv@@UEBAIXZ 00000001800229f0 f i CuCloth.obj
 0001:00021a10       ?getSleepPassCount@?$ClothImpl@VCuCloth@cloth@nv@@@cloth@nv@@UEBAIXZ 0000000180022a10 f i CuCloth.obj
 0001:00021a30       ?getSleepTestInterval@?$ClothImpl@VCuCloth@cloth@nv@@@cloth@nv@@UEBAIXZ 0000000180022a30 f i CuCloth.obj
 0001:00021a50       ?getSleepThreshold@?$ClothImpl@VCuCloth@cloth@nv@@@cloth@nv@@UEBAMXZ 0000000180022a50 f i CuCloth.obj
 0001:00021a90       ?getSolverFrequency@?$ClothImpl@VCuCloth@cloth@nv@@@cloth@nv@@UEBAMXZ 0000000180022a90 f i CuCloth.obj
 0001:00021ad0       ?getStiffnessFrequency@?$ClothImpl@VCuCloth@cloth@nv@@@cloth@nv@@UEBAMXZ 0000000180022ad0 f i CuCloth.obj
 0001:00021b10       ?getTetherConstraintScale@?$ClothImpl@VCuCloth@cloth@nv@@@cloth@nv@@UEBAMXZ 0000000180022b10 f i CuCloth.obj
 0001:00021b60       ?getTetherConstraintStiffness@?$ClothImpl@VCuCloth@cloth@nv@@@cloth@nv@@UEBAMXZ 0000000180022b60 f i CuCloth.obj
 0001:00021bc0       ?getTranslation@?$ClothImpl@VCuCloth@cloth@nv@@@cloth@nv@@UEBAAEBVPxVec3@physx@@XZ 0000000180022bc0 f i CuCloth.obj
 0001:00021be0       ?getUserData@?$ClothImpl@VCuCloth@cloth@nv@@@cloth@nv@@UEBAPEAXXZ 0000000180022be0 f i CuCloth.obj
 0001:00021c30       ?getWindVelocity@?$ClothImpl@VCuCloth@cloth@nv@@@cloth@nv@@UEBA?AVPxVec3@physx@@XZ 0000000180022c30 f i CuCloth.obj
 0001:00021c90       ?getXYZ@PxVec4@physx@@QEBA?AVPxVec3@2@XZ 0000000180022c90 f i CuCloth.obj
 0001:00021d00       ?grow@?$Array@IV?$CuHostAllocator@I$01@cloth@nv@@@shdfnd@physx@@IEAAXI@Z 0000000180022d00 f i CuCloth.obj
 0001:00021dc0       ?grow@?$Array@IVNonTrackingAllocator@cloth@nv@@@shdfnd@physx@@IEAAXI@Z 0000000180022dc0 f i CuCloth.obj
 0001:00021e80       ?grow@?$Array@U?$Vec4T@G@cloth@nv@@VNonTrackingAllocator@23@@shdfnd@physx@@IEAAXI@Z 0000000180022e80 f i CuCloth.obj
 0001:00021f40       ?grow@?$Array@UCuPhaseConfig@cloth@nv@@VNonTrackingAllocator@23@@shdfnd@physx@@IEAAXI@Z 0000000180022f40 f i CuCloth.obj
 0001:00022000       ?grow@?$Array@UIndexPair@cloth@nv@@V?$CuHostAllocator@UIndexPair@cloth@nv@@$01@23@@shdfnd@physx@@IEAAXI@Z 0000000180023000 f i CuCloth.obj
 0001:000220c0       ?grow@?$Array@UPhaseConfig@cloth@nv@@VNonTrackingAllocator@23@@shdfnd@physx@@IEAAXI@Z 00000001800230c0 f i CuCloth.obj
 0001:00022180       ?grow@?$Array@VPxVec3@physx@@V?$CuHostAllocator@VPxVec3@physx@@$01@cloth@nv@@@shdfnd@physx@@IEAAXI@Z 0000000180023180 f i CuCloth.obj
 0001:00022240       ?grow@?$Array@VPxVec4@physx@@V?$CuHostAllocator@VPxVec4@physx@@$01@cloth@nv@@@shdfnd@physx@@IEAAXI@Z 0000000180023240 f i CuCloth.obj
 0001:00022300       ?grow@?$Array@VPxVec4@physx@@VNonTrackingAllocator@cloth@nv@@@shdfnd@physx@@IEAAXI@Z 0000000180023300 f i CuCloth.obj
 0001:000223c0       ?growAndPushBack@?$Array@U?$Vec4T@G@cloth@nv@@VNonTrackingAllocator@23@@shdfnd@physx@@IEAAAEAU?$Vec4T@G@cloth@nv@@AEBU456@@Z 00000001800233c0 f i CuCloth.obj
 0001:000225e0       ?growAndPushBack@?$Array@UCuPhaseConfig@cloth@nv@@VNonTrackingAllocator@23@@shdfnd@physx@@IEAAAEAUCuPhaseConfig@cloth@nv@@AEBU456@@Z 00000001800235e0 f i CuCloth.obj
 0001:00022860       ?growAndPushBack@?$Array@UPhaseConfig@cloth@nv@@VNonTrackingAllocator@23@@shdfnd@physx@@IEAAAEAUPhaseConfig@cloth@nv@@AEBU456@@Z 0000000180023860 f i CuCloth.obj
 0001:00022ae0       ?growAndPushBack@?$Array@VPxVec3@physx@@V?$CuHostAllocator@VPxVec3@physx@@$01@cloth@nv@@@shdfnd@physx@@IEAAAEAVPxVec3@3@AEBV43@@Z 0000000180023ae0 f i CuCloth.obj
 0001:00022d10       ?growAndPushBack@?$Array@VPxVec4@physx@@V?$CuHostAllocator@VPxVec4@physx@@$01@cloth@nv@@@shdfnd@physx@@IEAAAEAVPxVec4@3@AEBV43@@Z 0000000180023d10 f i CuCloth.obj
 0001:00022f40       ?growAndPushBack@?$Array@VPxVec4@physx@@VNonTrackingAllocator@cloth@nv@@@shdfnd@physx@@IEAAAEAVPxVec4@3@AEBV43@@Z 0000000180023f40 f i CuCloth.obj
 0001:00023170       ?ignoreVelocityDiscontinuity@?$ClothImpl@VCuCloth@cloth@nv@@@cloth@nv@@UEAAXXZ 0000000180024170 f i CuCloth.obj
 0001:00023190       ?incRefCount@Fabric@cloth@nv@@QEAAXXZ 0000000180024190 f i CuCloth.obj
 0001:00023240       ?isAsleep@?$ClothImpl@VCuCloth@cloth@nv@@@cloth@nv@@UEBA_NXZ 0000000180024240 f i CuCloth.obj
 0001:00023290       ?isContinuousCollisionEnabled@?$ClothImpl@VCuCloth@cloth@nv@@@cloth@nv@@UEBA_NXZ 0000000180024290 f i CuCloth.obj
 0001:000232e0       ?isInUserMemory@?$Array@IV?$CuHostAllocator@I$01@cloth@nv@@@shdfnd@physx@@QEBAIXZ 00000001800242e0 f i CuCloth.obj
 0001:00023300       ?isInUserMemory@?$Array@IVNonTrackingAllocator@cloth@nv@@@shdfnd@physx@@QEBAIXZ 0000000180024300 f i CuCloth.obj
 0001:00023320       ?isInUserMemory@?$Array@U?$Vec4T@G@cloth@nv@@VNonTrackingAllocator@23@@shdfnd@physx@@QEBAIXZ 0000000180024320 f i CuCloth.obj
 0001:00023340       ?isInUserMemory@?$Array@U?$Vec4T@I@cloth@nv@@VNonTrackingAllocator@23@@shdfnd@physx@@QEBAIXZ 0000000180024340 f i CuCloth.obj
 0001:00023360       ?isInUserMemory@?$Array@UCuPhaseConfig@cloth@nv@@VNonTrackingAllocator@23@@shdfnd@physx@@QEBAIXZ 0000000180024360 f i CuCloth.obj
 0001:00023380       ?isInUserMemory@?$Array@UIndexPair@cloth@nv@@V?$CuHostAllocator@UIndexPair@cloth@nv@@$01@23@@shdfnd@physx@@QEBAIXZ 0000000180024380 f i CuCloth.obj
 0001:000233a0       ?isInUserMemory@?$Array@UPhaseConfig@cloth@nv@@VNonTrackingAllocator@23@@shdfnd@physx@@QEBAIXZ 00000001800243a0 f i CuCloth.obj
 0001:000233c0       ?isInUserMemory@?$Array@VPxVec3@physx@@V?$CuHostAllocator@VPxVec3@physx@@$01@cloth@nv@@@shdfnd@physx@@QEBAIXZ 00000001800243c0 f i CuCloth.obj
 0001:000233e0       ?isInUserMemory@?$Array@VPxVec4@physx@@V?$CuHostAllocator@VPxVec4@physx@@$01@cloth@nv@@@shdfnd@physx@@QEBAIXZ 00000001800243e0 f i CuCloth.obj
 0001:00023400       ?isInUserMemory@?$Array@VPxVec4@physx@@VNonTrackingAllocator@cloth@nv@@@shdfnd@physx@@QEBAIXZ 0000000180024400 f i CuCloth.obj
 0001:00023420       ?isSleeping@?$ClothImpl@VCuCloth@cloth@nv@@@cloth@nv@@UEBA_NXZ 0000000180024420 f i CuCloth.obj
 0001:00023490       ?log2@shdfnd@physx@@YAMM@Z 0000000180024490 f i CuCloth.obj
 0001:000234d0       ?magnitudeSquared@PxQuat@physx@@QEBAMXZ 00000001800244d0 f i CuCloth.obj
 0001:00023570       ?magnitudeSquared@PxVec3@physx@@QEBAMXZ 0000000180024570 f i CuCloth.obj
 0001:000235f0       ?maximum@PxVec4@physx@@QEBA?AV12@AEBV12@@Z 00000001800245f0 f i CuCloth.obj
 0001:00023700       ?minimum@PxVec4@physx@@QEBA?AV12@AEBV12@@Z 0000000180024700 f i CuCloth.obj
 0001:00023810       ?pop@CuConstraints@cloth@nv@@QEAAXXZ 0000000180024810 f i CuCloth.obj
 0001:00023890       ?popFront@?$Range@$$CBUPhaseConfig@cloth@nv@@@cloth@nv@@QEAAXXZ 0000000180024890 f i CuCloth.obj
 0001:00023950       ?popFront@?$Range@$$CBVPxVec3@physx@@@cloth@nv@@QEAAXXZ 0000000180024950 f i CuCloth.obj
 0001:00023a10       ?pushBack@?$Array@U?$Vec4T@G@cloth@nv@@VNonTrackingAllocator@23@@shdfnd@physx@@QEAAAEAU?$Vec4T@G@cloth@nv@@AEBU456@@Z 0000000180024a10 f i CuCloth.obj
 0001:00023b20       ?pushBack@?$Array@UCuPhaseConfig@cloth@nv@@VNonTrackingAllocator@23@@shdfnd@physx@@QEAAAEAUCuPhaseConfig@cloth@nv@@AEBU456@@Z 0000000180024b20 f i CuCloth.obj
 0001:00023c30       ?pushBack@?$Array@UPhaseConfig@cloth@nv@@VNonTrackingAllocator@23@@shdfnd@physx@@QEAAAEAUPhaseConfig@cloth@nv@@AEBU456@@Z 0000000180024c30 f i CuCloth.obj
 0001:00023d40       ?pushBack@?$Array@VPxVec3@physx@@V?$CuHostAllocator@VPxVec3@physx@@$01@cloth@nv@@@shdfnd@physx@@QEAAAEAVPxVec3@3@AEBV43@@Z 0000000180024d40 f i CuCloth.obj
 0001:00023e40       ?pushBack@?$Array@VPxVec4@physx@@V?$CuHostAllocator@VPxVec4@physx@@$01@cloth@nv@@@shdfnd@physx@@QEAAAEAVPxVec4@3@AEBV43@@Z 0000000180024e40 f i CuCloth.obj
 0001:00023f40       ?pushBack@?$Array@VPxVec4@physx@@VNonTrackingAllocator@cloth@nv@@@shdfnd@physx@@QEAAAEAVPxVec4@3@AEBV43@@Z 0000000180024f40 f i CuCloth.obj
 0001:00024040       ?push_back@?$CuDeviceVector@VPxVec4@physx@@@cloth@nv@@QEAAXPEBVPxVec4@physx@@0@Z 0000000180025040 f i CuCloth.obj
 0001:000241e0       ?putToSleep@?$ClothImpl@VCuCloth@cloth@nv@@@cloth@nv@@UEAAXXZ 00000001800251e0 f i CuCloth.obj
 0001:00024210       ?recreate@?$Array@IV?$CuHostAllocator@I$01@cloth@nv@@@shdfnd@physx@@IEAAXI@Z 0000000180025210 f i CuCloth.obj
 0001:00024390       ?recreate@?$Array@IVNonTrackingAllocator@cloth@nv@@@shdfnd@physx@@IEAAXI@Z 0000000180025390 f i CuCloth.obj
 0001:00024500       ?recreate@?$Array@U?$Vec4T@G@cloth@nv@@VNonTrackingAllocator@23@@shdfnd@physx@@IEAAXI@Z 0000000180025500 f i CuCloth.obj
 0001:00024670       ?recreate@?$Array@UCuPhaseConfig@cloth@nv@@VNonTrackingAllocator@23@@shdfnd@physx@@IEAAXI@Z 0000000180025670 f i CuCloth.obj
 0001:000247f0       ?recreate@?$Array@UIndexPair@cloth@nv@@V?$CuHostAllocator@UIndexPair@cloth@nv@@$01@23@@shdfnd@physx@@IEAAXI@Z 00000001800257f0 f i CuCloth.obj
 0001:00024970       ?recreate@?$Array@UPhaseConfig@cloth@nv@@VNonTrackingAllocator@23@@shdfnd@physx@@IEAAXI@Z 0000000180025970 f i CuCloth.obj
 0001:00024af0       ?recreate@?$Array@VPxVec3@physx@@V?$CuHostAllocator@VPxVec3@physx@@$01@cloth@nv@@@shdfnd@physx@@IEAAXI@Z 0000000180025af0 f i CuCloth.obj
 0001:00024c70       ?recreate@?$Array@VPxVec4@physx@@V?$CuHostAllocator@VPxVec4@physx@@$01@cloth@nv@@@shdfnd@physx@@IEAAXI@Z 0000000180025c70 f i CuCloth.obj
 0001:00024df0       ?recreate@?$Array@VPxVec4@physx@@VNonTrackingAllocator@cloth@nv@@@shdfnd@physx@@IEAAXI@Z 0000000180025df0 f i CuCloth.obj
 0001:00024f70       ?replaceWithLast@?$Array@IV?$CuHostAllocator@I$01@cloth@nv@@@shdfnd@physx@@QEAAXI@Z 0000000180025f70 f i CuCloth.obj
 0001:00025060       ?replaceWithLast@?$Array@IV?$CuHostAllocator@I$01@cloth@nv@@@shdfnd@physx@@QEAAXPEAI@Z 0000000180026060 f i CuCloth.obj
 0001:000250c0       ?replaceWithLast@?$Array@UIndexPair@cloth@nv@@V?$CuHostAllocator@UIndexPair@cloth@nv@@$01@23@@shdfnd@physx@@QEAAXI@Z 00000001800260c0 f i CuCloth.obj
 0001:000251b0       ?replaceWithLast@?$Array@UIndexPair@cloth@nv@@V?$CuHostAllocator@UIndexPair@cloth@nv@@$01@23@@shdfnd@physx@@QEAAXPEAUIndexPair@cloth@nv@@@Z 00000001800261b0 f i CuCloth.obj
 0001:00025210       ?reserve@?$Array@IV?$CuHostAllocator@I$01@cloth@nv@@@shdfnd@physx@@QEAAXI@Z 0000000180026210 f i CuCloth.obj
 0001:00025270       ?reserve@?$Array@IVNonTrackingAllocator@cloth@nv@@@shdfnd@physx@@QEAAXI@Z 0000000180026270 f i CuCloth.obj
 0001:000252d0       ?reserve@?$Array@U?$Vec4T@G@cloth@nv@@VNonTrackingAllocator@23@@shdfnd@physx@@QEAAXI@Z 00000001800262d0 f i CuCloth.obj
 0001:00025330       ?reserve@?$Array@UCuPhaseConfig@cloth@nv@@VNonTrackingAllocator@23@@shdfnd@physx@@QEAAXI@Z 0000000180026330 f i CuCloth.obj
 0001:00025390       ?reserve@?$Array@UIndexPair@cloth@nv@@V?$CuHostAllocator@UIndexPair@cloth@nv@@$01@23@@shdfnd@physx@@QEAAXI@Z 0000000180026390 f i CuCloth.obj
 0001:000253f0       ?reserve@?$Array@UPhaseConfig@cloth@nv@@VNonTrackingAllocator@23@@shdfnd@physx@@QEAAXI@Z 00000001800263f0 f i CuCloth.obj
 0001:00025450       ?reserve@?$Array@VPxVec3@physx@@V?$CuHostAllocator@VPxVec3@physx@@$01@cloth@nv@@@shdfnd@physx@@QEAAXI@Z 0000000180026450 f i CuCloth.obj
 0001:000254b0       ?reserve@?$Array@VPxVec4@physx@@V?$CuHostAllocator@VPxVec4@physx@@$01@cloth@nv@@@shdfnd@physx@@QEAAXI@Z 00000001800264b0 f i CuCloth.obj
 0001:00025510       ?reserve@?$Array@VPxVec4@physx@@VNonTrackingAllocator@cloth@nv@@@shdfnd@physx@@QEAAXI@Z 0000000180026510 f i CuCloth.obj
 0001:00025570       ?reserve@?$CuDeviceVector@I@cloth@nv@@QEAAX_K@Z 0000000180026570 f i CuCloth.obj
 0001:00025760       ?reserve@?$CuDeviceVector@M@cloth@nv@@QEAAX_K@Z 0000000180026760 f i CuCloth.obj
 0001:00025950       ?reserve@?$CuDeviceVector@U?$Vec4T@G@cloth@nv@@@cloth@nv@@QEAAX_K@Z 0000000180026950 f i CuCloth.obj
 0001:00025b40       ?reserve@?$CuDeviceVector@UCuPhaseConfig@cloth@nv@@@cloth@nv@@QEAAX_K@Z 0000000180026b40 f i CuCloth.obj
 0001:00025d30       ?reserve@?$CuDeviceVector@VPxVec4@physx@@@cloth@nv@@QEAAX_K@Z 0000000180026d30 f i CuCloth.obj
 0001:00025f20       ?reset@MovingAverage@cloth@nv@@QEAAXXZ 0000000180026f20 f i CuCloth.obj
 0001:00025f50       ?resize@?$Array@IV?$CuHostAllocator@I$01@cloth@nv@@@shdfnd@physx@@QEAAXIAEBI@Z 0000000180026f50 f i CuCloth.obj
 0001:00026030       ?resize@?$Array@UIndexPair@cloth@nv@@V?$CuHostAllocator@UIndexPair@cloth@nv@@$01@23@@shdfnd@physx@@QEAAXIAEBUIndexPair@cloth@nv@@@Z 0000000180027030 f i CuCloth.obj
 0001:00026110       ?resize@?$Array@VPxVec3@physx@@V?$CuHostAllocator@VPxVec3@physx@@$01@cloth@nv@@@shdfnd@physx@@QEAAXIAEBVPxVec3@3@@Z 0000000180027110 f i CuCloth.obj
 0001:000261f0       ?resize@?$Array@VPxVec4@physx@@V?$CuHostAllocator@VPxVec4@physx@@$01@cloth@nv@@@shdfnd@physx@@QEAAXIAEBVPxVec4@3@@Z 00000001800271f0 f i CuCloth.obj
 0001:000262d0       ?resize@?$CuDeviceVector@I@cloth@nv@@QEAAX_K@Z 00000001800272d0 f i CuCloth.obj
 0001:00026390       ?resize@?$CuDeviceVector@M@cloth@nv@@QEAAX_K@Z 0000000180027390 f i CuCloth.obj
 0001:00026450       ?resize@?$CuDeviceVector@U?$Vec4T@G@cloth@nv@@@cloth@nv@@QEAAX_K@Z 0000000180027450 f i CuCloth.obj
 0001:00026510       ?resize@?$CuDeviceVector@UCuPhaseConfig@cloth@nv@@@cloth@nv@@QEAAX_K@Z 0000000180027510 f i CuCloth.obj
 0001:000265d0       ?resize@?$CuDeviceVector@VPxVec4@physx@@@cloth@nv@@QEAAX_K@Z 00000001800275d0 f i CuCloth.obj
 0001:00026690       ?resize@MovingAverage@cloth@nv@@QEAAXI@Z 0000000180027690 f i CuCloth.obj
 0001:000268a0       ?resizeUninitialized@?$Array@IVNonTrackingAllocator@cloth@nv@@@shdfnd@physx@@QEAAXI@Z 00000001800278a0 f i CuCloth.obj
 0001:00026900       ?resizeUninitialized@?$Array@UPhaseConfig@cloth@nv@@VNonTrackingAllocator@23@@shdfnd@physx@@QEAAXI@Z 0000000180027900 f i CuCloth.obj
 0001:00026960       ?resizeUninitialized@?$Array@VPxVec3@physx@@V?$CuHostAllocator@VPxVec3@physx@@$01@cloth@nv@@@shdfnd@physx@@QEAAXI@Z 0000000180027960 f i CuCloth.obj
 0001:000269c0       ?resizeUninitialized@?$Array@VPxVec4@physx@@V?$CuHostAllocator@VPxVec4@physx@@$01@cloth@nv@@@shdfnd@physx@@QEAAXI@Z 00000001800279c0 f i CuCloth.obj
 0001:00026a20       ?safeExp2@cloth@nv@@YA?AVPxVec3@physx@@AEBV34@@Z 0000000180027a20 f i CuCloth.obj
 0001:00026ad0       ?safeExp2@cloth@nv@@YAMM@Z 0000000180027ad0 f i CuCloth.obj
 0001:00026b30       ?safeLog2@cloth@nv@@YA?AVPxVec3@physx@@AEBV34@@Z 0000000180027b30 f i CuCloth.obj
 0001:00026be0       ?safeLog2@cloth@nv@@YAMM@Z 0000000180027be0 f i CuCloth.obj
 0001:00026cc0       ?selectMax@intrinsics@physx@@YAMMM@Z 0000000180027cc0 f i CuCloth.obj
 0001:00026d30       ?selectMin@intrinsics@physx@@YAMMM@Z 0000000180027d30 f i CuCloth.obj
 0001:00026da0       ?setAcceleationFilterWidth@?$ClothImpl@VCuCloth@cloth@nv@@@cloth@nv@@UEAAXI@Z 0000000180027da0 f i CuCloth.obj
 0001:00026df0       ?setAngularDrag@?$ClothImpl@VCuCloth@cloth@nv@@@cloth@nv@@UEAAXAEBVPxVec3@physx@@@Z 0000000180027df0 f i CuCloth.obj
 0001:00026ed0       ?setAngularInertia@?$ClothImpl@VCuCloth@cloth@nv@@@cloth@nv@@UEAAXAEBVPxVec3@physx@@@Z 0000000180027ed0 f i CuCloth.obj
 0001:00026f90       ?setCapsules@?$ClothImpl@VCuCloth@cloth@nv@@@cloth@nv@@UEAAXU?$Range@$$CBI@23@II@Z 0000000180027f90 f i CuCloth.obj
 0001:00027520       ?setCentrifugalInertia@?$ClothImpl@VCuCloth@cloth@nv@@@cloth@nv@@UEAAXAEBVPxVec3@physx@@@Z 0000000180028520 f i CuCloth.obj
 0001:000275e0       ?setCollisionMassScale@?$ClothImpl@VCuCloth@cloth@nv@@@cloth@nv@@UEAAXM@Z 00000001800285e0 f i CuCloth.obj
 0001:00027690       ?setConvexes@?$ClothImpl@VCuCloth@cloth@nv@@@cloth@nv@@UEAAXU?$Range@$$CBI@23@II@Z 0000000180028690 f i CuCloth.obj
 0001:00027ba0       ?setDamping@?$ClothImpl@VCuCloth@cloth@nv@@@cloth@nv@@UEAAXAEBVPxVec3@physx@@@Z 0000000180028ba0 f i CuCloth.obj
 0001:00027c80       ?setDragCoefficient@?$ClothImpl@VCuCloth@cloth@nv@@@cloth@nv@@UEAAXM@Z 0000000180028c80 f i CuCloth.obj
 0001:00027da0       ?setFluidDensity@?$ClothImpl@VCuCloth@cloth@nv@@@cloth@nv@@UEAAXM@Z 0000000180028da0 f i CuCloth.obj
 0001:00027eb0       ?setFriction@?$ClothImpl@VCuCloth@cloth@nv@@@cloth@nv@@UEAAXM@Z 0000000180028eb0 f i CuCloth.obj
 0001:00027f20       ?setGravity@?$ClothImpl@VCuCloth@cloth@nv@@@cloth@nv@@UEAAXAEBVPxVec3@physx@@@Z 0000000180028f20 f i CuCloth.obj
 0001:00027fe0       ?setLiftCoefficient@?$ClothImpl@VCuCloth@cloth@nv@@@cloth@nv@@UEAAXM@Z 0000000180028fe0 f i CuCloth.obj
 0001:00028100       ?setLinearDrag@?$ClothImpl@VCuCloth@cloth@nv@@@cloth@nv@@UEAAXAEBVPxVec3@physx@@@Z 0000000180029100 f i CuCloth.obj
 0001:000281e0       ?setLinearInertia@?$ClothImpl@VCuCloth@cloth@nv@@@cloth@nv@@UEAAXAEBVPxVec3@physx@@@Z 00000001800291e0 f i CuCloth.obj
 0001:000282a0       ?setMotionConstraintScaleBias@?$ClothImpl@VCuCloth@cloth@nv@@@cloth@nv@@UEAAXMM@Z 00000001800292a0 f i CuCloth.obj
 0001:00028390       ?setMotionConstraintStiffness@?$ClothImpl@VCuCloth@cloth@nv@@@cloth@nv@@UEAAXM@Z 0000000180029390 f i CuCloth.obj
 0001:00028460       ?setPlanes@?$ClothImpl@VCuCloth@cloth@nv@@@cloth@nv@@UEAAXU?$Range@$$CBVPxVec4@physx@@@23@II@Z 0000000180029460 f i CuCloth.obj
 0001:000290a0       ?setRestPositions@?$ClothImpl@VCuCloth@cloth@nv@@@cloth@nv@@UEAAXU?$Range@$$CBVPxVec4@physx@@@23@@Z 000000018002a0a0 f i CuCloth.obj
 0001:00029260       ?setRotation@?$ClothImpl@VCuCloth@cloth@nv@@@cloth@nv@@UEAAXAEBVPxQuat@physx@@@Z 000000018002a260 f i CuCloth.obj
 0001:00029300       ?setSelfCollisionDistance@?$ClothImpl@VCuCloth@cloth@nv@@@cloth@nv@@UEAAXM@Z 000000018002a300 f i CuCloth.obj
 0001:000293b0       ?setSelfCollisionStiffness@?$ClothImpl@VCuCloth@cloth@nv@@@cloth@nv@@UEAAXM@Z 000000018002a3b0 f i CuCloth.obj
 0001:000294e0       ?setSleepAfterCount@?$ClothImpl@VCuCloth@cloth@nv@@@cloth@nv@@UEAAXI@Z 000000018002a4e0 f i CuCloth.obj
 0001:00029570       ?setSleepTestInterval@?$ClothImpl@VCuCloth@cloth@nv@@@cloth@nv@@UEAAXI@Z 000000018002a570 f i CuCloth.obj
 0001:00029600       ?setSleepThreshold@?$ClothImpl@VCuCloth@cloth@nv@@@cloth@nv@@UEAAXM@Z 000000018002a600 f i CuCloth.obj
 0001:000296a0       ?setSolverFrequency@?$ClothImpl@VCuCloth@cloth@nv@@@cloth@nv@@UEAAXM@Z 000000018002a6a0 f i CuCloth.obj
 0001:00029750       ?setSpheres@?$ClothImpl@VCuCloth@cloth@nv@@@cloth@nv@@UEAAXU?$Range@$$CBVPxVec4@physx@@@23@II@Z 000000018002a750 f i CuCloth.obj
 0001:0002a260       ?setStiffnessFrequency@?$ClothImpl@VCuCloth@cloth@nv@@@cloth@nv@@UEAAXM@Z 000000018002b260 f i CuCloth.obj
 0001:0002a2e0       ?setTetherConstraintScale@?$ClothImpl@VCuCloth@cloth@nv@@@cloth@nv@@UEAAXM@Z 000000018002b2e0 f i CuCloth.obj
 0001:0002a390       ?setTetherConstraintStiffness@?$ClothImpl@VCuCloth@cloth@nv@@@cloth@nv@@UEAAXM@Z 000000018002b390 f i CuCloth.obj
 0001:0002a460       ?setTranslation@?$ClothImpl@VCuCloth@cloth@nv@@@cloth@nv@@UEAAXAEBVPxVec3@physx@@@Z 000000018002b460 f i CuCloth.obj
 0001:0002a520       ?setTriangles@?$ClothImpl@VCuCloth@cloth@nv@@@cloth@nv@@UEAAXU?$Range@$$CBVPxVec3@physx@@@23@0I@Z 000000018002b520 f i CuCloth.obj
 0001:0002ac50       ?setTriangles@?$ClothImpl@VCuCloth@cloth@nv@@@cloth@nv@@UEAAXU?$Range@$$CBVPxVec3@physx@@@23@II@Z 000000018002bc50 f i CuCloth.obj
 0001:0002b570       ?setUserData@?$ClothImpl@VCuCloth@cloth@nv@@@cloth@nv@@UEAAXPEAX@Z 000000018002c570 f i CuCloth.obj
 0001:0002b5c0       ?setWindVelocity@?$ClothImpl@VCuCloth@cloth@nv@@@cloth@nv@@UEAAXVPxVec3@physx@@@Z 000000018002c5c0 f i CuCloth.obj
 0001:0002b670       ?simd4f@cloth@nv@@YA?AUSimd4fScalarFactory@12@AEBM@Z 000000018002c670 f i CuCloth.obj
 0001:0002b6c0       ?simd4i@cloth@nv@@YA?AUSimd4iScalarFactory@12@AEBH@Z 000000018002c6c0 f i CuCloth.obj
 0001:0002b710       ?size@?$Array@IV?$CuHostAllocator@I$01@cloth@nv@@@shdfnd@physx@@QEBAIXZ 000000018002c710 f i CuCloth.obj
 0001:0002b730       ?size@?$Array@IVNonTrackingAllocator@cloth@nv@@@shdfnd@physx@@QEBAIXZ 000000018002c730 f i CuCloth.obj
 0001:0002b750       ?size@?$Array@U?$Vec4T@G@cloth@nv@@VNonTrackingAllocator@23@@shdfnd@physx@@QEBAIXZ 000000018002c750 f i CuCloth.obj
 0001:0002b770       ?size@?$Array@UIndexPair@cloth@nv@@V?$CuHostAllocator@UIndexPair@cloth@nv@@$01@23@@shdfnd@physx@@QEBAIXZ 000000018002c770 f i CuCloth.obj
 0001:0002b790       ?size@?$Array@UPhaseConfig@cloth@nv@@VNonTrackingAllocator@23@@shdfnd@physx@@QEBAIXZ 000000018002c790 f i CuCloth.obj
 0001:0002b7b0       ?size@?$Array@VPxVec3@physx@@V?$CuHostAllocator@VPxVec3@physx@@$01@cloth@nv@@@shdfnd@physx@@QEBAIXZ 000000018002c7b0 f i CuCloth.obj
 0001:0002b7d0       ?size@?$Array@VPxVec4@physx@@V?$CuHostAllocator@VPxVec4@physx@@$01@cloth@nv@@@shdfnd@physx@@QEBAIXZ 000000018002c7d0 f i CuCloth.obj
 0001:0002b7f0       ?size@?$Array@VPxVec4@physx@@VNonTrackingAllocator@cloth@nv@@@shdfnd@physx@@QEBAIXZ 000000018002c7f0 f i CuCloth.obj
 0001:0002b810       ?size@?$CuDeviceVector@I@cloth@nv@@QEBA_KXZ 000000018002c810 f i CuCloth.obj
 0001:0002b860       ?size@?$CuDeviceVector@M@cloth@nv@@QEBA_KXZ 000000018002c860 f i CuCloth.obj
 0001:0002b8b0       ?size@?$CuDeviceVector@U?$Vec4T@G@cloth@nv@@@cloth@nv@@QEBA_KXZ 000000018002c8b0 f i CuCloth.obj
 0001:0002b900       ?size@?$CuDeviceVector@UCuPhaseConfig@cloth@nv@@@cloth@nv@@QEBA_KXZ 000000018002c900 f i CuCloth.obj
 0001:0002b950       ?size@?$CuDeviceVector@VPxVec4@physx@@@cloth@nv@@QEBA_KXZ 000000018002c950 f i CuCloth.obj
 0001:0002b9a0       ?size@?$Range@$$BY03$$CBI@cloth@nv@@QEBAIXZ 000000018002c9a0 f i CuCloth.obj
 0001:0002b9d0       ?size@?$Range@$$CBI@cloth@nv@@QEBAIXZ 000000018002c9d0 f i CuCloth.obj
 0001:0002ba00       ?size@?$Range@$$CBUPhaseConfig@cloth@nv@@@cloth@nv@@QEBAIXZ 000000018002ca00 f i CuCloth.obj
 0001:0002ba30       ?size@?$Range@$$CBVPxVec3@physx@@@cloth@nv@@QEBAIXZ 000000018002ca30 f i CuCloth.obj
 0001:0002ba60       ?size@?$Range@$$CBVPxVec4@physx@@@cloth@nv@@QEBAIXZ 000000018002ca60 f i CuCloth.obj
 0001:0002ba90       ?size@MovingAverage@cloth@nv@@QEBAIXZ 000000018002ca90 f i CuCloth.obj
 0001:0002bab0       ?swap@?$Array@VPxVec4@physx@@V?$CuHostAllocator@VPxVec4@physx@@$01@cloth@nv@@@shdfnd@physx@@QEAAXAEAV123@@Z 000000018002cab0 f i CuCloth.obj
 0001:0002bb50       ?swap@?$CuDeviceVector@VPxVec4@physx@@@cloth@nv@@QEAAXAEAV123@@Z 000000018002cb50 f i CuCloth.obj
 0001:0002bbf0       ?swap@?$CuHostVectorImpl@VPxVec4@physx@@$01@cloth@nv@@QEAAXAEAV123@@Z 000000018002cbf0 f i CuCloth.obj
 0001:0002bcd0       ?teleport@?$ClothImpl@VCuCloth@cloth@nv@@@cloth@nv@@UEAAXAEBVPxVec3@physx@@@Z 000000018002ccd0 f i CuCloth.obj
 0001:0002bd40       ?teleportToLocation@?$ClothImpl@VCuCloth@cloth@nv@@@cloth@nv@@UEAAXAEBVPxVec3@physx@@AEBVPxQuat@5@@Z 000000018002cd40 f i CuCloth.obj
 0001:0002bdf0       ?updateIndex@cloth@nv@@YA_NAEAIIH@Z 000000018002cdf0 f i CuCloth.obj
 0001:0002be80       ?wakeUp@?$ClothImpl@VCuCloth@cloth@nv@@@cloth@nv@@UEAAXXZ 000000018002ce80 f i CuCloth.obj
 0001:0002bea0       fabsf                      000000018002cea0 f i CuCloth.obj
 0001:0002bee0       ?clone@CuFactory@cloth@nv@@UEAAPEAVCloth@23@AEBV423@@Z 000000018002cee0 f   CuClothClone.obj
 0001:0002bf60       ?clone@CuCloth@cloth@nv@@UEBAPEAVCloth@23@AEAVFactory@23@@Z 000000018002cf60 f   CuClothClone.obj
 0001:0002c050       ?getPhaseConfigs@cloth@nv@@YA?AU?$Range@$$CBUPhaseConfig@cloth@nv@@@12@AEBVCuCloth@12@@Z 000000018002d050 f   CuClothClone.obj
 0001:0002c0a0       ?setPhaseConfigs@cloth@nv@@YAXAEAVCuCloth@12@U?$Range@$$CBUPhaseConfig@cloth@nv@@@12@@Z 000000018002d0a0 f   CuClothClone.obj
 0001:0002c100       ?getParticleAccelerations@cloth@nv@@YA?AU?$Range@$$CBVPxVec4@physx@@@12@AEBVCuCloth@12@@Z 000000018002d100 f   CuClothClone.obj
 0001:0002c150       ?getSelfCollisionIndices@cloth@nv@@YA?AU?$Range@$$CBI@12@AEBVCuCloth@12@@Z 000000018002d150 f   CuClothClone.obj
 0001:0002c250       ??$?0$$BY03I@?$Range@$$BY03$$CBI@cloth@nv@@QEAA@AEBU?$Range@$$BY03I@12@@Z 000000018002d250 f i CuClothClone.obj
 0001:0002c2c0       ??$?0I@?$Range@$$CBI@cloth@nv@@QEAA@AEBU?$Range@I@12@@Z 000000018002d2c0 f i CuClothClone.obj
 0001:0002c330       ??$?0M@?$Range@$$CBM@cloth@nv@@QEAA@AEBU?$Range@M@12@@Z 000000018002d330 f i CuClothClone.obj
 0001:0002c3a0       ??$?0VPxVec3@physx@@@?$Range@$$CBVPxVec3@physx@@@cloth@nv@@QEAA@AEBU?$Range@VPxVec3@physx@@@12@@Z 000000018002d3a0 f i CuClothClone.obj
 0001:0002c410       ??$?0VPxVec4@physx@@@?$Range@$$CBVPxVec4@physx@@@cloth@nv@@QEAA@AEBU?$Range@VPxVec4@physx@@@12@@Z 000000018002d410 f i CuClothClone.obj
 0001:0002c480       ??$PX_UNUSED@UNvClothOverload@cloth@nv@@@@YAXAEBUNvClothOverload@cloth@nv@@@Z 000000018002d480 f i CuClothClone.obj
 0001:0002c490       ??$array@I@cloth@nv@@YAAEAY03IAEAU?$Vec4T@I@01@@Z 000000018002d490 f i CuClothClone.obj
 0001:0002c4a0       ??$convertCloth@VCuFactory@cloth@nv@@VCuCloth@23@@cloth@nv@@YAPEAVCuCloth@01@AEAVCuFactory@01@AEBV201@@Z 000000018002d4a0 f i CuClothClone.obj
 0001:0002d890       ??$convertCloth@VCuFactory@cloth@nv@@VSwCloth@23@@cloth@nv@@YAPEAVCuCloth@01@AEAVCuFactory@01@AEBVSwCloth@01@@Z 000000018002e890 f i CuClothClone.obj
 0001:0002ec70       ??$convertCloth@VSwFactory@cloth@nv@@VCuCloth@23@@cloth@nv@@YAPEAVSwCloth@01@AEAVSwFactory@01@AEBVCuCloth@01@@Z 000000018002fc70 f i CuClothClone.obj
 0001:00030050       ??$convertFabric@VCuFabric@cloth@nv@@VCuFactory@23@@cloth@nv@@YAPEAVCuFabric@01@AEBV201@AEAVCuFactory@01@@Z 0000000180031050 f i CuClothClone.obj
 0001:00030bc0       ??$convertFabric@VCuFabric@cloth@nv@@VSwFactory@23@@cloth@nv@@YAPEAVSwFabric@01@AEBVCuFabric@01@AEAVSwFactory@01@@Z 0000000180031bc0 f i CuClothClone.obj
 0001:00031730       ??$convertFabric@VSwFabric@cloth@nv@@VCuFactory@23@@cloth@nv@@YAPEAVCuFabric@01@AEBVSwFabric@01@AEAVCuFactory@01@@Z 0000000180032730 f i CuClothClone.obj
 0001:000322a0       ??$copy@VCuCloth@cloth@nv@@VSwCloth@23@@cloth@nv@@YAXAEAVCuCloth@01@AEBVSwCloth@01@@Z 00000001800332a0 f i CuClothClone.obj
 0001:00032760       ??$copy@VSwCloth@cloth@nv@@VCuCloth@23@@cloth@nv@@YAXAEAVSwCloth@01@AEBVCuCloth@01@@Z 0000000180033760 f i CuClothClone.obj
 0001:00032c20       ??$makeRange@IVNonTrackingAllocator@cloth@nv@@@cloth@nv@@YA?AU?$Range@$$CBI@01@AEBV?$Array@IVNonTrackingAllocator@cloth@nv@@@shdfnd@physx@@@Z 0000000180033c20 f i CuClothClone.obj
 0001:00032cd0       ??$makeRange@IVNonTrackingAllocator@cloth@nv@@@cloth@nv@@YA?AU?$Range@I@01@AEAV?$Array@IVNonTrackingAllocator@cloth@nv@@@shdfnd@physx@@@Z 0000000180033cd0 f i CuClothClone.obj
 0001:00032d80       ??$makeRange@MVNonTrackingAllocator@cloth@nv@@@cloth@nv@@YA?AU?$Range@M@01@AEAV?$Array@MVNonTrackingAllocator@cloth@nv@@@shdfnd@physx@@@Z 0000000180033d80 f i CuClothClone.obj
 0001:00032e30       ??$makeRange@UPhaseConfig@cloth@nv@@VNonTrackingAllocator@23@@cloth@nv@@YA?AU?$Range@$$CBUPhaseConfig@cloth@nv@@@01@AEBV?$Array@UPhaseConfig@cloth@nv@@VNonTrackingAllocator@23@@shdfnd@physx@@@Z 0000000180033e30 f i CuClothClone.obj
 0001:00032ef0       ??$makeRange@VPxVec4@physx@@V?$CuHostAllocator@VPxVec4@physx@@$01@cloth@nv@@@cloth@nv@@YA?AU?$Range@$$CBVPxVec4@physx@@@01@AEBV?$Array@VPxVec4@physx@@V?$CuHostAllocator@VPxVec4@physx@@$01@cloth@nv@@@shdfnd@physx@@@Z 0000000180033ef0 f i CuClothClone.obj
 0001:00032fb0       ??$makeRange@VPxVec4@physx@@VNonTrackingAllocator@cloth@nv@@@cloth@nv@@YA?AU?$Range@$$CBVPxVec4@physx@@@01@AEBV?$Array@VPxVec4@physx@@VNonTrackingAllocator@cloth@nv@@@shdfnd@physx@@@Z 0000000180033fb0 f i CuClothClone.obj
 0001:00033070       ??$makeRange@VPxVec4@physx@@VNonTrackingAllocator@cloth@nv@@@cloth@nv@@YA?AU?$Range@VPxVec4@physx@@@01@AEAV?$Array@VPxVec4@physx@@VNonTrackingAllocator@cloth@nv@@@shdfnd@physx@@@Z 0000000180034070 f i CuClothClone.obj
 0001:00033130       ??0?$Array@IVNonTrackingAllocator@cloth@nv@@@shdfnd@physx@@QEAA@IAEBIAEBVNonTrackingAllocator@cloth@nv@@@Z 0000000180034130 f i CuClothClone.obj
 0001:000331c0       ??0?$Array@MVNonTrackingAllocator@cloth@nv@@@shdfnd@physx@@QEAA@IAEBMAEBVNonTrackingAllocator@cloth@nv@@@Z 00000001800341c0 f i CuClothClone.obj
 0001:00033250       ??0?$Array@U?$Vec4T@I@cloth@nv@@VNonTrackingAllocator@23@@shdfnd@physx@@QEAA@IAEBU?$Vec4T@I@cloth@nv@@AEBVNonTrackingAllocator@45@@Z 0000000180034250 f i CuClothClone.obj
 0001:000332e0       ??0?$Array@VPxVec3@physx@@VNonTrackingAllocator@cloth@nv@@@shdfnd@physx@@QEAA@IAEBVPxVec3@2@AEBVNonTrackingAllocator@cloth@nv@@@Z 00000001800342e0 f i CuClothClone.obj
 0001:00033370       ??0?$Array@VPxVec4@physx@@VNonTrackingAllocator@cloth@nv@@@shdfnd@physx@@QEAA@IAEBVPxVec4@2@AEBVNonTrackingAllocator@cloth@nv@@@Z 0000000180034370 f i CuClothClone.obj
 0001:00033400       ??0?$Range@$$BY03I@cloth@nv@@QEAA@PEAY03I0@Z 0000000180034400 f i CuClothClone.obj
 0001:00033440       ??0?$Range@$$CBI@cloth@nv@@QEAA@PEBI0@Z 0000000180034440 f i CuClothClone.obj
 0001:00033480       ??0?$Range@I@cloth@nv@@QEAA@PEAI0@Z 0000000180034480 f i CuClothClone.obj
 0001:000334c0       ??0?$Range@M@cloth@nv@@QEAA@PEAM0@Z 00000001800344c0 f i CuClothClone.obj
 0001:00033500       ??0?$Range@VPxVec3@physx@@@cloth@nv@@QEAA@PEAVPxVec3@physx@@0@Z 0000000180034500 f i CuClothClone.obj
 0001:00033540       ??0?$Vec4T@I@cloth@nv@@QEAA@XZ 0000000180034540 f i CuClothClone.obj
 0001:00033550       ??0SwContextLock@cloth@nv@@QEAA@AEBVSwFactory@12@@Z 0000000180034550 f i CuClothClone.obj
 0001:00033570       ??1?$Array@MVNonTrackingAllocator@cloth@nv@@@shdfnd@physx@@QEAA@XZ 0000000180034570 f i CuClothClone.obj
 0001:00033610       ??1?$Array@VPxVec3@physx@@VNonTrackingAllocator@cloth@nv@@@shdfnd@physx@@QEAA@XZ 0000000180034610 f i CuClothClone.obj
 0001:000336b0       ??1?$MappedRange@$$CBVPxVec4@physx@@@cloth@nv@@QEAA@XZ 00000001800346b0 f i CuClothClone.obj
 0001:00033710       ??1?$MappedRange@VPxVec4@physx@@@cloth@nv@@QEAA@XZ 0000000180034710 f i CuClothClone.obj
 0001:00033770       ??2UserAllocated@cloth@nv@@SAPEAX_KPEBDHUNvClothOverload@12@@Z 0000000180034770 f i CuClothClone.obj
 0001:00033800       ?allocate@?$Array@MVNonTrackingAllocator@cloth@nv@@@shdfnd@physx@@IEAAPEAMI@Z 0000000180034800 f i CuClothClone.obj
 0001:000338d0       ?allocate@?$Array@U?$Vec4T@I@cloth@nv@@VNonTrackingAllocator@23@@shdfnd@physx@@IEAAPEAU?$Vec4T@I@cloth@nv@@I@Z 00000001800348d0 f i CuClothClone.obj
 0001:000339a0       ?allocate@?$Array@VPxVec3@physx@@VNonTrackingAllocator@cloth@nv@@@shdfnd@physx@@IEAAPEAVPxVec3@3@I@Z 00000001800349a0 f i CuClothClone.obj
 0001:00033a70       ?begin@?$Array@MVNonTrackingAllocator@cloth@nv@@@shdfnd@physx@@QEAAPEAMXZ 0000000180034a70 f i CuClothClone.obj
 0001:00033a90       ?begin@?$Array@PEAVCuFabric@cloth@nv@@VNonTrackingAllocator@23@@shdfnd@physx@@QEAAPEAPEAVCuFabric@cloth@nv@@XZ 0000000180034a90 f i CuClothClone.obj
 0001:00033ab0       ?begin@?$Array@PEAVSwFabric@cloth@nv@@VNonTrackingAllocator@23@@shdfnd@physx@@QEAAPEAPEAVSwFabric@cloth@nv@@XZ 0000000180034ab0 f i CuClothClone.obj
 0001:00033ad0       ?begin@?$Array@VPxVec4@physx@@VNonTrackingAllocator@cloth@nv@@@shdfnd@physx@@QEAAPEAVPxVec4@3@XZ 0000000180034ad0 f i CuClothClone.obj
 0001:00033af0       ?begin@?$Array@VPxVec4@physx@@VNonTrackingAllocator@cloth@nv@@@shdfnd@physx@@QEBAPEBVPxVec4@3@XZ 0000000180034af0 f i CuClothClone.obj
 0001:00033b10       ?begin@?$Range@$$BY03I@cloth@nv@@QEBAPEAY03IXZ 0000000180034b10 f i CuClothClone.obj
 0001:00033b30       ?begin@?$Range@I@cloth@nv@@QEBAPEAIXZ 0000000180034b30 f i CuClothClone.obj
 0001:00033b50       ?begin@?$Range@M@cloth@nv@@QEBAPEAMXZ 0000000180034b50 f i CuClothClone.obj
 0001:00033b70       ?begin@?$Range@VPxVec3@physx@@@cloth@nv@@QEBAPEAVPxVec3@physx@@XZ 0000000180034b70 f i CuClothClone.obj
 0001:00033b90       ?begin@?$Range@VPxVec4@physx@@@cloth@nv@@QEBAPEAVPxVec4@physx@@XZ 0000000180034b90 f i CuClothClone.obj
 0001:00033bb0       ?capacity@?$Array@MVNonTrackingAllocator@cloth@nv@@@shdfnd@physx@@QEBAIXZ 0000000180034bb0 f i CuClothClone.obj
 0001:00033bd0       ?capacity@?$Array@VPxVec3@physx@@VNonTrackingAllocator@cloth@nv@@@shdfnd@physx@@QEBAIXZ 0000000180034bd0 f i CuClothClone.obj
 0001:00033bf0       ?copy@?$Array@MVNonTrackingAllocator@cloth@nv@@@shdfnd@physx@@KAXPEAM0PEBM@Z 0000000180034bf0 f i CuClothClone.obj
 0001:00033cd0       ?copy@?$Array@U?$Vec4T@I@cloth@nv@@VNonTrackingAllocator@23@@shdfnd@physx@@KAXPEAU?$Vec4T@I@cloth@nv@@0PEBU456@@Z 0000000180034cd0 f i CuClothClone.obj
 0001:00033db0       ?copy@?$Array@VPxVec3@physx@@VNonTrackingAllocator@cloth@nv@@@shdfnd@physx@@KAXPEAVPxVec3@3@0PEBV43@@Z 0000000180034db0 f i CuClothClone.obj
 0001:00033e80       ?create@?$Array@IVNonTrackingAllocator@cloth@nv@@@shdfnd@physx@@KAXPEAI0AEBI@Z 0000000180034e80 f i CuClothClone.obj
 0001:00033f30       ?create@?$Array@MVNonTrackingAllocator@cloth@nv@@@shdfnd@physx@@KAXPEAM0AEBM@Z 0000000180034f30 f i CuClothClone.obj
 0001:00033ff0       ?create@?$Array@U?$Vec4T@I@cloth@nv@@VNonTrackingAllocator@23@@shdfnd@physx@@KAXPEAU?$Vec4T@I@cloth@nv@@0AEBU456@@Z 0000000180034ff0 f i CuClothClone.obj
 0001:000340b0       ?create@?$Array@VPxVec3@physx@@VNonTrackingAllocator@cloth@nv@@@shdfnd@physx@@KAXPEAVPxVec3@3@0AEBV43@@Z 00000001800350b0 f i CuClothClone.obj
 0001:00034160       ?create@?$Array@VPxVec4@physx@@VNonTrackingAllocator@cloth@nv@@@shdfnd@physx@@KAXPEAVPxVec4@3@0AEBV43@@Z 0000000180035160 f i CuClothClone.obj
 0001:00034210       ?deallocate@?$Array@MVNonTrackingAllocator@cloth@nv@@@shdfnd@physx@@IEAAXPEAX@Z 0000000180035210 f i CuClothClone.obj
 0001:00034260       ?deallocate@?$Array@VPxVec3@physx@@VNonTrackingAllocator@cloth@nv@@@shdfnd@physx@@IEAAXPEAX@Z 0000000180035260 f i CuClothClone.obj
 0001:000342b0       ?destroy@?$Array@MVNonTrackingAllocator@cloth@nv@@@shdfnd@physx@@KAXPEAM0@Z 00000001800352b0 f i CuClothClone.obj
 0001:000342f0       ?destroy@?$Array@VPxVec3@physx@@VNonTrackingAllocator@cloth@nv@@@shdfnd@physx@@KAXPEAVPxVec3@3@0@Z 00000001800352f0 f i CuClothClone.obj
 0001:00034330       ?empty@?$Array@MVNonTrackingAllocator@cloth@nv@@@shdfnd@physx@@QEBA_NXZ 0000000180035330 f i CuClothClone.obj
 0001:00034390       ?empty@?$Array@U?$Vec4T@I@cloth@nv@@VNonTrackingAllocator@23@@shdfnd@physx@@QEBA_NXZ 0000000180035390 f i CuClothClone.obj
 0001:000343f0       ?empty@?$Array@VPxVec3@physx@@VNonTrackingAllocator@cloth@nv@@@shdfnd@physx@@QEBA_NXZ 00000001800353f0 f i CuClothClone.obj
 0001:00034450       ?end@?$Array@PEAVCuFabric@cloth@nv@@VNonTrackingAllocator@23@@shdfnd@physx@@QEAAPEAPEAVCuFabric@cloth@nv@@XZ 0000000180035450 f i CuClothClone.obj
 0001:00034480       ?end@?$Array@PEAVSwFabric@cloth@nv@@VNonTrackingAllocator@23@@shdfnd@physx@@QEAAPEAPEAVSwFabric@cloth@nv@@XZ 0000000180035480 f i CuClothClone.obj
 0001:000344b0       ?end@?$Range@$$BY03I@cloth@nv@@QEBAPEAY03IXZ 00000001800354b0 f i CuClothClone.obj
 0001:000344d0       ?end@?$Range@I@cloth@nv@@QEBAPEAIXZ 00000001800354d0 f i CuClothClone.obj
 0001:000344f0       ?end@?$Range@M@cloth@nv@@QEBAPEAMXZ 00000001800354f0 f i CuClothClone.obj
 0001:00034510       ?end@?$Range@VPxVec3@physx@@@cloth@nv@@QEBAPEAVPxVec3@physx@@XZ 0000000180035510 f i CuClothClone.obj
 0001:00034530       ?end@?$Range@VPxVec4@physx@@@cloth@nv@@QEBAPEAVPxVec4@physx@@XZ 0000000180035530 f i CuClothClone.obj
 0001:00034550       ?front@?$Array@U?$Vec4T@I@cloth@nv@@VNonTrackingAllocator@23@@shdfnd@physx@@QEAAAEAU?$Vec4T@I@cloth@nv@@XZ 0000000180035550 f i CuClothClone.obj
 0001:00034600       ?front@?$Array@VPxVec3@physx@@VNonTrackingAllocator@cloth@nv@@@shdfnd@physx@@QEAAAEAVPxVec3@3@XZ 0000000180035600 f i CuClothClone.obj
 0001:000346b0       ?front@?$Array@VPxVec4@physx@@VNonTrackingAllocator@cloth@nv@@@shdfnd@physx@@QEAAAEAVPxVec4@3@XZ 00000001800356b0 f i CuClothClone.obj
 0001:00034760       ?getParticleAccelerations@cloth@nv@@YA?AU?$Range@$$CBVPxVec4@physx@@@12@AEBVSwCloth@12@@Z 0000000180035760 f i CuClothClone.obj
 0001:000347c0       ?getPhaseConfigs@cloth@nv@@YA?AU?$Range@$$CBUPhaseConfig@cloth@nv@@@12@AEBVSwCloth@12@@Z 00000001800357c0 f i CuClothClone.obj
 0001:00034820       ?getSelfCollisionIndices@cloth@nv@@YA?AU?$Range@$$CBI@12@AEBVSwCloth@12@@Z 0000000180035820 f i CuClothClone.obj
 0001:00034880       ?grow@?$Array@MVNonTrackingAllocator@cloth@nv@@@shdfnd@physx@@IEAAXI@Z 0000000180035880 f i CuClothClone.obj
 0001:00034940       ?grow@?$Array@U?$Vec4T@I@cloth@nv@@VNonTrackingAllocator@23@@shdfnd@physx@@IEAAXI@Z 0000000180035940 f i CuClothClone.obj
 0001:00034a00       ?grow@?$Array@VPxVec3@physx@@VNonTrackingAllocator@cloth@nv@@@shdfnd@physx@@IEAAXI@Z 0000000180035a00 f i CuClothClone.obj
 0001:00034ac0       ?isInUserMemory@?$Array@MVNonTrackingAllocator@cloth@nv@@@shdfnd@physx@@QEBAIXZ 0000000180035ac0 f i CuClothClone.obj
 0001:00034ae0       ?isInUserMemory@?$Array@VPxVec3@physx@@VNonTrackingAllocator@cloth@nv@@@shdfnd@physx@@QEBAIXZ 0000000180035ae0 f i CuClothClone.obj
 0001:00034b00       ?recreate@?$Array@MVNonTrackingAllocator@cloth@nv@@@shdfnd@physx@@IEAAXI@Z 0000000180035b00 f i CuClothClone.obj
 0001:00034c70       ?recreate@?$Array@U?$Vec4T@I@cloth@nv@@VNonTrackingAllocator@23@@shdfnd@physx@@IEAAXI@Z 0000000180035c70 f i CuClothClone.obj
 0001:00034df0       ?recreate@?$Array@VPxVec3@physx@@VNonTrackingAllocator@cloth@nv@@@shdfnd@physx@@IEAAXI@Z 0000000180035df0 f i CuClothClone.obj
 0001:00034f70       ?reserve@?$Array@MVNonTrackingAllocator@cloth@nv@@@shdfnd@physx@@QEAAXI@Z 0000000180035f70 f i CuClothClone.obj
 0001:00034fd0       ?reserve@?$Array@U?$Vec4T@I@cloth@nv@@VNonTrackingAllocator@23@@shdfnd@physx@@QEAAXI@Z 0000000180035fd0 f i CuClothClone.obj
 0001:00035030       ?reserve@?$Array@VPxVec3@physx@@VNonTrackingAllocator@cloth@nv@@@shdfnd@physx@@QEAAXI@Z 0000000180036030 f i CuClothClone.obj
 0001:00035090       ?resize@?$Array@IVNonTrackingAllocator@cloth@nv@@@shdfnd@physx@@QEAAXIAEBI@Z 0000000180036090 f i CuClothClone.obj
 0001:00035160       ?resize@?$Array@MVNonTrackingAllocator@cloth@nv@@@shdfnd@physx@@QEAAXIAEBM@Z 0000000180036160 f i CuClothClone.obj
 0001:00035230       ?resize@?$Array@U?$Vec4T@I@cloth@nv@@VNonTrackingAllocator@23@@shdfnd@physx@@QEAAXIAEBU?$Vec4T@I@cloth@nv@@@Z 0000000180036230 f i CuClothClone.obj
 0001:00035300       ?resize@?$Array@VPxVec3@physx@@VNonTrackingAllocator@cloth@nv@@@shdfnd@physx@@QEAAXIAEBVPxVec3@3@@Z 0000000180036300 f i CuClothClone.obj
 0001:000353d0       ?resize@?$Array@VPxVec4@physx@@VNonTrackingAllocator@cloth@nv@@@shdfnd@physx@@QEAAXIAEBVPxVec4@3@@Z 00000001800363d0 f i CuClothClone.obj
 0001:000354a0       ?setPhaseConfigs@cloth@nv@@YAXAEAVSwCloth@12@U?$Range@$$CBUPhaseConfig@cloth@nv@@@12@@Z 00000001800364a0 f i CuClothClone.obj
 0001:00035520       ?size@?$Array@MVNonTrackingAllocator@cloth@nv@@@shdfnd@physx@@QEBAIXZ 0000000180036520 f i CuClothClone.obj
 0001:00035540       ?size@?$Array@U?$Vec4T@I@cloth@nv@@VNonTrackingAllocator@23@@shdfnd@physx@@QEBAIXZ 0000000180036540 f i CuClothClone.obj
 0001:00035560       ?size@?$Array@VPxVec3@physx@@VNonTrackingAllocator@cloth@nv@@@shdfnd@physx@@QEBAIXZ 0000000180036560 f i CuClothClone.obj
 0001:00035580       ??0CuClothData@cloth@nv@@QEAA@AEAVCuCloth@12@@Z 0000000180036580 f   CuClothData.obj
 0001:00035c10       ??0CuFrameData@cloth@nv@@QEAA@AEAVCuCloth@12@IAEBU?$IterationState@T__m128@@@12@PEBUCuIterationData@12@@Z 0000000180036c10 f   CuClothData.obj
 0001:00036620       ??0CuIterationData@cloth@nv@@QEAA@AEBU?$IterationState@T__m128@@@12@@Z 0000000180037620 f   CuClothData.obj
 0001:00036f50       ??$array@G@cloth@nv@@YAAEAY03GAEAU?$Vec4T@G@01@@Z 0000000180037f50 f i CuClothData.obj
 0001:00036f60       ??$getDevicePointer@I$01@cloth@nv@@YAPEAIAEAV?$CuHostVectorImpl@I$01@01@@Z 0000000180037f60 f i CuClothData.obj
 0001:00036fd0       ??$getDevicePointer@UIndexPair@cloth@nv@@$01@cloth@nv@@YAPEAUIndexPair@01@AEAV?$CuHostVectorImpl@UIndexPair@cloth@nv@@$01@01@@Z 0000000180037fd0 f i CuClothData.obj
 0001:00037040       ??$getDevicePointer@VPxVec3@physx@@$01@cloth@nv@@YAPEAVPxVec3@physx@@AEAV?$CuHostVectorImpl@VPxVec3@physx@@$01@01@@Z 0000000180038040 f i CuClothData.obj
 0001:000370b0       ??$getDevicePointer@VPxVec4@physx@@$01@cloth@nv@@YAPEAVPxVec4@physx@@AEAV?$CuHostVectorImpl@VPxVec4@physx@@$01@01@@Z 00000001800380b0 f i CuClothData.obj
 0001:00037120       ??0?$CuDevicePointer@G@cloth@nv@@QEAA@AEBV012@@Z 0000000180038120 f i CuClothData.obj
 0001:00037170       ??0?$CuDevicePointer@I@cloth@nv@@QEAA@AEBV012@@Z 0000000180038170 f i CuClothData.obj
 0001:000371c0       ??0?$CuDevicePointer@U?$Vec4T@G@cloth@nv@@@cloth@nv@@QEAA@AEBV012@@Z 00000001800381c0 f i CuClothData.obj
 0001:00037210       ??0?$CuDevicePointer@UCuPhaseConfig@cloth@nv@@@cloth@nv@@QEAA@AEBV012@@Z 0000000180038210 f i CuClothData.obj
 0001:00037260       ??0?$CuDevicePointer@UCuTether@cloth@nv@@@cloth@nv@@QEAA@AEBV012@@Z 0000000180038260 f i CuClothData.obj
 0001:000372b0       ??0Simd4fTupleFactory@cloth@nv@@QEAA@MMMM@Z 00000001800382b0 f i CuClothData.obj
 0001:00037360       ??BSimd4fOneFactory@cloth@nv@@QEBA?AT__m128@@XZ 0000000180038360 f i CuClothData.obj
 0001:000373c0       ??BSimd4fScalarFactory@cloth@nv@@QEBA?AT__m128@@XZ 00000001800383c0 f i CuClothData.obj
 0001:00037420       ??BSimd4fTupleFactory@cloth@nv@@QEBA?AT__m128@@XZ 0000000180038420 f i CuClothData.obj
 0001:00037450       ??Dcloth@nv@@YA?AT__m128@@AEBT2@0@Z 0000000180038450 f i CuClothData.obj
 0001:000374b0       ??G?$CuDevicePointer@G@cloth@nv@@QEBA_JAEBV012@@Z 00000001800384b0 f i CuClothData.obj
 0001:000374e0       ??G?$CuDevicePointer@UCuTether@cloth@nv@@@cloth@nv@@QEBA_JAEBV012@@Z 00000001800384e0 f i CuClothData.obj
 0001:00037510       ??Gcloth@nv@@YA?AT__m128@@AEBT2@0@Z 0000000180038510 f i CuClothData.obj
 0001:00037570       ??Gcloth@nv@@YA?AT__m128@@AEBT2@@Z 0000000180038570 f i CuClothData.obj
 0001:000375e0       ??Hcloth@nv@@YA?AT__m128@@AEBT2@0@Z 00000001800385e0 f i CuClothData.obj
 0001:00037640       ?array@cloth@nv@@YAAEAY02MAEAVPxVec3@physx@@@Z 0000000180038640 f i CuClothData.obj
 0001:00037650       ?array@cloth@nv@@YAAEAY03$$CBMAEBT__m128@@@Z 0000000180038650 f i CuClothData.obj
 0001:00037660       ?array@cloth@nv@@YAAEAY03MAEAT__m128@@@Z 0000000180038660 f i CuClothData.obj
 0001:00037670       ?begin@?$CuDeviceVector@G@cloth@nv@@QEAA?AV?$CuDevicePointer@G@23@XZ 0000000180038670 f i CuClothData.obj
 0001:000376d0       ?begin@?$CuDeviceVector@I@cloth@nv@@QEAA?AV?$CuDevicePointer@I@23@XZ 00000001800386d0 f i CuClothData.obj
 0001:00037730       ?begin@?$CuDeviceVector@U?$Vec4T@G@cloth@nv@@@cloth@nv@@QEAA?AV?$CuDevicePointer@U?$Vec4T@G@cloth@nv@@@23@XZ 0000000180038730 f i CuClothData.obj
 0001:00037790       ?begin@?$CuDeviceVector@UCuPhaseConfig@cloth@nv@@@cloth@nv@@QEAA?AV?$CuDevicePointer@UCuPhaseConfig@cloth@nv@@@23@XZ 0000000180038790 f i CuClothData.obj
 0001:000377f0       ?begin@?$CuDeviceVector@UCuTether@cloth@nv@@@cloth@nv@@QEAA?AV?$CuDevicePointer@UCuTether@cloth@nv@@@23@XZ 00000001800387f0 f i CuClothData.obj
 0001:00037850       ?empty@?$Array@IV?$CuHostAllocator@I$01@cloth@nv@@@shdfnd@physx@@QEBA_NXZ 0000000180038850 f i CuClothData.obj
 0001:000378b0       ?exp2@cloth@nv@@YA?AT__m128@@AEBT3@@Z 00000001800388b0 f i CuClothData.obj
 0001:00037f80       ?get@?$CuDevicePointer@G@cloth@nv@@QEBAPEAGXZ 0000000180038f80 f i CuClothData.obj
 0001:00037fa0       ?get@?$CuDevicePointer@I@cloth@nv@@QEBAPEAIXZ 0000000180038fa0 f i CuClothData.obj
 0001:00037fc0       ?get@?$CuDevicePointer@U?$Vec4T@G@cloth@nv@@@cloth@nv@@QEBAPEAU?$Vec4T@G@23@XZ 0000000180038fc0 f i CuClothData.obj
 0001:00037fe0       ?get@?$CuDevicePointer@UCuPhaseConfig@cloth@nv@@@cloth@nv@@QEBAPEAUCuPhaseConfig@23@XZ 0000000180038fe0 f i CuClothData.obj
 0001:00038000       ?get@?$CuDevicePointer@UCuTether@cloth@nv@@@cloth@nv@@QEBAPEAUCuTether@23@XZ 0000000180039000 f i CuClothData.obj
 0001:00038020       ?getAllocator@?$Array@IV?$CuHostAllocator@I$01@cloth@nv@@@shdfnd@physx@@QEAAAEAV?$CuHostAllocator@I$01@cloth@nv@@XZ 0000000180039020 f i CuClothData.obj
 0001:00038030       ?getAllocator@?$Array@UIndexPair@cloth@nv@@V?$CuHostAllocator@UIndexPair@cloth@nv@@$01@23@@shdfnd@physx@@QEAAAEAV?$CuHostAllocator@UIndexPair@cloth@nv@@$01@cloth@nv@@XZ 0000000180039030 f i CuClothData.obj
 0001:00038040       ?getAllocator@?$Array@VPxVec3@physx@@V?$CuHostAllocator@VPxVec3@physx@@$01@cloth@nv@@@shdfnd@physx@@QEAAAEAV?$CuHostAllocator@VPxVec3@physx@@$01@cloth@nv@@XZ 0000000180039040 f i CuClothData.obj
 0001:00038050       ?getAllocator@?$Array@VPxVec4@physx@@V?$CuHostAllocator@VPxVec4@physx@@$01@cloth@nv@@@shdfnd@physx@@QEAAAEAV?$CuHostAllocator@VPxVec4@physx@@$01@cloth@nv@@XZ 0000000180039050 f i CuClothData.obj
 0001:00038060       ?max@cloth@nv@@YA?AT__m128@@AEBT3@0@Z 0000000180039060 f i CuClothData.obj
 0001:000380c0       ?min@cloth@nv@@YA?AT__m128@@AEBT3@0@Z 00000001800390c0 f i CuClothData.obj
 0001:00038120       ?recip@cloth@nv@@YA?AT__m128@@AEBT3@@Z 0000000180039120 f i CuClothData.obj
 0001:00038170       ?simd4f@cloth@nv@@YA?AUSimd4fTupleFactory@12@MMMM@Z 0000000180039170 f i CuClothData.obj
 0001:000381f0       ?size@?$CuDeviceVector@G@cloth@nv@@QEBA_KXZ 00000001800391f0 f i CuClothData.obj
 0001:00038240       ?size@?$CuDeviceVector@UCuTether@cloth@nv@@@cloth@nv@@QEBA_KXZ 0000000180039240 f i CuClothData.obj
 0001:00038290       ??0CuContextLock@cloth@nv@@QEAA@AEBVCuFactory@12@@Z 0000000180039290 f   CuContextLock.obj
 0001:000382e0       ??1CuContextLock@cloth@nv@@QEAA@XZ 00000001800392e0 f   CuContextLock.obj
 0001:00038320       ?acquire@CuContextLock@cloth@nv@@QEAAXXZ 0000000180039320 f   CuContextLock.obj
 0001:00038370       ?release@CuContextLock@cloth@nv@@QEAAXXZ 0000000180039370 f   CuContextLock.obj
 0001:00038400       ??0CuTether@cloth@nv@@QEAA@GG@Z 0000000180039400 f   CuFabric.obj
 0001:00038440       ??0CuFabric@cloth@nv@@QEAA@AEAVCuFactory@12@IU?$Range@$$CBI@12@1U?$Range@$$CBM@12@21121I@Z 0000000180039440 f   CuFabric.obj
 0001:00039180       ??1CuFabric@cloth@nv@@UEAA@XZ 000000018003a180 f   CuFabric.obj
 0001:00039360       ?getFactory@CuFabric@cloth@nv@@UEBAAEAVFactory@23@XZ 000000018003a360 f   CuFabric.obj
 0001:00039380       ?getNumPhases@CuFabric@cloth@nv@@UEBAIXZ 000000018003a380 f   CuFabric.obj
 0001:000393c0       ?getNumRestvalues@CuFabric@cloth@nv@@UEBAIXZ 000000018003a3c0 f   CuFabric.obj
 0001:00039400       ?getNumStiffnessValues@CuFabric@cloth@nv@@UEBAIXZ 000000018003a400 f   CuFabric.obj
 0001:00039440       ?getNumSets@CuFabric@cloth@nv@@UEBAIXZ 000000018003a440 f   CuFabric.obj
 0001:00039490       ?getNumIndices@CuFabric@cloth@nv@@UEBAIXZ 000000018003a490 f   CuFabric.obj
 0001:000394d0       ?getNumParticles@CuFabric@cloth@nv@@UEBAIXZ 000000018003a4d0 f   CuFabric.obj
 0001:000394f0       ?getNumTethers@CuFabric@cloth@nv@@UEBAIXZ 000000018003a4f0 f   CuFabric.obj
 0001:00039530       ?getNumTriangles@CuFabric@cloth@nv@@UEBAIXZ 000000018003a530 f   CuFabric.obj
 0001:00039580       ?scaleRestvalues@CuFabric@cloth@nv@@UEAAXM@Z 000000018003a580 f   CuFabric.obj
 0001:00039740       ?scaleTetherLengths@CuFabric@cloth@nv@@UEAAXM@Z 000000018003a740 f   CuFabric.obj
 0001:00039c50       ??$?0$$CBG@?$CuDevicePointer@$$CBG@cloth@nv@@QEAA@PEBG@Z 000000018003ac50 f i CuFabric.obj
 0001:00039c80       ??$?0$$CBM@?$CuDevicePointer@$$CBM@cloth@nv@@QEAA@PEBM@Z 000000018003ac80 f i CuFabric.obj
 0001:00039cb0       ??$?0G@?$CuDevicePointer@G@cloth@nv@@QEAA@PEAG@Z 000000018003acb0 f i CuFabric.obj
 0001:00039ce0       ??$?0I@?$CuDeviceReference@I@cloth@nv@@AEAA@V?$CuDevicePointer@I@12@@Z 000000018003ace0 f i CuFabric.obj
 0001:00039d30       ??$?0UCuTether@cloth@nv@@@?$CuDevicePointer@UCuTether@cloth@nv@@@cloth@nv@@QEAA@PEAUCuTether@12@@Z 000000018003ad30 f i CuFabric.obj
 0001:00039d60       ??$?4VNonTrackingAllocator@cloth@nv@@@?$CuDeviceVector@M@cloth@nv@@QEAAAEAV012@AEBV?$Array@MVNonTrackingAllocator@cloth@nv@@@shdfnd@physx@@@Z 000000018003ad60 f i CuFabric.obj
 0001:00039e10       ??$PxMax@H@physx@@YAHHH@Z  000000018003ae10 f i CuFabric.obj
 0001:00039e70       ??$assign@PEAG@?$CuDeviceVector@G@cloth@nv@@QEAAXPEAG0@Z 000000018003ae70 f i CuFabric.obj
 0001:00039f40       ??$assign@PEAUCuTether@cloth@nv@@@?$CuDeviceVector@UCuTether@cloth@nv@@@cloth@nv@@QEAAXPEAUCuTether@12@0@Z 000000018003af40 f i CuFabric.obj
 0001:0003a010       ??$assign@PEBM@?$CuDeviceVector@M@cloth@nv@@QEAAXPEBM0@Z 000000018003b010 f i CuFabric.obj
 0001:0003a0e0       ??$maxElement@I@shdfnd@physx@@YAPEBIPEBI0@Z 000000018003b0e0 f i CuFabric.obj
 0001:0003a180       ??$maxElement@M@shdfnd@physx@@YAPEBMPEBM0@Z 000000018003b180 f i CuFabric.obj
 0001:0003a220       ??0?$Array@GVNonTrackingAllocator@cloth@nv@@@shdfnd@physx@@QEAA@AEBVNonTrackingAllocator@cloth@nv@@@Z 000000018003b220 f i CuFabric.obj
 0001:0003a270       ??0?$Array@UCuTether@cloth@nv@@VNonTrackingAllocator@23@@shdfnd@physx@@QEAA@AEBVNonTrackingAllocator@cloth@nv@@@Z 000000018003b270 f i CuFabric.obj
 0001:0003a2c0       ??0?$Array@V?$CuDevicePointer@$$CBG@cloth@nv@@VNonTrackingAllocator@23@@shdfnd@physx@@QEAA@AEBVNonTrackingAllocator@cloth@nv@@@Z 000000018003b2c0 f i CuFabric.obj
 0001:0003a310       ??0?$Array@V?$CuDevicePointer@$$CBM@cloth@nv@@VNonTrackingAllocator@23@@shdfnd@physx@@QEAA@AEBVNonTrackingAllocator@cloth@nv@@@Z 000000018003b310 f i CuFabric.obj
 0001:0003a360       ??0?$CuDevicePointer@$$CBG@cloth@nv@@QEAA@AEBV?$CuDevicePointer@G@12@@Z 000000018003b360 f i CuFabric.obj
 0001:0003a3b0       ??0?$CuDevicePointer@$$CBM@cloth@nv@@QEAA@AEBV?$CuDevicePointer@M@12@@Z 000000018003b3b0 f i CuFabric.obj
 0001:0003a400       ??0?$CuDevicePointer@$$CBM@cloth@nv@@QEAA@XZ 000000018003b400 f i CuFabric.obj
 0001:0003a420       ??0?$CuDevicePointer@G@cloth@nv@@QEAA@XZ 000000018003b420 f i CuFabric.obj
 0001:0003a440       ??0?$CuDevicePointer@UCuTether@cloth@nv@@@cloth@nv@@QEAA@XZ 000000018003b440 f i CuFabric.obj
 0001:0003a460       ??0?$CuDeviceVector@G@cloth@nv@@QEAA@PEAUCUctx_st@@@Z 000000018003b460 f i CuFabric.obj
 0001:0003a550       ??0?$CuDeviceVector@I@cloth@nv@@QEAA@PEAUCUctx_st@@PEBI1@Z 000000018003b550 f i CuFabric.obj
 0001:0003a670       ??0?$CuDeviceVector@M@cloth@nv@@QEAA@PEAUCUctx_st@@PEBM1@Z 000000018003b670 f i CuFabric.obj
 0001:0003a790       ??0?$CuDeviceVector@UCuTether@cloth@nv@@@cloth@nv@@QEAA@PEAUCUctx_st@@@Z 000000018003b790 f i CuFabric.obj
 0001:0003a880       ??0Fabric@cloth@nv@@IEAA@XZ 000000018003b880 f i CuFabric.obj
 0001:0003a8c0       ??1?$Array@GVNonTrackingAllocator@cloth@nv@@@shdfnd@physx@@QEAA@XZ 000000018003b8c0 f i CuFabric.obj
 0001:0003a960       ??1?$Array@UCuTether@cloth@nv@@VNonTrackingAllocator@23@@shdfnd@physx@@QEAA@XZ 000000018003b960 f i CuFabric.obj
 0001:0003aa00       ??1?$Array@V?$CuDevicePointer@$$CBG@cloth@nv@@VNonTrackingAllocator@23@@shdfnd@physx@@QEAA@XZ 000000018003ba00 f i CuFabric.obj
 0001:0003aaa0       ??1?$Array@V?$CuDevicePointer@$$CBM@cloth@nv@@VNonTrackingAllocator@23@@shdfnd@physx@@QEAA@XZ 000000018003baa0 f i CuFabric.obj
 0001:0003ab40       ??1?$CuDeviceVector@G@cloth@nv@@QEAA@XZ 000000018003bb40 f i CuFabric.obj
 0001:0003abb0       ??1?$CuDeviceVector@UCuTether@cloth@nv@@@cloth@nv@@QEAA@XZ 000000018003bbb0 f i CuFabric.obj
 0001:0003ac20       ??1Fabric@cloth@nv@@MEAA@XZ 000000018003bc20 f i CuFabric.obj
 0001:0003acd0       ??4?$CuDeviceReference@I@cloth@nv@@QEAAAEAV012@AEBI@Z 000000018003bcd0 f i CuFabric.obj
 0001:0003ad40       ??A?$CuDevicePointer@I@cloth@nv@@QEBA?AV?$CuDeviceReference@I@12@AEB_J@Z 000000018003bd40 f i CuFabric.obj
 0001:0003adc0       ??D?$CuDevicePointer@I@cloth@nv@@QEBA?AV?$CuDeviceReference@I@12@XZ 000000018003bdc0 f i CuFabric.obj
 0001:0003ae20       ??E?$CuDevicePointer@I@cloth@nv@@QEAA?AV012@H@Z 000000018003be20 f i CuFabric.obj
 0001:0003aeb0       ??E?$CuDevicePointer@I@cloth@nv@@QEAAAEAV012@XZ 000000018003beb0 f i CuFabric.obj
 0001:0003aee0       ??H?$CuDevicePointer@$$CBG@cloth@nv@@QEBA?AV012@AEB_J@Z 000000018003bee0 f i CuFabric.obj
 0001:0003af50       ??H?$CuDevicePointer@$$CBM@cloth@nv@@QEBA?AV012@AEB_J@Z 000000018003bf50 f i CuFabric.obj
 0001:0003afc0       ??H?$CuDevicePointer@G@cloth@nv@@QEBA?AV012@AEB_J@Z 000000018003bfc0 f i CuFabric.obj
 0001:0003b030       ??H?$CuDevicePointer@UCuTether@cloth@nv@@@cloth@nv@@QEBA?AV012@AEB_J@Z 000000018003c030 f i CuFabric.obj
 0001:0003b0a0       ??Y?$CuDevicePointer@I@cloth@nv@@QEAAAEAV012@_J@Z 000000018003c0a0 f i CuFabric.obj
 0001:0003b0e0       ??_GCuFabric@cloth@nv@@UEAAPEAXI@Z 000000018003c0e0 f i CuFabric.obj
 0001:0003b0e0       ??_ECuFabric@cloth@nv@@UEAAPEAXI@Z 000000018003c0e0 f i CuFabric.obj
 0001:0003b170       ??_EFabric@cloth@nv@@MEAAPEAXI@Z 000000018003c170 f i CuFabric.obj
 0001:0003b170       ??_GFabric@cloth@nv@@MEAAPEAXI@Z 000000018003c170 f i CuFabric.obj
 0001:0003b200       ?allocate@?$Array@GVNonTrackingAllocator@cloth@nv@@@shdfnd@physx@@IEAAPEAGI@Z 000000018003c200 f i CuFabric.obj
 0001:0003b2c0       ?allocate@?$Array@PEAVCuFabric@cloth@nv@@VNonTrackingAllocator@23@@shdfnd@physx@@IEAAPEAPEAVCuFabric@cloth@nv@@I@Z 000000018003c2c0 f i CuFabric.obj
 0001:0003b390       ?allocate@?$Array@UCuTether@cloth@nv@@VNonTrackingAllocator@23@@shdfnd@physx@@IEAAPEAUCuTether@cloth@nv@@I@Z 000000018003c390 f i CuFabric.obj
 0001:0003b460       ?allocate@?$Array@V?$CuDevicePointer@$$CBG@cloth@nv@@VNonTrackingAllocator@23@@shdfnd@physx@@IEAAPEAV?$CuDevicePointer@$$CBG@cloth@nv@@I@Z 000000018003c460 f i CuFabric.obj
 0001:0003b530       ?allocate@?$Array@V?$CuDevicePointer@$$CBM@cloth@nv@@VNonTrackingAllocator@23@@shdfnd@physx@@IEAAPEAV?$CuDevicePointer@$$CBM@cloth@nv@@I@Z 000000018003c530 f i CuFabric.obj
 0001:0003b600       ?back@?$Range@$$CBI@cloth@nv@@QEBAAEBIXZ 000000018003c600 f i CuFabric.obj
 0001:0003b6c0       ?begin@?$Array@GVNonTrackingAllocator@cloth@nv@@@shdfnd@physx@@QEAAPEAGXZ 000000018003c6c0 f i CuFabric.obj
 0001:0003b6e0       ?begin@?$Array@UCuTether@cloth@nv@@VNonTrackingAllocator@23@@shdfnd@physx@@QEAAPEAUCuTether@cloth@nv@@XZ 000000018003c6e0 f i CuFabric.obj
 0001:0003b700       ?begin@?$Range@$$CBM@cloth@nv@@QEBAPEBMXZ 000000018003c700 f i CuFabric.obj
 0001:0003b720       ?capacity@?$Array@GVNonTrackingAllocator@cloth@nv@@@shdfnd@physx@@QEBAIXZ 000000018003c720 f i CuFabric.obj
 0001:0003b740       ?capacity@?$Array@PEAVCuFabric@cloth@nv@@VNonTrackingAllocator@23@@shdfnd@physx@@QEBAIXZ 000000018003c740 f i CuFabric.obj
 0001:0003b760       ?capacity@?$Array@UCuTether@cloth@nv@@VNonTrackingAllocator@23@@shdfnd@physx@@QEBAIXZ 000000018003c760 f i CuFabric.obj
 0001:0003b780       ?capacity@?$Array@V?$CuDevicePointer@$$CBG@cloth@nv@@VNonTrackingAllocator@23@@shdfnd@physx@@QEBAIXZ 000000018003c780 f i CuFabric.obj
 0001:0003b7a0       ?capacity@?$Array@V?$CuDevicePointer@$$CBM@cloth@nv@@VNonTrackingAllocator@23@@shdfnd@physx@@QEBAIXZ 000000018003c7a0 f i CuFabric.obj
 0001:0003b7c0       ?capacity@?$CuDeviceVector@G@cloth@nv@@QEBA_KXZ 000000018003c7c0 f i CuFabric.obj
 0001:0003b810       ?capacity@?$CuDeviceVector@UCuTether@cloth@nv@@@cloth@nv@@QEBA_KXZ 000000018003c810 f i CuFabric.obj
 0001:0003b860       ?capacityIncrement@?$Array@IVNonTrackingAllocator@cloth@nv@@@shdfnd@physx@@IEBAIXZ 000000018003c860 f i CuFabric.obj
 0001:0003b8d0       ?capacityIncrement@?$Array@PEAVCuFabric@cloth@nv@@VNonTrackingAllocator@23@@shdfnd@physx@@IEBAIXZ 000000018003c8d0 f i CuFabric.obj
 0001:0003b940       ?capacityIncrement@?$Array@UCuTether@cloth@nv@@VNonTrackingAllocator@23@@shdfnd@physx@@IEBAIXZ 000000018003c940 f i CuFabric.obj
 0001:0003b9b0       ?capacityIncrement@?$Array@V?$CuDevicePointer@$$CBG@cloth@nv@@VNonTrackingAllocator@23@@shdfnd@physx@@IEBAIXZ 000000018003c9b0 f i CuFabric.obj
 0001:0003ba20       ?capacityIncrement@?$Array@V?$CuDevicePointer@$$CBM@cloth@nv@@VNonTrackingAllocator@23@@shdfnd@physx@@IEBAIXZ 000000018003ca20 f i CuFabric.obj
 0001:0003ba90       ?copy@?$Array@GVNonTrackingAllocator@cloth@nv@@@shdfnd@physx@@KAXPEAG0PEBG@Z 000000018003ca90 f i CuFabric.obj
 0001:0003bb70       ?copy@?$Array@PEAVCuFabric@cloth@nv@@VNonTrackingAllocator@23@@shdfnd@physx@@KAXPEAPEAVCuFabric@cloth@nv@@0PEBQEAV456@@Z 000000018003cb70 f i CuFabric.obj
 0001:0003bc50       ?copy@?$Array@UCuTether@cloth@nv@@VNonTrackingAllocator@23@@shdfnd@physx@@KAXPEAUCuTether@cloth@nv@@0PEBU456@@Z 000000018003cc50 f i CuFabric.obj
 0001:0003bd20       ?copy@?$Array@V?$CuDevicePointer@$$CBG@cloth@nv@@VNonTrackingAllocator@23@@shdfnd@physx@@KAXPEAV?$CuDevicePointer@$$CBG@cloth@nv@@0PEBV456@@Z 000000018003cd20 f i CuFabric.obj
 0001:0003be00       ?copy@?$Array@V?$CuDevicePointer@$$CBM@cloth@nv@@VNonTrackingAllocator@23@@shdfnd@physx@@KAXPEAV?$CuDevicePointer@$$CBM@cloth@nv@@0PEBV456@@Z 000000018003ce00 f i CuFabric.obj
 0001:0003bee0       ?deallocate@?$Array@GVNonTrackingAllocator@cloth@nv@@@shdfnd@physx@@IEAAXPEAX@Z 000000018003cee0 f i CuFabric.obj
 0001:0003bf30       ?deallocate@?$Array@PEAVCuFabric@cloth@nv@@VNonTrackingAllocator@23@@shdfnd@physx@@IEAAXPEAX@Z 000000018003cf30 f i CuFabric.obj
 0001:0003bf80       ?deallocate@?$Array@UCuTether@cloth@nv@@VNonTrackingAllocator@23@@shdfnd@physx@@IEAAXPEAX@Z 000000018003cf80 f i CuFabric.obj
 0001:0003bfd0       ?deallocate@?$Array@V?$CuDevicePointer@$$CBG@cloth@nv@@VNonTrackingAllocator@23@@shdfnd@physx@@IEAAXPEAX@Z 000000018003cfd0 f i CuFabric.obj
 0001:0003c020       ?deallocate@?$Array@V?$CuDevicePointer@$$CBM@cloth@nv@@VNonTrackingAllocator@23@@shdfnd@physx@@IEAAXPEAX@Z 000000018003d020 f i CuFabric.obj
 0001:0003c070       ?destroy@?$Array@GVNonTrackingAllocator@cloth@nv@@@shdfnd@physx@@KAXPEAG0@Z 000000018003d070 f i CuFabric.obj
 0001:0003c0b0       ?destroy@?$Array@PEAVCuFabric@cloth@nv@@VNonTrackingAllocator@23@@shdfnd@physx@@KAXPEAPEAVCuFabric@cloth@nv@@0@Z 000000018003d0b0 f i CuFabric.obj
 0001:0003c0f0       ?destroy@?$Array@UCuTether@cloth@nv@@VNonTrackingAllocator@23@@shdfnd@physx@@KAXPEAUCuTether@cloth@nv@@0@Z 000000018003d0f0 f i CuFabric.obj
 0001:0003c130       ?destroy@?$Array@V?$CuDevicePointer@$$CBG@cloth@nv@@VNonTrackingAllocator@23@@shdfnd@physx@@KAXPEAV?$CuDevicePointer@$$CBG@cloth@nv@@0@Z 000000018003d130 f i CuFabric.obj
 0001:0003c170       ?destroy@?$Array@V?$CuDevicePointer@$$CBM@cloth@nv@@VNonTrackingAllocator@23@@shdfnd@physx@@KAXPEAV?$CuDevicePointer@$$CBM@cloth@nv@@0@Z 000000018003d170 f i CuFabric.obj
 0001:0003c1b0       ?dev@?$CuDevicePointer@G@cloth@nv@@QEBA_KXZ 000000018003d1b0 f i CuFabric.obj
 0001:0003c1d0       ?dev@?$CuDevicePointer@UCuTether@cloth@nv@@@cloth@nv@@QEBA_KXZ 000000018003d1d0 f i CuFabric.obj
 0001:0003c1f0       ?empty@?$Range@$$CBI@cloth@nv@@QEBA_NXZ 000000018003d1f0 f i CuFabric.obj
 0001:0003c250       ?empty@?$Range@$$CBM@cloth@nv@@QEBA_NXZ 000000018003d250 f i CuFabric.obj
 0001:0003c2b0       ?end@?$Array@GVNonTrackingAllocator@cloth@nv@@@shdfnd@physx@@QEAAPEAGXZ 000000018003d2b0 f i CuFabric.obj
 0001:0003c2e0       ?end@?$Array@MVNonTrackingAllocator@cloth@nv@@@shdfnd@physx@@QEAAPEAMXZ 000000018003d2e0 f i CuFabric.obj
 0001:0003c310       ?end@?$Array@UCuTether@cloth@nv@@VNonTrackingAllocator@23@@shdfnd@physx@@QEAAPEAUCuTether@cloth@nv@@XZ 000000018003d310 f i CuFabric.obj
 0001:0003c340       ?end@?$CuDeviceVector@M@cloth@nv@@QEAA?AV?$CuDevicePointer@M@23@XZ 000000018003d340 f i CuFabric.obj
 0001:0003c3a0       ?end@?$Range@$$CBM@cloth@nv@@QEBAPEBMXZ 000000018003d3a0 f i CuFabric.obj
 0001:0003c3c0       ?find@?$Array@PEAVCuFabric@cloth@nv@@VNonTrackingAllocator@23@@shdfnd@physx@@QEAAPEAPEAVCuFabric@cloth@nv@@AEBQEAV456@@Z 000000018003d3c0 f i CuFabric.obj
 0001:0003c450       ?front@?$Array@MVNonTrackingAllocator@cloth@nv@@@shdfnd@physx@@QEBAAEBMXZ 000000018003d450 f i CuFabric.obj
 0001:0003c500       ?front@?$Range@$$CBI@cloth@nv@@QEBAAEBIXZ 000000018003d500 f i CuFabric.obj
 0001:0003c5b0       ?front@?$Range@$$CBM@cloth@nv@@QEBAAEBMXZ 000000018003d5b0 f i CuFabric.obj
 0001:0003c660       ?grow@?$Array@GVNonTrackingAllocator@cloth@nv@@@shdfnd@physx@@IEAAXI@Z 000000018003d660 f i CuFabric.obj
 0001:0003c720       ?grow@?$Array@UCuTether@cloth@nv@@VNonTrackingAllocator@23@@shdfnd@physx@@IEAAXI@Z 000000018003d720 f i CuFabric.obj
 0001:0003c7e0       ?growAndPushBack@?$Array@IVNonTrackingAllocator@cloth@nv@@@shdfnd@physx@@IEAAAEAIAEBI@Z 000000018003d7e0 f i CuFabric.obj
 0001:0003ca00       ?growAndPushBack@?$Array@PEAVCuFabric@cloth@nv@@VNonTrackingAllocator@23@@shdfnd@physx@@IEAAAEAPEAVCuFabric@cloth@nv@@AEBQEAV456@@Z 000000018003da00 f i CuFabric.obj
 0001:0003cc20       ?growAndPushBack@?$Array@UCuTether@cloth@nv@@VNonTrackingAllocator@23@@shdfnd@physx@@IEAAAEAUCuTether@cloth@nv@@AEBU456@@Z 000000018003dc20 f i CuFabric.obj
 0001:0003ce40       ?growAndPushBack@?$Array@V?$CuDevicePointer@$$CBG@cloth@nv@@VNonTrackingAllocator@23@@shdfnd@physx@@IEAAAEAV?$CuDevicePointer@$$CBG@cloth@nv@@AEBV456@@Z 000000018003de40 f i CuFabric.obj
 0001:0003d060       ?growAndPushBack@?$Array@V?$CuDevicePointer@$$CBM@cloth@nv@@VNonTrackingAllocator@23@@shdfnd@physx@@IEAAAEAV?$CuDevicePointer@$$CBM@cloth@nv@@AEBV456@@Z 000000018003e060 f i CuFabric.obj
 0001:0003d280       ?isInUserMemory@?$Array@GVNonTrackingAllocator@cloth@nv@@@shdfnd@physx@@QEBAIXZ 000000018003e280 f i CuFabric.obj
 0001:0003d2a0       ?isInUserMemory@?$Array@PEAVCuFabric@cloth@nv@@VNonTrackingAllocator@23@@shdfnd@physx@@QEBAIXZ 000000018003e2a0 f i CuFabric.obj
 0001:0003d2c0       ?isInUserMemory@?$Array@UCuTether@cloth@nv@@VNonTrackingAllocator@23@@shdfnd@physx@@QEBAIXZ 000000018003e2c0 f i CuFabric.obj
 0001:0003d2e0       ?isInUserMemory@?$Array@V?$CuDevicePointer@$$CBG@cloth@nv@@VNonTrackingAllocator@23@@shdfnd@physx@@QEBAIXZ 000000018003e2e0 f i CuFabric.obj
 0001:0003d300       ?isInUserMemory@?$Array@V?$CuDevicePointer@$$CBM@cloth@nv@@VNonTrackingAllocator@23@@shdfnd@physx@@QEBAIXZ 000000018003e300 f i CuFabric.obj
 0001:0003d320       ?popFront@?$Range@$$CBI@cloth@nv@@QEAAXXZ 000000018003e320 f i CuFabric.obj
 0001:0003d3e0       ?popFront@?$Range@$$CBM@cloth@nv@@QEAAXXZ 000000018003e3e0 f i CuFabric.obj
 0001:0003d4a0       ?pushBack@?$Array@IVNonTrackingAllocator@cloth@nv@@@shdfnd@physx@@QEAAAEAIAEBI@Z 000000018003e4a0 f i CuFabric.obj
 0001:0003d5b0       ?pushBack@?$Array@PEAVCuFabric@cloth@nv@@VNonTrackingAllocator@23@@shdfnd@physx@@QEAAAEAPEAVCuFabric@cloth@nv@@AEBQEAV456@@Z 000000018003e5b0 f i CuFabric.obj
 0001:0003d6c0       ?pushBack@?$Array@UCuTether@cloth@nv@@VNonTrackingAllocator@23@@shdfnd@physx@@QEAAAEAUCuTether@cloth@nv@@AEBU456@@Z 000000018003e6c0 f i CuFabric.obj
 0001:0003d7d0       ?pushBack@?$Array@V?$CuDevicePointer@$$CBG@cloth@nv@@VNonTrackingAllocator@23@@shdfnd@physx@@QEAAAEAV?$CuDevicePointer@$$CBG@cloth@nv@@AEBV456@@Z 000000018003e7d0 f i CuFabric.obj
 0001:0003d8e0       ?pushBack@?$Array@V?$CuDevicePointer@$$CBM@cloth@nv@@VNonTrackingAllocator@23@@shdfnd@physx@@QEAAAEAV?$CuDevicePointer@$$CBM@cloth@nv@@AEBV456@@Z 000000018003e8e0 f i CuFabric.obj
 0001:0003d9f0       ?push_back@?$CuDeviceVector@I@cloth@nv@@QEAAXAEBI@Z 000000018003e9f0 f i CuFabric.obj
 0001:0003dae0       ?push_back@?$CuDeviceVector@I@cloth@nv@@QEAAXPEBI0@Z 000000018003eae0 f i CuFabric.obj
 0001:0003dc80       ?recreate@?$Array@GVNonTrackingAllocator@cloth@nv@@@shdfnd@physx@@IEAAXI@Z 000000018003ec80 f i CuFabric.obj
 0001:0003ddf0       ?recreate@?$Array@UCuTether@cloth@nv@@VNonTrackingAllocator@23@@shdfnd@physx@@IEAAXI@Z 000000018003edf0 f i CuFabric.obj
 0001:0003df60       ?replaceWithLast@?$Array@PEAVCuFabric@cloth@nv@@VNonTrackingAllocator@23@@shdfnd@physx@@QEAAXI@Z 000000018003ef60 f i CuFabric.obj
 0001:0003e050       ?replaceWithLast@?$Array@PEAVCuFabric@cloth@nv@@VNonTrackingAllocator@23@@shdfnd@physx@@QEAAXPEAPEAVCuFabric@cloth@nv@@@Z 000000018003f050 f i CuFabric.obj
 0001:0003e0b0       ?reserve@?$Array@GVNonTrackingAllocator@cloth@nv@@@shdfnd@physx@@QEAAXI@Z 000000018003f0b0 f i CuFabric.obj
 0001:0003e110       ?reserve@?$Array@UCuTether@cloth@nv@@VNonTrackingAllocator@23@@shdfnd@physx@@QEAAXI@Z 000000018003f110 f i CuFabric.obj
 0001:0003e170       ?reserve@?$CuDeviceVector@G@cloth@nv@@QEAAX_K@Z 000000018003f170 f i CuFabric.obj
 0001:0003e360       ?reserve@?$CuDeviceVector@UCuTether@cloth@nv@@@cloth@nv@@QEAAX_K@Z 000000018003f360 f i CuFabric.obj
 0001:0003e550       ?resize@?$CuDeviceVector@G@cloth@nv@@QEAAX_K@Z 000000018003f550 f i CuFabric.obj
 0001:0003e610       ?resize@?$CuDeviceVector@UCuTether@cloth@nv@@@cloth@nv@@QEAAX_K@Z 000000018003f610 f i CuFabric.obj
 0001:0003e6d0       ?resizeUninitialized@?$Array@GVNonTrackingAllocator@cloth@nv@@@shdfnd@physx@@QEAAXI@Z 000000018003f6d0 f i CuFabric.obj
 0001:0003e730       ?size@?$Range@$$CBM@cloth@nv@@QEBAIXZ 000000018003f730 f i CuFabric.obj
 0001:0003e760       ??0CuFactory@cloth@nv@@QEAA@PEAUCUctx_st@@@Z 000000018003f760 f   CuFactory.obj
 0001:0003e840       ??1CuFactory@cloth@nv@@UEAA@XZ 000000018003f840 f   CuFactory.obj
 0001:0003e950       ?createFabric@CuFactory@cloth@nv@@UEAAPEAVFabric@23@IU?$Range@$$CBI@23@0U?$Range@$$CBM@23@10010@Z 000000018003f950 f   CuFactory.obj
 0001:0003eb30       ?createCloth@CuFactory@cloth@nv@@UEAAPEAVCloth@23@U?$Range@$$CBVPxVec4@physx@@@23@AEAVFabric@23@@Z 000000018003fb30 f   CuFactory.obj
 0001:0003ebe0       ?createSolver@CuFactory@cloth@nv@@UEAAPEAVSolver@23@XZ 000000018003fbe0 f   CuFactory.obj
 0001:0003ecc0       ?extractFabricData@CuFactory@cloth@nv@@UEBAXAEBVFabric@23@U?$Range@I@23@1U?$Range@M@23@21121@Z 000000018003fcc0 f   CuFactory.obj
 0001:0003f660       ?extractCollisionData@CuFactory@cloth@nv@@UEBAXAEBVCloth@23@U?$Range@VPxVec4@physx@@@23@U?$Range@I@23@12U?$Range@VPxVec3@physx@@@23@@Z 0000000180040660 f   CuFactory.obj
 0001:0003fca0       ?extractMotionConstraints@CuFactory@cloth@nv@@UEBAXAEBVCloth@23@U?$Range@VPxVec4@physx@@@23@@Z 0000000180040ca0 f   CuFactory.obj
 0001:0003ffd0       ?extractSeparationConstraints@CuFactory@cloth@nv@@UEBAXAEBVCloth@23@U?$Range@VPxVec4@physx@@@23@@Z 0000000180040fd0 f   CuFactory.obj
 0001:00040300       ?extractParticleAccelerations@CuFactory@cloth@nv@@UEBAXAEBVCloth@23@U?$Range@VPxVec4@physx@@@23@@Z 0000000180041300 f   CuFactory.obj
 0001:00040490       ?extractVirtualParticles@CuFactory@cloth@nv@@UEBAXAEBVCloth@23@U?$Range@$$BY03I@23@U?$Range@VPxVec3@physx@@@23@@Z 0000000180041490 f   CuFactory.obj
 0001:000409c0       ?extractSelfCollisionIndices@CuFactory@cloth@nv@@UEBAXAEBVCloth@23@U?$Range@I@23@@Z 00000001800419c0 f   CuFactory.obj
 0001:00040af0       ?extractRestPositions@CuFactory@cloth@nv@@UEBAXAEBVCloth@23@U?$Range@VPxVec4@physx@@@23@@Z 0000000180041af0 f   CuFactory.obj
 0001:00040c20       ?copyToHost@CuFactory@cloth@nv@@QEBAXPEBX0PEAX@Z 0000000180041c20 f   CuFactory.obj
 0001:00040cc0       ?checkSuccessImpl@cloth@nv@@YAXW4cudaError_enum@@PEBDH@Z 0000000180041cc0 f   CuFactory.obj
 0001:00041e70       ??$?0G@?$Vec4T@I@cloth@nv@@QEAA@AEBU?$Vec4T@G@12@@Z 0000000180042e70 f i CuFactory.obj
 0001:00041ee0       ??0?$Array@PEAVCuFabric@cloth@nv@@VNonTrackingAllocator@23@@shdfnd@physx@@QEAA@AEBVNonTrackingAllocator@cloth@nv@@@Z 0000000180042ee0 f i CuFactory.obj
 0001:00041f30       ??0?$Array@U?$Vec4T@G@cloth@nv@@VNonTrackingAllocator@23@@shdfnd@physx@@QEAA@IAEBU?$Vec4T@G@cloth@nv@@AEBVNonTrackingAllocator@45@@Z 0000000180042f30 f i CuFactory.obj
 0001:00041fc0       ??0?$Array@UCuTether@cloth@nv@@VNonTrackingAllocator@23@@shdfnd@physx@@QEAA@IAEBUCuTether@cloth@nv@@AEBVNonTrackingAllocator@45@@Z 0000000180042fc0 f i CuFactory.obj
 0001:00042050       ??0?$CuDevicePointer@$$CBI@cloth@nv@@QEAA@AEBV?$CuDevicePointer@I@12@@Z 0000000180043050 f i CuFactory.obj
 0001:000420a0       ??0?$CuDevicePointer@$$CBU?$Vec4T@G@cloth@nv@@@cloth@nv@@QEAA@AEBV?$CuDevicePointer@U?$Vec4T@G@cloth@nv@@@12@@Z 00000001800430a0 f i CuFactory.obj
 0001:000420f0       ??0?$CuDevicePointer@$$CBUCuTether@cloth@nv@@@cloth@nv@@QEAA@AEBV?$CuDevicePointer@UCuTether@cloth@nv@@@12@@Z 00000001800430f0 f i CuFactory.obj
 0001:00042140       ??0?$CuDevicePointer@$$CBVPxVec4@physx@@@cloth@nv@@QEAA@AEBV?$CuDevicePointer@VPxVec4@physx@@@12@@Z 0000000180043140 f i CuFactory.obj
 0001:00042190       ??0?$Vec4T@G@cloth@nv@@QEAA@XZ 0000000180043190 f i CuFactory.obj
 0001:000421a0       ??0Factory@cloth@nv@@IEAA@XZ 00000001800431a0 f i CuFactory.obj
 0001:000421d0       ??1?$Array@PEAVCuFabric@cloth@nv@@VNonTrackingAllocator@23@@shdfnd@physx@@QEAA@XZ 00000001800431d0 f i CuFactory.obj
 0001:00042270       ??1Factory@cloth@nv@@MEAA@XZ 0000000180043270 f i CuFactory.obj
 0001:00042290       ??A?$Array@UCuTether@cloth@nv@@VNonTrackingAllocator@23@@shdfnd@physx@@QEAAAEAUCuTether@cloth@nv@@I@Z 0000000180043290 f i CuFactory.obj
 0001:00042350       ??A?$Range@I@cloth@nv@@QEBAAEAII@Z 0000000180043350 f i CuFactory.obj
 0001:00042410       ??_ECuFactory@cloth@nv@@UEAAPEAXI@Z 0000000180043410 f i CuFactory.obj
 0001:00042410       ??_GCuFactory@cloth@nv@@UEAAPEAXI@Z 0000000180043410 f i CuFactory.obj
 0001:000424a0       ??_GFactory@cloth@nv@@MEAAPEAXI@Z 00000001800434a0 f i CuFactory.obj
 0001:000424a0       ??_EFactory@cloth@nv@@MEAAPEAXI@Z 00000001800434a0 f i CuFactory.obj
 0001:00042530       ?begin@?$Array@U?$Vec4T@G@cloth@nv@@VNonTrackingAllocator@23@@shdfnd@physx@@QEAAPEAU?$Vec4T@G@cloth@nv@@XZ 0000000180043530 f i CuFactory.obj
 0001:00042550       ?begin@?$CuDeviceVector@G@cloth@nv@@QEBA?AV?$CuDevicePointer@$$CBG@23@XZ 0000000180043550 f i CuFactory.obj
 0001:000425b0       ?begin@?$CuDeviceVector@I@cloth@nv@@QEBA?AV?$CuDevicePointer@$$CBI@23@XZ 00000001800435b0 f i CuFactory.obj
 0001:00042610       ?begin@?$CuDeviceVector@M@cloth@nv@@QEBA?AV?$CuDevicePointer@$$CBM@23@XZ 0000000180043610 f i CuFactory.obj
 0001:00042670       ?begin@?$CuDeviceVector@U?$Vec4T@G@cloth@nv@@@cloth@nv@@QEBA?AV?$CuDevicePointer@$$CBU?$Vec4T@G@cloth@nv@@@23@XZ 0000000180043670 f i CuFactory.obj
 0001:000426d0       ?begin@?$CuDeviceVector@UCuTether@cloth@nv@@@cloth@nv@@QEBA?AV?$CuDevicePointer@$$CBUCuTether@cloth@nv@@@23@XZ 00000001800436d0 f i CuFactory.obj
 0001:00042730       ?begin@?$CuDeviceVector@VPxVec4@physx@@@cloth@nv@@QEBA?AV?$CuDevicePointer@$$CBVPxVec4@physx@@@23@XZ 0000000180043730 f i CuFactory.obj
 0001:00042790       ?create@?$Array@U?$Vec4T@G@cloth@nv@@VNonTrackingAllocator@23@@shdfnd@physx@@KAXPEAU?$Vec4T@G@cloth@nv@@0AEBU456@@Z 0000000180043790 f i CuFactory.obj
 0001:00042840       ?create@?$Array@UCuTether@cloth@nv@@VNonTrackingAllocator@23@@shdfnd@physx@@KAXPEAUCuTether@cloth@nv@@0AEBU456@@Z 0000000180043840 f i CuFactory.obj
 0001:000428f0       ?empty@?$Range@I@cloth@nv@@QEBA_NXZ 00000001800438f0 f i CuFactory.obj
 0001:00042950       ?empty@?$Range@M@cloth@nv@@QEBA_NXZ 0000000180043950 f i CuFactory.obj
 0001:000429b0       ?empty@?$Range@VPxVec3@physx@@@cloth@nv@@QEBA_NXZ 00000001800439b0 f i CuFactory.obj
 0001:00042a10       ?empty@?$Range@VPxVec4@physx@@@cloth@nv@@QEBA_NXZ 0000000180043a10 f i CuFactory.obj
 0001:00042a70       ?end@?$CuDeviceVector@I@cloth@nv@@QEBA?AV?$CuDevicePointer@$$CBI@23@XZ 0000000180043a70 f i CuFactory.obj
 0001:00042ad0       ?end@?$CuDeviceVector@U?$Vec4T@G@cloth@nv@@@cloth@nv@@QEBA?AV?$CuDevicePointer@$$CBU?$Vec4T@G@cloth@nv@@@23@XZ 0000000180043ad0 f i CuFactory.obj
 0001:00042b30       ?end@?$CuDeviceVector@VPxVec4@physx@@@cloth@nv@@QEBA?AV?$CuDevicePointer@$$CBVPxVec4@physx@@@23@XZ 0000000180043b30 f i CuFactory.obj
 0001:00042b90       ?front@?$Array@IV?$CuHostAllocator@I$01@cloth@nv@@@shdfnd@physx@@QEBAAEBIXZ 0000000180043b90 f i CuFactory.obj
 0001:00042c40       ?front@?$Array@U?$Vec4T@G@cloth@nv@@VNonTrackingAllocator@23@@shdfnd@physx@@QEAAAEAU?$Vec4T@G@cloth@nv@@XZ 0000000180043c40 f i CuFactory.obj
 0001:00042cf0       ?front@?$Array@UIndexPair@cloth@nv@@V?$CuHostAllocator@UIndexPair@cloth@nv@@$01@23@@shdfnd@physx@@QEBAAEBUIndexPair@cloth@nv@@XZ 0000000180043cf0 f i CuFactory.obj
 0001:00042da0       ?front@?$Array@VPxVec3@physx@@V?$CuHostAllocator@VPxVec3@physx@@$01@cloth@nv@@@shdfnd@physx@@QEBAAEBVPxVec3@3@XZ 0000000180043da0 f i CuFactory.obj
 0001:00042e50       ?front@?$Array@VPxVec4@physx@@V?$CuHostAllocator@VPxVec4@physx@@$01@cloth@nv@@@shdfnd@physx@@QEBAAEBVPxVec4@3@XZ 0000000180043e50 f i CuFactory.obj
 0001:00042f00       ?front@?$Range@I@cloth@nv@@QEBAAEAIXZ 0000000180043f00 f i CuFactory.obj
 0001:00042fb0       ?front@?$Range@M@cloth@nv@@QEBAAEAMXZ 0000000180043fb0 f i CuFactory.obj
 0001:00043060       ?get@?$CuDevicePointer@$$CBI@cloth@nv@@QEBAPEBIXZ 0000000180044060 f i CuFactory.obj
 0001:00043080       ?get@?$CuDevicePointer@$$CBU?$Vec4T@G@cloth@nv@@@cloth@nv@@QEBAPEBU?$Vec4T@G@23@XZ 0000000180044080 f i CuFactory.obj
 0001:000430a0       ?get@?$CuDevicePointer@$$CBUCuTether@cloth@nv@@@cloth@nv@@QEBAPEBUCuTether@23@XZ 00000001800440a0 f i CuFactory.obj
 0001:000430c0       ?get@?$CuDevicePointer@$$CBVPxVec4@physx@@@cloth@nv@@QEBAPEBVPxVec4@physx@@XZ 00000001800440c0 f i CuFactory.obj
 0001:000430e0       ?getPlatform@CuFactory@cloth@nv@@UEBA?AW4Platform@23@XZ 00000001800440e0 f i CuFactory.obj
 0001:000430f0       ?popFront@?$Range@I@cloth@nv@@QEAAXXZ 00000001800440f0 f i CuFactory.obj
 0001:000431b0       ?popFront@?$Range@M@cloth@nv@@QEAAXXZ 00000001800441b0 f i CuFactory.obj
 0001:00043270       ?resize@?$Array@U?$Vec4T@G@cloth@nv@@VNonTrackingAllocator@23@@shdfnd@physx@@QEAAXIAEBU?$Vec4T@G@cloth@nv@@@Z 0000000180044270 f i CuFactory.obj
 0001:00043340       ?resize@?$Array@UCuTether@cloth@nv@@VNonTrackingAllocator@23@@shdfnd@physx@@QEAAXIAEBUCuTether@cloth@nv@@@Z 0000000180044340 f i CuFactory.obj
 0001:00043410       ?size@?$Array@PEAVCuFabric@cloth@nv@@VNonTrackingAllocator@23@@shdfnd@physx@@QEBAIXZ 0000000180044410 f i CuFactory.obj
 0001:00043430       ?size@?$Array@UCuTether@cloth@nv@@VNonTrackingAllocator@23@@shdfnd@physx@@QEBAIXZ 0000000180044430 f i CuFactory.obj
 0001:00043450       ?size@?$Range@$$BY03I@cloth@nv@@QEBAIXZ 0000000180044450 f i CuFactory.obj
 0001:00043480       ?size@?$Range@I@cloth@nv@@QEBAIXZ 0000000180044480 f i CuFactory.obj
 0001:000434b0       ?size@?$Range@M@cloth@nv@@QEBAIXZ 00000001800444b0 f i CuFactory.obj
 0001:000434e0       ?size@?$Range@VPxVec3@physx@@@cloth@nv@@QEBAIXZ 00000001800444e0 f i CuFactory.obj
 0001:00043510       ?size@?$Range@VPxVec4@physx@@@cloth@nv@@QEBAIXZ 0000000180044510 f i CuFactory.obj
 0001:000435d0       ?getKernelFunctionName@cloth@nv@@YAPEBDXZ 00000001800445d0 f   CuSolver.obj
 0001:000435f0       ??0CuSolver@cloth@nv@@QEAA@AEAVCuFactory@12@@Z 00000001800445f0 f   CuSolver.obj
 0001:00043a70       ??1CuSolver@cloth@nv@@UEAA@XZ 0000000180044a70 f   CuSolver.obj
 0001:00043c60       ?addCloth@CuSolver@cloth@nv@@UEAAXPEAVCloth@23@@Z 0000000180044c60 f   CuSolver.obj
 0001:00043cb0       ?addCloths@CuSolver@cloth@nv@@UEAAXU?$Range@PEAVCloth@cloth@nv@@@23@@Z 0000000180044cb0 f   CuSolver.obj
 0001:00043d30       ?removeCloth@CuSolver@cloth@nv@@UEAAXPEAVCloth@23@@Z 0000000180044d30 f   CuSolver.obj
 0001:00043e40       ?getNumCloths@CuSolver@cloth@nv@@UEBAHXZ 0000000180044e40 f   CuSolver.obj
 0001:00043e80       ?getClothList@CuSolver@cloth@nv@@UEBAPEBQEAVCloth@23@XZ 0000000180044e80 f   CuSolver.obj
 0001:00043ee0       ?beginSimulation@CuSolver@cloth@nv@@UEAA_NM@Z 0000000180044ee0 f   CuSolver.obj
 0001:00043f50       ?simulateChunk@CuSolver@cloth@nv@@UEAAXH@Z 0000000180044f50 f   CuSolver.obj
 0001:00044040       ?endSimulation@CuSolver@cloth@nv@@UEAAXXZ 0000000180045040 f   CuSolver.obj
 0001:000440e0       ?getSimulationChunkCount@CuSolver@cloth@nv@@UEBAHXZ 00000001800450e0 f   CuSolver.obj
 0001:00044140       ?addClothAppend@CuSolver@cloth@nv@@AEAAXPEAVCloth@23@@Z 0000000180045140 f   CuSolver.obj
 0001:00044230       ?addClothUpdateData@CuSolver@cloth@nv@@AEAAXXZ 0000000180045230 f   CuSolver.obj
 0001:00044350       ?updateKernelData@CuSolver@cloth@nv@@AEAAXXZ 0000000180045350 f   CuSolver.obj
 0001:00044410       ?beginFrame@CuSolver@cloth@nv@@AEAAXXZ 0000000180045410 f   CuSolver.obj
 0001:00044dc0       ?KernelFinished@CuSolver@cloth@nv@@CAXPEAUCUstream_st@@W4cudaError_enum@@PEAX@Z 0000000180045dc0 f   CuSolver.obj
 0001:00044e20       ?executeKernel@CuSolver@cloth@nv@@AEAAXXZ 0000000180045e20 f   CuSolver.obj
 0001:00045110       ?endFrame@CuSolver@cloth@nv@@AEAAXXZ 0000000180046110 f   CuSolver.obj
 0001:000454f0       ?interCollision@CuSolver@cloth@nv@@AEAAXXZ 00000001800464f0 f   CuSolver.obj
 0001:000462f0       ??$?0UCuClothData@cloth@nv@@@?$CuDevicePointer@UCuClothData@cloth@nv@@@cloth@nv@@QEAA@PEAUCuClothData@12@@Z 00000001800472f0 f i CuSolver.obj
 0001:00046320       ??$?0VCuCloth@cloth@nv@@@IterationStateFactory@cloth@nv@@QEAA@AEAVCuCloth@12@M@Z 0000000180047320 f i CuSolver.obj
 0001:000467e0       ??$PX_UNUSED@H@@YAXAEBH@Z  00000001800477e0 f i CuSolver.obj
 0001:000467f0       ??$PX_UNUSED@PEAUCUstream_st@@@@YAXAEBQEAUCUstream_st@@@Z 00000001800477f0 f i CuSolver.obj
 0001:00046800       ??$PX_UNUSED@PEAX@@YAXAEBQEAX@Z 0000000180047800 f i CuSolver.obj
 0001:00046810       ??$PX_UNUSED@W4cudaError_enum@@@@YAXAEBW4cudaError_enum@@@Z 0000000180047810 f i CuSolver.obj
 0001:00046820       ??$PxClamp@M@physx@@YAMMMM@Z 0000000180047820 f i CuSolver.obj
 0001:000468f0       ??$assign@T__m128@@$02@cloth@nv@@YAXAEAY02T__m128@@AEBVPxMat44@physx@@@Z 00000001800478f0 f i CuSolver.obj
 0001:000469a0       ??$castToPxVec3@T__m128@@@IterationStateFactory@cloth@nv@@SA?AVPxVec3@physx@@AEBT__m128@@@Z 00000001800479a0 f i CuSolver.obj
 0001:000469f0       ??$create@T__m128@@VCuCloth@cloth@nv@@@IterationStateFactory@cloth@nv@@QEBA?AU?$IterationState@T__m128@@@12@AEBVCuCloth@12@@Z 00000001800479f0 f i CuSolver.obj
 0001:000482f0       ??$getDevicePointer@UCuFrameData@cloth@nv@@$01@cloth@nv@@YAPEAUCuFrameData@01@AEAV?$CuHostVectorImpl@UCuFrameData@cloth@nv@@$01@01@@Z 00000001800492f0 f i CuSolver.obj
 0001:00048360       ??$getDevicePointer@UCuIterationData@cloth@nv@@$01@cloth@nv@@YAPEAUCuIterationData@01@AEAV?$CuHostVectorImpl@UCuIterationData@cloth@nv@@$01@01@@Z 0000000180049360 f i CuSolver.obj
 0001:000483d0       ??$lengthSqr@T__m128@@@IterationStateFactory@cloth@nv@@SA?AT__m128@@AEBT3@@Z 00000001800493d0 f i CuSolver.obj
 0001:00048420       ??$splat@$00@cloth@nv@@YA?AT__m128@@AEBT2@@Z 0000000180049420 f i CuSolver.obj
 0001:00048470       ??$splat@$01@cloth@nv@@YA?AT__m128@@AEBT2@@Z 0000000180049470 f i CuSolver.obj
 0001:000484c0       ??$splat@$0A@@cloth@nv@@YA?AT__m128@@AEBT2@@Z 00000001800494c0 f i CuSolver.obj
 0001:00048510       ??$sqr@M@cloth@nv@@YAMAEBM@Z 0000000180049510 f i CuSolver.obj
 0001:00048560       ??$swap@PEAVPxVec3@physx@@@shdfnd@physx@@YAXAEAPEAVPxVec3@1@0@Z 0000000180049560 f i CuSolver.obj
 0001:000485d0       ??$swap@VPxVec3@physx@@$01@shdfnd@physx@@YAXAEAV?$CuHostVectorImpl@VPxVec3@physx@@$01@cloth@nv@@0@Z 00000001800495d0 f i CuSolver.obj
 0001:00048620       ??$transform@T__m128@@@cloth@nv@@YA?AT__m128@@AEAY02$$CBT2@AEBT2@@Z 0000000180049620 f i CuSolver.obj
 0001:00048790       ??0?$Array@PEAVCuCloth@cloth@nv@@VNonTrackingAllocator@23@@shdfnd@physx@@QEAA@AEBVNonTrackingAllocator@cloth@nv@@@Z 0000000180049790 f i CuSolver.obj
 0001:000487e0       ??0?$Array@UCuClothData@cloth@nv@@V?$CuHostAllocator@UCuClothData@cloth@nv@@$03@23@@shdfnd@physx@@QEAA@AEBV?$CuHostAllocator@UCuClothData@cloth@nv@@$03@cloth@nv@@@Z 00000001800497e0 f i CuSolver.obj
 0001:00048840       ??0?$Array@UCuFrameData@cloth@nv@@V?$CuHostAllocator@UCuFrameData@cloth@nv@@$01@23@@shdfnd@physx@@QEAA@AEBV?$CuHostAllocator@UCuFrameData@cloth@nv@@$01@cloth@nv@@@Z 0000000180049840 f i CuSolver.obj
 0001:000488a0       ??0?$Array@UCuIterationData@cloth@nv@@V?$CuHostAllocator@UCuIterationData@cloth@nv@@$01@23@@shdfnd@physx@@QEAA@AEBV?$CuHostAllocator@UCuIterationData@cloth@nv@@$01@cloth@nv@@@Z 00000001800498a0 f i CuSolver.obj
 0001:00048900       ??0?$Array@USwInterCollisionData@cloth@nv@@VNonTrackingAllocator@23@@shdfnd@physx@@QEAA@AEBVNonTrackingAllocator@cloth@nv@@@Z 0000000180049900 f i CuSolver.obj
 0001:00048980       ??0?$CuDevicePointer@UCuClothData@cloth@nv@@@cloth@nv@@QEAA@AEBV012@@Z 0000000180049980 f i CuSolver.obj
 0001:000489d0       ??0?$CuDevicePointer@UCuClothData@cloth@nv@@@cloth@nv@@QEAA@XZ 00000001800499d0 f i CuSolver.obj
 0001:000489f0       ??0?$CuDeviceVector@UCuClothData@cloth@nv@@@cloth@nv@@QEAA@PEAUCUctx_st@@@Z 00000001800499f0 f i CuSolver.obj
 0001:00048ae0       ??0?$CuHostAllocator@UCuClothData@cloth@nv@@$03@cloth@nv@@QEAA@PEAUCUctx_st@@@Z 0000000180049ae0 f i CuSolver.obj
 0001:00048b20       ??0?$CuHostAllocator@UCuFrameData@cloth@nv@@$01@cloth@nv@@QEAA@PEAUCUctx_st@@@Z 0000000180049b20 f i CuSolver.obj
 0001:00048b60       ??0?$CuHostAllocator@UCuIterationData@cloth@nv@@$01@cloth@nv@@QEAA@PEAUCUctx_st@@@Z 0000000180049b60 f i CuSolver.obj
 0001:00048ba0       ??0?$CuHostVectorImpl@UCuClothData@cloth@nv@@$03@cloth@nv@@QEAA@AEBV?$CuHostAllocator@UCuClothData@cloth@nv@@$03@12@@Z 0000000180049ba0 f i CuSolver.obj
 0001:00048bf0       ??0?$CuHostVectorImpl@UCuFrameData@cloth@nv@@$01@cloth@nv@@QEAA@AEBV?$CuHostAllocator@UCuFrameData@cloth@nv@@$01@12@@Z 0000000180049bf0 f i CuSolver.obj
 0001:00048c40       ??0?$CuHostVectorImpl@UCuIterationData@cloth@nv@@$01@cloth@nv@@QEAA@AEBV?$CuHostAllocator@UCuIterationData@cloth@nv@@$01@12@@Z 0000000180049c40 f i CuSolver.obj
 0001:00048c90       ??0?$StackAllocator@$0BA@@cloth@nv@@QEAA@PEAX_K@Z 0000000180049c90 f i CuSolver.obj
 0001:00048d00       ??0CuClothData@cloth@nv@@QEAA@XZ 0000000180049d00 f i CuSolver.obj
 0001:00048d10       ??0CuFrameData@cloth@nv@@QEAA@XZ 0000000180049d10 f i CuSolver.obj
 0001:00048d20       ??0CuIterationData@cloth@nv@@QEAA@XZ 0000000180049d20 f i CuSolver.obj
 0001:00048d30       ??0PxMat33@physx@@QEAA@AEBVPxVec3@1@00@Z 0000000180049d30 f i CuSolver.obj
 0001:00048dd0       ??0PxMat44@physx@@QEAA@AEBVPxQuat@1@@Z 0000000180049dd0 f i CuSolver.obj
 0001:000491d0       ??0PxQuat@physx@@QEAA@AEBV01@@Z 000000018004a1d0 f i CuSolver.obj
 0001:00049250       ??0PxTransform@physx@@QEAA@AEBV01@@Z 000000018004a250 f i CuSolver.obj
 0001:000492c0       ??0PxVec4@physx@@QEAA@AEBVPxVec3@1@M@Z 000000018004a2c0 f i CuSolver.obj
 0001:00049340       ??0Simd4fLoadFactory@cloth@nv@@QEAA@PEBM@Z 000000018004a340 f i CuSolver.obj
 0001:00049370       ??0Simd4iTupleFactory@cloth@nv@@QEAA@HHHH@Z 000000018004a370 f i CuSolver.obj
 0001:00049400       ??0Solver@cloth@nv@@IEAA@XZ 000000018004a400 f i CuSolver.obj
 0001:00049430       ??0SwInterCollisionData@cloth@nv@@QEAA@AEBU012@@Z 000000018004a430 f i CuSolver.obj
 0001:00049550       ??0SwInterCollisionData@cloth@nv@@QEAA@PEAVPxVec4@physx@@0IPEAIAEBVPxTransform@4@AEBVPxVec3@4@3MPEAX@Z 000000018004a550 f i CuSolver.obj
 0001:00049650       ??0SwInterCollisionData@cloth@nv@@QEAA@XZ 000000018004a650 f i CuSolver.obj
 0001:000496d0       ??1?$Array@PEAVCuCloth@cloth@nv@@VNonTrackingAllocator@23@@shdfnd@physx@@QEAA@XZ 000000018004a6d0 f i CuSolver.obj
 0001:00049770       ??1?$Array@UCuClothData@cloth@nv@@V?$CuHostAllocator@UCuClothData@cloth@nv@@$03@23@@shdfnd@physx@@QEAA@XZ 000000018004a770 f i CuSolver.obj
 0001:00049810       ??1?$Array@UCuFrameData@cloth@nv@@V?$CuHostAllocator@UCuFrameData@cloth@nv@@$01@23@@shdfnd@physx@@QEAA@XZ 000000018004a810 f i CuSolver.obj
 0001:000498b0       ??1?$Array@UCuIterationData@cloth@nv@@V?$CuHostAllocator@UCuIterationData@cloth@nv@@$01@23@@shdfnd@physx@@QEAA@XZ 000000018004a8b0 f i CuSolver.obj
 0001:00049950       ??1?$Array@USwInterCollisionData@cloth@nv@@VNonTrackingAllocator@23@@shdfnd@physx@@QEAA@XZ 000000018004a950 f i CuSolver.obj
 0001:000499f0       ??1?$CuDeviceVector@UCuClothData@cloth@nv@@@cloth@nv@@QEAA@XZ 000000018004a9f0 f i CuSolver.obj
 0001:00049a60       ??1?$CuHostVectorImpl@UCuClothData@cloth@nv@@$03@cloth@nv@@QEAA@XZ 000000018004aa60 f i CuSolver.obj
 0001:00049aa0       ??1?$CuHostVectorImpl@UCuFrameData@cloth@nv@@$01@cloth@nv@@QEAA@XZ 000000018004aaa0 f i CuSolver.obj
 0001:00049ae0       ??1?$CuHostVectorImpl@UCuIterationData@cloth@nv@@$01@cloth@nv@@QEAA@XZ 000000018004aae0 f i CuSolver.obj
 0001:00049b20       ??1?$StackAllocator@$0BA@@cloth@nv@@QEAA@XZ 000000018004ab20 f i CuSolver.obj
 0001:00049bc0       ??1Solver@cloth@nv@@UEAA@XZ 000000018004abc0 f i CuSolver.obj
 0001:00049be0       ??A?$Array@PEAVCuCloth@cloth@nv@@VNonTrackingAllocator@23@@shdfnd@physx@@QEAAAEAPEAVCuCloth@cloth@nv@@I@Z 000000018004abe0 f i CuSolver.obj
 0001:00049ca0       ??A?$Array@PEAVCuCloth@cloth@nv@@VNonTrackingAllocator@23@@shdfnd@physx@@QEBAAEBQEAVCuCloth@cloth@nv@@I@Z 000000018004aca0 f i CuSolver.obj
 0001:00049d60       ??A?$Array@UCuFrameData@cloth@nv@@V?$CuHostAllocator@UCuFrameData@cloth@nv@@$01@23@@shdfnd@physx@@QEAAAEAUCuFrameData@cloth@nv@@I@Z 000000018004ad60 f i CuSolver.obj
 0001:00049e20       ??A?$Array@USwInterCollisionData@cloth@nv@@VNonTrackingAllocator@23@@shdfnd@physx@@QEAAAEAUSwInterCollisionData@cloth@nv@@I@Z 000000018004ae20 f i CuSolver.obj
 0001:00049ee0       ??APxMat33@physx@@QEAAAEAVPxVec3@1@I@Z 000000018004aee0 f i CuSolver.obj
 0001:00049f10       ??APxMat44@physx@@QEAAAEAVPxVec4@1@I@Z 000000018004af10 f i CuSolver.obj
 0001:00049f40       ??APxMat44@physx@@QEBAAEBVPxVec4@1@I@Z 000000018004af40 f i CuSolver.obj
 0001:00049f70       ??APxVec3@physx@@QEAAAEAMI@Z 000000018004af70 f i CuSolver.obj
 0001:0004a020       ??APxVec4@physx@@QEAAAEAMI@Z 000000018004b020 f i CuSolver.obj
 0001:0004a0d0       ??BSimd4fLoadFactory@cloth@nv@@QEBA?AT__m128@@XZ 000000018004b0d0 f i CuSolver.obj
 0001:0004a130       ??BSimd4fZeroFactory@cloth@nv@@QEBA?AT__m128@@XZ 000000018004b130 f i CuSolver.obj
 0001:0004a190       ??DPxQuat@physx@@QEBA?AV01@AEBV01@@Z 000000018004b190 f i CuSolver.obj
 0001:0004a3c0       ??DPxVec3@physx@@QEBA?AV01@M@Z 000000018004b3c0 f i CuSolver.obj
 0001:0004a470       ??G?$CuDevicePointer@UCuClothData@cloth@nv@@@cloth@nv@@QEBA_JAEBV012@@Z 000000018004b470 f i CuSolver.obj
 0001:0004a4b0       ??H?$CuDevicePointer@UCuClothData@cloth@nv@@@cloth@nv@@QEBA?AV012@AEB_J@Z 000000018004b4b0 f i CuSolver.obj
 0001:0004a520       ??Icloth@nv@@YA?AT__m128@@AEBT2@0@Z 000000018004b520 f i CuSolver.obj
 0001:0004a580       ??RPxMat33@physx@@QEAAAEAMII@Z 000000018004b580 f i CuSolver.obj
 0001:0004a5e0       ??RPxMat44@physx@@QEAAAEAMII@Z 000000018004b5e0 f i CuSolver.obj
 0001:0004a640       ??_ECuSolver@cloth@nv@@UEAAPEAXI@Z 000000018004b640 f i CuSolver.obj
 0001:0004a640       ??_GCuSolver@cloth@nv@@UEAAPEAXI@Z 000000018004b640 f i CuSolver.obj
 0001:0004a6d0       ??_GSolver@cloth@nv@@UEAAPEAXI@Z 000000018004b6d0 f i CuSolver.obj
 0001:0004a6d0       ??_ESolver@cloth@nv@@UEAAPEAXI@Z 000000018004b6d0 f i CuSolver.obj
 0001:0004a760       ?PxAsin@physx@@YAMM@Z      000000018004b760 f i CuSolver.obj
 0001:0004a7b0       ?PxCos@physx@@YAMM@Z       000000018004b7b0 f i CuSolver.obj
 0001:0004a7f0       ?PxSin@physx@@YAMM@Z       000000018004b7f0 f i CuSolver.obj
 0001:0004a830       ?PxSqrt@physx@@YAMM@Z      000000018004b830 f i CuSolver.obj
 0001:0004a870       ?allocate@?$Array@PEAVCuCloth@cloth@nv@@VNonTrackingAllocator@23@@shdfnd@physx@@IEAAPEAPEAVCuCloth@cloth@nv@@I@Z 000000018004b870 f i CuSolver.obj
 0001:0004a940       ?allocate@?$Array@UCuClothData@cloth@nv@@V?$CuHostAllocator@UCuClothData@cloth@nv@@$03@23@@shdfnd@physx@@IEAAPEAUCuClothData@cloth@nv@@I@Z 000000018004b940 f i CuSolver.obj
 0001:0004aa10       ?allocate@?$Array@UCuFrameData@cloth@nv@@V?$CuHostAllocator@UCuFrameData@cloth@nv@@$01@23@@shdfnd@physx@@IEAAPEAUCuFrameData@cloth@nv@@I@Z 000000018004ba10 f i CuSolver.obj
 0001:0004aae0       ?allocate@?$Array@UCuIterationData@cloth@nv@@V?$CuHostAllocator@UCuIterationData@cloth@nv@@$01@23@@shdfnd@physx@@IEAAPEAUCuIterationData@cloth@nv@@I@Z 000000018004bae0 f i CuSolver.obj
 0001:0004abb0       ?allocate@?$Array@USwInterCollisionData@cloth@nv@@VNonTrackingAllocator@23@@shdfnd@physx@@IEAAPEAUSwInterCollisionData@cloth@nv@@I@Z 000000018004bbb0 f i CuSolver.obj
 0001:0004ad10       ?allocate@?$CuHostAllocator@UCuClothData@cloth@nv@@$03@cloth@nv@@QEAAPEAUCuClothData@23@_KPEBDH@Z 000000018004bd10 f i CuSolver.obj
 0001:0004ae00       ?allocate@?$CuHostAllocator@UCuFrameData@cloth@nv@@$01@cloth@nv@@QEAAPEAUCuFrameData@23@_KPEBDH@Z 000000018004be00 f i CuSolver.obj
 0001:0004aef0       ?allocate@?$CuHostAllocator@UCuIterationData@cloth@nv@@$01@cloth@nv@@QEAAPEAUCuIterationData@23@_KPEBDH@Z 000000018004bef0 f i CuSolver.obj
 0001:0004afe0       ?array@cloth@nv@@YAAEAY02$$CBMAEBVPxVec3@physx@@@Z 000000018004bfe0 f i CuSolver.obj
 0001:0004aff0       ?array@cloth@nv@@YAAEAY03$$CBMAEBVPxVec4@physx@@@Z 000000018004bff0 f i CuSolver.obj
 0001:0004b000       ?average@MovingAverage@cloth@nv@@QEBAMXZ 000000018004c000 f i CuSolver.obj
 0001:0004b480       ?begin@?$Array@PEAVCuCloth@cloth@nv@@VNonTrackingAllocator@23@@shdfnd@physx@@QEAAPEAPEAVCuCloth@cloth@nv@@XZ 000000018004c480 f i CuSolver.obj
 0001:0004b4a0       ?begin@?$Array@UCuClothData@cloth@nv@@V?$CuHostAllocator@UCuClothData@cloth@nv@@$03@23@@shdfnd@physx@@QEAAPEAUCuClothData@cloth@nv@@XZ 000000018004c4a0 f i CuSolver.obj
 0001:0004b4c0       ?begin@?$Array@UCuFrameData@cloth@nv@@V?$CuHostAllocator@UCuFrameData@cloth@nv@@$01@23@@shdfnd@physx@@QEAAPEAUCuFrameData@cloth@nv@@XZ 000000018004c4c0 f i CuSolver.obj
 0001:0004b4e0       ?begin@?$Array@USwInterCollisionData@cloth@nv@@VNonTrackingAllocator@23@@shdfnd@physx@@QEAAPEAUSwInterCollisionData@cloth@nv@@XZ 000000018004c4e0 f i CuSolver.obj
 0001:0004b500       ?begin@?$CuDeviceVector@UCuClothData@cloth@nv@@@cloth@nv@@QEAA?AV?$CuDevicePointer@UCuClothData@cloth@nv@@@23@XZ 000000018004c500 f i CuSolver.obj
 0001:0004b560       ?begin@?$Range@PEAVCloth@cloth@nv@@@cloth@nv@@QEBAPEAPEAVCloth@23@XZ 000000018004c560 f i CuSolver.obj
 0001:0004b580       ?capacity@?$Array@PEAVCuCloth@cloth@nv@@VNonTrackingAllocator@23@@shdfnd@physx@@QEBAIXZ 000000018004c580 f i CuSolver.obj
 0001:0004b5a0       ?capacity@?$Array@UCuClothData@cloth@nv@@V?$CuHostAllocator@UCuClothData@cloth@nv@@$03@23@@shdfnd@physx@@QEBAIXZ 000000018004c5a0 f i CuSolver.obj
 0001:0004b5c0       ?capacity@?$Array@UCuFrameData@cloth@nv@@V?$CuHostAllocator@UCuFrameData@cloth@nv@@$01@23@@shdfnd@physx@@QEBAIXZ 000000018004c5c0 f i CuSolver.obj
 0001:0004b5e0       ?capacity@?$Array@UCuIterationData@cloth@nv@@V?$CuHostAllocator@UCuIterationData@cloth@nv@@$01@23@@shdfnd@physx@@QEBAIXZ 000000018004c5e0 f i CuSolver.obj
 0001:0004b600       ?capacity@?$Array@USwInterCollisionData@cloth@nv@@VNonTrackingAllocator@23@@shdfnd@physx@@QEBAIXZ 000000018004c600 f i CuSolver.obj
 0001:0004b620       ?capacity@?$CuDeviceVector@UCuClothData@cloth@nv@@@cloth@nv@@QEBA_KXZ 000000018004c620 f i CuSolver.obj
 0001:0004b670       ?capacityIncrement@?$Array@PEAVCuCloth@cloth@nv@@VNonTrackingAllocator@23@@shdfnd@physx@@IEBAIXZ 000000018004c670 f i CuSolver.obj
 0001:0004b6e0       ?capacityIncrement@?$Array@UCuFrameData@cloth@nv@@V?$CuHostAllocator@UCuFrameData@cloth@nv@@$01@23@@shdfnd@physx@@IEBAIXZ 000000018004c6e0 f i CuSolver.obj
 0001:0004b750       ?capacityIncrement@?$Array@UCuIterationData@cloth@nv@@V?$CuHostAllocator@UCuIterationData@cloth@nv@@$01@23@@shdfnd@physx@@IEBAIXZ 000000018004c750 f i CuSolver.obj
 0001:0004b7c0       ?capacityIncrement@?$Array@USwInterCollisionData@cloth@nv@@VNonTrackingAllocator@23@@shdfnd@physx@@IEBAIXZ 000000018004c7c0 f i CuSolver.obj
 0001:0004b830       ?copy@?$Array@PEAVCuCloth@cloth@nv@@VNonTrackingAllocator@23@@shdfnd@physx@@KAXPEAPEAVCuCloth@cloth@nv@@0PEBQEAV456@@Z 000000018004c830 f i CuSolver.obj
 0001:0004b910       ?copy@?$Array@UCuClothData@cloth@nv@@V?$CuHostAllocator@UCuClothData@cloth@nv@@$03@23@@shdfnd@physx@@KAXPEAUCuClothData@cloth@nv@@0PEBU456@@Z 000000018004c910 f i CuSolver.obj
 0001:0004b9f0       ?copy@?$Array@UCuFrameData@cloth@nv@@V?$CuHostAllocator@UCuFrameData@cloth@nv@@$01@23@@shdfnd@physx@@KAXPEAUCuFrameData@cloth@nv@@0PEBU456@@Z 000000018004c9f0 f i CuSolver.obj
 0001:0004bad0       ?copy@?$Array@UCuIterationData@cloth@nv@@V?$CuHostAllocator@UCuIterationData@cloth@nv@@$01@23@@shdfnd@physx@@KAXPEAUCuIterationData@cloth@nv@@0PEBU456@@Z 000000018004cad0 f i CuSolver.obj
 0001:0004bbb0       ?copy@?$Array@USwInterCollisionData@cloth@nv@@VNonTrackingAllocator@23@@shdfnd@physx@@KAXPEAUSwInterCollisionData@cloth@nv@@0PEBU456@@Z 000000018004cbb0 f i CuSolver.obj
 0001:0004bc80       ?cos@intrinsics@physx@@YAMM@Z 000000018004cc80 f i CuSolver.obj
 0001:0004bcc0       ?create@?$Array@UCuClothData@cloth@nv@@V?$CuHostAllocator@UCuClothData@cloth@nv@@$03@23@@shdfnd@physx@@KAXPEAUCuClothData@cloth@nv@@0AEBU456@@Z 000000018004ccc0 f i CuSolver.obj
 0001:0004bd80       ?create@?$Array@UCuFrameData@cloth@nv@@V?$CuHostAllocator@UCuFrameData@cloth@nv@@$01@23@@shdfnd@physx@@KAXPEAUCuFrameData@cloth@nv@@0AEBU456@@Z 000000018004cd80 f i CuSolver.obj
 0001:0004be40       ?create@?$Array@UCuIterationData@cloth@nv@@V?$CuHostAllocator@UCuIterationData@cloth@nv@@$01@23@@shdfnd@physx@@KAXPEAUCuIterationData@cloth@nv@@0AEBU456@@Z 000000018004ce40 f i CuSolver.obj
 0001:0004bf00       ?create@?$Array@USwInterCollisionData@cloth@nv@@VNonTrackingAllocator@23@@shdfnd@physx@@KAXPEAUSwInterCollisionData@cloth@nv@@0AEBU456@@Z 000000018004cf00 f i CuSolver.obj
 0001:0004bfb0       ?deallocate@?$Array@PEAVCuCloth@cloth@nv@@VNonTrackingAllocator@23@@shdfnd@physx@@IEAAXPEAX@Z 000000018004cfb0 f i CuSolver.obj
 0001:0004c000       ?deallocate@?$Array@UCuClothData@cloth@nv@@V?$CuHostAllocator@UCuClothData@cloth@nv@@$03@23@@shdfnd@physx@@IEAAXPEAX@Z 000000018004d000 f i CuSolver.obj
 0001:0004c050       ?deallocate@?$Array@UCuFrameData@cloth@nv@@V?$CuHostAllocator@UCuFrameData@cloth@nv@@$01@23@@shdfnd@physx@@IEAAXPEAX@Z 000000018004d050 f i CuSolver.obj
 0001:0004c0a0       ?deallocate@?$Array@UCuIterationData@cloth@nv@@V?$CuHostAllocator@UCuIterationData@cloth@nv@@$01@23@@shdfnd@physx@@IEAAXPEAX@Z 000000018004d0a0 f i CuSolver.obj
 0001:0004c0f0       ?deallocate@?$Array@USwInterCollisionData@cloth@nv@@VNonTrackingAllocator@23@@shdfnd@physx@@IEAAXPEAX@Z 000000018004d0f0 f i CuSolver.obj
 0001:0004c1a0       ?deallocate@?$CuHostAllocator@UCuClothData@cloth@nv@@$03@cloth@nv@@QEAAXPEAX@Z 000000018004d1a0 f i CuSolver.obj
 0001:0004c200       ?deallocate@?$CuHostAllocator@UCuFrameData@cloth@nv@@$01@cloth@nv@@QEAAXPEAX@Z 000000018004d200 f i CuSolver.obj
 0001:0004c260       ?deallocate@?$CuHostAllocator@UCuIterationData@cloth@nv@@$01@cloth@nv@@QEAAXPEAX@Z 000000018004d260 f i CuSolver.obj
 0001:0004c2c0       ?destroy@?$Array@PEAVCuCloth@cloth@nv@@VNonTrackingAllocator@23@@shdfnd@physx@@KAXPEAPEAVCuCloth@cloth@nv@@0@Z 000000018004d2c0 f i CuSolver.obj
 0001:0004c300       ?destroy@?$Array@UCuClothData@cloth@nv@@V?$CuHostAllocator@UCuClothData@cloth@nv@@$03@23@@shdfnd@physx@@KAXPEAUCuClothData@cloth@nv@@0@Z 000000018004d300 f i CuSolver.obj
 0001:0004c340       ?destroy@?$Array@UCuFrameData@cloth@nv@@V?$CuHostAllocator@UCuFrameData@cloth@nv@@$01@23@@shdfnd@physx@@KAXPEAUCuFrameData@cloth@nv@@0@Z 000000018004d340 f i CuSolver.obj
 0001:0004c380       ?destroy@?$Array@UCuIterationData@cloth@nv@@V?$CuHostAllocator@UCuIterationData@cloth@nv@@$01@23@@shdfnd@physx@@KAXPEAUCuIterationData@cloth@nv@@0@Z 000000018004d380 f i CuSolver.obj
 0001:0004c3c0       ?destroy@?$Array@USwInterCollisionData@cloth@nv@@VNonTrackingAllocator@23@@shdfnd@physx@@KAXPEAUSwInterCollisionData@cloth@nv@@0@Z 000000018004d3c0 f i CuSolver.obj
 0001:0004c400       ?dev@?$CuDevicePointer@UCuClothData@cloth@nv@@@cloth@nv@@QEBA_KXZ 000000018004d400 f i CuSolver.obj
 0001:0004c420       ?dot3@cloth@nv@@YA?AT__m128@@AEBT3@0@Z 000000018004d420 f i CuSolver.obj
 0001:0004c540       ?empty@?$Array@PEAVCuCloth@cloth@nv@@VNonTrackingAllocator@23@@shdfnd@physx@@QEBA_NXZ 000000018004d540 f i CuSolver.obj
 0001:0004c5a0       ?empty@?$Array@UCuFrameData@cloth@nv@@V?$CuHostAllocator@UCuFrameData@cloth@nv@@$01@23@@shdfnd@physx@@QEBA_NXZ 000000018004d5a0 f i CuSolver.obj
 0001:0004c600       ?empty@?$Array@UCuIterationData@cloth@nv@@V?$CuHostAllocator@UCuIterationData@cloth@nv@@$01@23@@shdfnd@physx@@QEBA_NXZ 000000018004d600 f i CuSolver.obj
 0001:0004c660       ?empty@MovingAverage@cloth@nv@@QEBA_NXZ 000000018004d660 f i CuSolver.obj
 0001:0004c6c0       ?end@?$Array@PEAVCuCloth@cloth@nv@@VNonTrackingAllocator@23@@shdfnd@physx@@QEAAPEAPEAVCuCloth@cloth@nv@@XZ 000000018004d6c0 f i CuSolver.obj
 0001:0004c6f0       ?end@?$Array@UCuFrameData@cloth@nv@@V?$CuHostAllocator@UCuFrameData@cloth@nv@@$01@23@@shdfnd@physx@@QEAAPEAUCuFrameData@cloth@nv@@XZ 000000018004d6f0 f i CuSolver.obj
 0001:0004c720       ?exp@cloth@nv@@YA?AVPxQuat@physx@@AEBVPxVec3@4@@Z 000000018004d720 f i CuSolver.obj
 0001:0004c840       ?find@?$Array@PEAVCuCloth@cloth@nv@@VNonTrackingAllocator@23@@shdfnd@physx@@QEAAPEAPEAVCuCloth@cloth@nv@@AEBQEAV456@@Z 000000018004d840 f i CuSolver.obj
 0001:0004c8d0       ?front@?$Array@UCuIterationData@cloth@nv@@V?$CuHostAllocator@UCuIterationData@cloth@nv@@$01@23@@shdfnd@physx@@QEAAAEAUCuIterationData@cloth@nv@@XZ 000000018004d8d0 f i CuSolver.obj
 0001:0004c980       ?fsel@intrinsics@physx@@YAMMMM@Z 000000018004d980 f i CuSolver.obj
 0001:0004ca00       ?get@?$CuDevicePointer@UCuClothData@cloth@nv@@@cloth@nv@@QEBAPEAUCuClothData@23@XZ 000000018004da00 f i CuSolver.obj
 0001:0004ca20       ?getAllocator@?$Array@UCuFrameData@cloth@nv@@V?$CuHostAllocator@UCuFrameData@cloth@nv@@$01@23@@shdfnd@physx@@QEAAAEAV?$CuHostAllocator@UCuFrameData@cloth@nv@@$01@cloth@nv@@XZ 000000018004da20 f i CuSolver.obj
 0001:0004ca30       ?getAllocator@?$Array@UCuIterationData@cloth@nv@@V?$CuHostAllocator@UCuIterationData@cloth@nv@@$01@23@@shdfnd@physx@@QEAAAEAV?$CuHostAllocator@UCuIterationData@cloth@nv@@$01@cloth@nv@@XZ 000000018004da30 f i CuSolver.obj
 0001:0004ca40       ?getConjugate@PxQuat@physx@@QEBA?AV12@XZ 000000018004da40 f i CuSolver.obj
 0001:0004cb00       ?getImaginaryPart@PxQuat@physx@@QEBA?AVPxVec3@2@XZ 000000018004db00 f i CuSolver.obj
 0001:0004cb70       ?getInterCollisionDistance@CuSolver@cloth@nv@@UEBAMXZ 000000018004db70 f i CuSolver.obj
 0001:0004cbb0       ?getInterCollisionNbIterations@CuSolver@cloth@nv@@UEBAIXZ 000000018004dbb0 f i CuSolver.obj
 0001:0004cbd0       ?getInterCollisionStiffness@CuSolver@cloth@nv@@UEBAMXZ 000000018004dbd0 f i CuSolver.obj
 0001:0004cc10       ?grow@?$Array@UCuClothData@cloth@nv@@V?$CuHostAllocator@UCuClothData@cloth@nv@@$03@23@@shdfnd@physx@@IEAAXI@Z 000000018004dc10 f i CuSolver.obj
 0001:0004ccd0       ?grow@?$Array@UCuFrameData@cloth@nv@@V?$CuHostAllocator@UCuFrameData@cloth@nv@@$01@23@@shdfnd@physx@@IEAAXI@Z 000000018004dcd0 f i CuSolver.obj
 0001:0004cd90       ?grow@?$Array@UCuIterationData@cloth@nv@@V?$CuHostAllocator@UCuIterationData@cloth@nv@@$01@23@@shdfnd@physx@@IEAAXI@Z 000000018004dd90 f i CuSolver.obj
 0001:0004ce50       ?grow@?$Array@USwInterCollisionData@cloth@nv@@VNonTrackingAllocator@23@@shdfnd@physx@@IEAAXI@Z 000000018004de50 f i CuSolver.obj
 0001:0004cf10       ?growAndPushBack@?$Array@PEAVCuCloth@cloth@nv@@VNonTrackingAllocator@23@@shdfnd@physx@@IEAAAEAPEAVCuCloth@cloth@nv@@AEBQEAV456@@Z 000000018004df10 f i CuSolver.obj
 0001:0004d130       ?growAndPushBack@?$Array@UCuFrameData@cloth@nv@@V?$CuHostAllocator@UCuFrameData@cloth@nv@@$01@23@@shdfnd@physx@@IEAAAEAUCuFrameData@cloth@nv@@AEBU456@@Z 000000018004e130 f i CuSolver.obj
 0001:0004d3d0       ?growAndPushBack@?$Array@UCuIterationData@cloth@nv@@V?$CuHostAllocator@UCuIterationData@cloth@nv@@$01@23@@shdfnd@physx@@IEAAAEAUCuIterationData@cloth@nv@@AEBU456@@Z 000000018004e3d0 f i CuSolver.obj
 0001:0004d660       ?growAndPushBack@?$Array@USwInterCollisionData@cloth@nv@@VNonTrackingAllocator@23@@shdfnd@physx@@IEAAAEAUSwInterCollisionData@cloth@nv@@AEBU456@@Z 000000018004e660 f i CuSolver.obj
 0001:0004d890       ?hasError@CuSolver@cloth@nv@@UEBA_NXZ 000000018004e890 f i CuSolver.obj
 0001:0004d8b0       ?isInUserMemory@?$Array@PEAVCuCloth@cloth@nv@@VNonTrackingAllocator@23@@shdfnd@physx@@QEBAIXZ 000000018004e8b0 f i CuSolver.obj
 0001:0004d8d0       ?isInUserMemory@?$Array@UCuClothData@cloth@nv@@V?$CuHostAllocator@UCuClothData@cloth@nv@@$03@23@@shdfnd@physx@@QEBAIXZ 000000018004e8d0 f i CuSolver.obj
 0001:0004d8f0       ?isInUserMemory@?$Array@UCuFrameData@cloth@nv@@V?$CuHostAllocator@UCuFrameData@cloth@nv@@$01@23@@shdfnd@physx@@QEBAIXZ 000000018004e8f0 f i CuSolver.obj
 0001:0004d910       ?isInUserMemory@?$Array@UCuIterationData@cloth@nv@@V?$CuHostAllocator@UCuIterationData@cloth@nv@@$01@23@@shdfnd@physx@@QEBAIXZ 000000018004e910 f i CuSolver.obj
 0001:0004d930       ?isInUserMemory@?$Array@USwInterCollisionData@cloth@nv@@VNonTrackingAllocator@23@@shdfnd@physx@@QEBAIXZ 000000018004e930 f i CuSolver.obj
 0001:0004d950       ?load@cloth@nv@@YA?AUSimd4fLoadFactory@12@PEBM@Z 000000018004e950 f i CuSolver.obj
 0001:0004d9a0       ?log@cloth@nv@@YA?AVPxVec3@physx@@AEBVPxQuat@4@@Z 000000018004e9a0 f i CuSolver.obj
 0001:0004daf0       ?magnitude@PxVec3@physx@@QEBAMXZ 000000018004eaf0 f i CuSolver.obj
 0001:0004db30       ?push@MovingAverage@cloth@nv@@QEAAXIM@Z 000000018004eb30 f i CuSolver.obj
 0001:0004dda0       ?pushBack@?$Array@PEAVCuCloth@cloth@nv@@VNonTrackingAllocator@23@@shdfnd@physx@@QEAAAEAPEAVCuCloth@cloth@nv@@AEBQEAV456@@Z 000000018004eda0 f i CuSolver.obj
 0001:0004deb0       ?pushBack@?$Array@UCuFrameData@cloth@nv@@V?$CuHostAllocator@UCuFrameData@cloth@nv@@$01@23@@shdfnd@physx@@QEAAAEAUCuFrameData@cloth@nv@@AEBU456@@Z 000000018004eeb0 f i CuSolver.obj
 0001:0004dfd0       ?pushBack@?$Array@UCuIterationData@cloth@nv@@V?$CuHostAllocator@UCuIterationData@cloth@nv@@$01@23@@shdfnd@physx@@QEAAAEAUCuIterationData@cloth@nv@@AEBU456@@Z 000000018004efd0 f i CuSolver.obj
 0001:0004e0e0       ?pushBack@?$Array@USwInterCollisionData@cloth@nv@@VNonTrackingAllocator@23@@shdfnd@physx@@QEAAAEAUSwInterCollisionData@cloth@nv@@AEBU456@@Z 000000018004f0e0 f i CuSolver.obj
 0001:0004e1e0       ?recreate@?$Array@UCuClothData@cloth@nv@@V?$CuHostAllocator@UCuClothData@cloth@nv@@$03@23@@shdfnd@physx@@IEAAXI@Z 000000018004f1e0 f i CuSolver.obj
 0001:0004e370       ?recreate@?$Array@UCuFrameData@cloth@nv@@V?$CuHostAllocator@UCuFrameData@cloth@nv@@$01@23@@shdfnd@physx@@IEAAXI@Z 000000018004f370 f i CuSolver.obj
 0001:0004e500       ?recreate@?$Array@UCuIterationData@cloth@nv@@V?$CuHostAllocator@UCuIterationData@cloth@nv@@$01@23@@shdfnd@physx@@IEAAXI@Z 000000018004f500 f i CuSolver.obj
 0001:0004e680       ?recreate@?$Array@USwInterCollisionData@cloth@nv@@VNonTrackingAllocator@23@@shdfnd@physx@@IEAAXI@Z 000000018004f680 f i CuSolver.obj
 0001:0004e800       ?remove@?$Array@PEAVCuCloth@cloth@nv@@VNonTrackingAllocator@23@@shdfnd@physx@@QEAAXI@Z 000000018004f800 f i CuSolver.obj
 0001:0004e960       ?remove@?$Array@UCuClothData@cloth@nv@@V?$CuHostAllocator@UCuClothData@cloth@nv@@$03@23@@shdfnd@physx@@QEAAXI@Z 000000018004f960 f i CuSolver.obj
 0001:0004eae0       ?reserve@?$Array@UCuClothData@cloth@nv@@V?$CuHostAllocator@UCuClothData@cloth@nv@@$03@23@@shdfnd@physx@@QEAAXI@Z 000000018004fae0 f i CuSolver.obj
 0001:0004eb40       ?reserve@?$Array@UCuFrameData@cloth@nv@@V?$CuHostAllocator@UCuFrameData@cloth@nv@@$01@23@@shdfnd@physx@@QEAAXI@Z 000000018004fb40 f i CuSolver.obj
 0001:0004eba0       ?reserve@?$Array@UCuIterationData@cloth@nv@@V?$CuHostAllocator@UCuIterationData@cloth@nv@@$01@23@@shdfnd@physx@@QEAAXI@Z 000000018004fba0 f i CuSolver.obj
 0001:0004ec00       ?reserve@?$Array@USwInterCollisionData@cloth@nv@@VNonTrackingAllocator@23@@shdfnd@physx@@QEAAXI@Z 000000018004fc00 f i CuSolver.obj
 0001:0004ec60       ?reserve@?$CuDeviceVector@UCuClothData@cloth@nv@@@cloth@nv@@QEAAX_K@Z 000000018004fc60 f i CuSolver.obj
 0001:0004ee50       ?resize@?$Array@UCuClothData@cloth@nv@@V?$CuHostAllocator@UCuClothData@cloth@nv@@$03@23@@shdfnd@physx@@QEAAXIAEBUCuClothData@cloth@nv@@@Z 000000018004fe50 f i CuSolver.obj
 0001:0004ef40       ?resize@?$Array@UCuFrameData@cloth@nv@@V?$CuHostAllocator@UCuFrameData@cloth@nv@@$01@23@@shdfnd@physx@@QEAAXIAEBUCuFrameData@cloth@nv@@@Z 000000018004ff40 f i CuSolver.obj
 0001:0004f030       ?resize@?$Array@UCuIterationData@cloth@nv@@V?$CuHostAllocator@UCuIterationData@cloth@nv@@$01@23@@shdfnd@physx@@QEAAXIAEBUCuIterationData@cloth@nv@@@Z 0000000180050030 f i CuSolver.obj
 0001:0004f110       ?resize@?$Array@USwInterCollisionData@cloth@nv@@VNonTrackingAllocator@23@@shdfnd@physx@@QEAAXIAEBUSwInterCollisionData@cloth@nv@@@Z 0000000180050110 f i CuSolver.obj
 0001:0004f1e0       ?resize@?$CuDeviceVector@UCuClothData@cloth@nv@@@cloth@nv@@QEAAX_K@Z 00000001800501e0 f i CuSolver.obj
 0001:0004f2a0       ?rotate@PxMat44@physx@@QEBA?BVPxVec3@2@AEBV32@@Z 00000001800502a0 f i CuSolver.obj
 0001:0004f330       ?rotate@PxMat44@physx@@QEBA?BVPxVec4@2@AEBV32@@Z 0000000180050330 f i CuSolver.obj
 0001:0004f440       ?rsqrt@cloth@nv@@YA?AT__m128@@AEBT3@@Z 0000000180050440 f i CuSolver.obj
 0001:0004f490       ?select@cloth@nv@@YA?AT__m128@@AEBT3@00@Z 0000000180050490 f i CuSolver.obj
 0001:0004f520       ?setInterCollisionDistance@CuSolver@cloth@nv@@UEAAXM@Z 0000000180050520 f i CuSolver.obj
 0001:0004f550       ?setInterCollisionFilter@CuSolver@cloth@nv@@UEAAXP6A_NPEAX0@Z@Z 0000000180050550 f i CuSolver.obj
 0001:0004f580       ?setInterCollisionNbIterations@CuSolver@cloth@nv@@UEAAXI@Z 0000000180050580 f i CuSolver.obj
 0001:0004f5b0       ?setInterCollisionStiffness@CuSolver@cloth@nv@@UEAAXM@Z 00000001800505b0 f i CuSolver.obj
 0001:0004f5e0       ?simd4f@cloth@nv@@YA?AUSimd4fTupleFactory@12@AEBUSimd4iTupleFactory@12@@Z 00000001800505e0 f i CuSolver.obj
 0001:0004f610       ?simd4i@cloth@nv@@YA?AUSimd4iTupleFactory@12@HHHH@Z 0000000180050610 f i CuSolver.obj
 0001:0004f680       ?sin@intrinsics@physx@@YAMM@Z 0000000180050680 f i CuSolver.obj
 0001:0004f6c0       ?size@?$Array@PEAVCuCloth@cloth@nv@@VNonTrackingAllocator@23@@shdfnd@physx@@QEBAIXZ 00000001800506c0 f i CuSolver.obj
 0001:0004f6e0       ?size@?$Array@UCuClothData@cloth@nv@@V?$CuHostAllocator@UCuClothData@cloth@nv@@$03@23@@shdfnd@physx@@QEBAIXZ 00000001800506e0 f i CuSolver.obj
 0001:0004f700       ?size@?$Array@UCuIterationData@cloth@nv@@V?$CuHostAllocator@UCuIterationData@cloth@nv@@$01@23@@shdfnd@physx@@QEBAIXZ 0000000180050700 f i CuSolver.obj
 0001:0004f720       ?size@?$Array@USwInterCollisionData@cloth@nv@@VNonTrackingAllocator@23@@shdfnd@physx@@QEBAIXZ 0000000180050720 f i CuSolver.obj
 0001:0004f740       ?size@?$CuDeviceVector@UCuClothData@cloth@nv@@@cloth@nv@@QEBA_KXZ 0000000180050740 f i CuSolver.obj
 0001:0004f790       ?size@?$Range@PEAVCloth@cloth@nv@@@cloth@nv@@QEBAIXZ 0000000180050790 f i CuSolver.obj
 0001:0004f7c0       ?sqrt@intrinsics@physx@@YAMM@Z 00000001800507c0 f i CuSolver.obj
 0001:0004f800       ?star@shdfnd@physx@@YA?AVPxMat33@2@AEBVPxVec3@2@@Z 0000000180050800 f i CuSolver.obj
 0001:0004f910       ?swap@?$Array@VPxVec3@physx@@V?$CuHostAllocator@VPxVec3@physx@@$01@cloth@nv@@@shdfnd@physx@@QEAAXAEAV123@@Z 0000000180050910 f i CuSolver.obj
 0001:0004f9b0       ?swap@?$CuHostVectorImpl@VPxVec3@physx@@$01@cloth@nv@@QEAAXAEAV123@@Z 00000001800509b0 f i CuSolver.obj
 0001:0004fa90       ?update@?$IterationState@T__m128@@@cloth@nv@@QEAAXXZ 0000000180050a90 f i CuSolver.obj
 0001:0004fd60       ?userBytes@?$StackAllocator@$0BA@@cloth@nv@@QEBA_KXZ 0000000180050d60 f i CuSolver.obj
 0001:0004fdf0       ??0DxCloth@cloth@nv@@QEAA@AEAVDxFactory@12@AEAVDxFabric@12@U?$Range@$$CBVPxVec4@physx@@@12@@Z 0000000180050df0 f   DxCloth.obj
 0001:000505b0       ??0DxCloth@cloth@nv@@QEAA@AEAVDxFactory@12@AEBV012@@Z 00000001800515b0 f   DxCloth.obj
 0001:00050a50       ??1DxCloth@cloth@nv@@UEAA@XZ 0000000180051a50 f   DxCloth.obj
 0001:00050ca0       ?getNumParticles@DxCloth@cloth@nv@@UEBAIXZ 0000000180051ca0 f   DxCloth.obj
 0001:00050cc0       ?lockParticles@DxCloth@cloth@nv@@UEBAXXZ 0000000180051cc0 f   DxCloth.obj
 0001:00050d00       ?unlockParticles@DxCloth@cloth@nv@@UEBAXXZ 0000000180051d00 f   DxCloth.obj
 0001:00050d40       ?getCurrentParticles@DxCloth@cloth@nv@@UEAA?AU?$MappedRange@VPxVec4@physx@@@23@XZ 0000000180051d40 f   DxCloth.obj
 0001:00050dc0       ?getCurrentParticles@DxCloth@cloth@nv@@UEBA?AU?$MappedRange@$$CBVPxVec4@physx@@@23@XZ 0000000180051dc0 f   DxCloth.obj
 0001:00050e30       ?getPreviousParticles@DxCloth@cloth@nv@@UEAA?AU?$MappedRange@VPxVec4@physx@@@23@XZ 0000000180051e30 f   DxCloth.obj
 0001:00050ec0       ?getPreviousParticles@DxCloth@cloth@nv@@UEBA?AU?$MappedRange@$$CBVPxVec4@physx@@@23@XZ 0000000180051ec0 f   DxCloth.obj
 0001:00050f50       ?getGpuParticles@DxCloth@cloth@nv@@UEAA?AUGpuParticles@23@XZ 0000000180051f50 f   DxCloth.obj
 0001:00051020       ?setPhaseConfig@DxCloth@cloth@nv@@UEAAXU?$Range@$$CBUPhaseConfig@cloth@nv@@@23@@Z 0000000180052020 f   DxCloth.obj
 0001:000511b0       ?setSelfCollisionIndices@DxCloth@cloth@nv@@UEAAXU?$Range@$$CBI@23@@Z 00000001800521b0 f   DxCloth.obj
 0001:000512a0       ?getNumVirtualParticles@DxCloth@cloth@nv@@UEBAIXZ 00000001800522a0 f   DxCloth.obj
 0001:000512e0       ?getParticleAccelerations@DxCloth@cloth@nv@@UEAA?AU?$Range@VPxVec4@physx@@@23@XZ 00000001800522e0 f   DxCloth.obj
 0001:00051450       ?clearParticleAccelerations@DxCloth@cloth@nv@@UEAAXXZ 0000000180052450 f   DxCloth.obj
 0001:00051520       ?setVirtualParticles@DxCloth@cloth@nv@@UEAAXU?$Range@$$BY03$$CBI@23@U?$Range@$$CBVPxVec3@physx@@@23@@Z 0000000180052520 f   DxCloth.obj
 0001:00051820       ?notifyChanged@DxCloth@cloth@nv@@QEAAXXZ 0000000180052820 f   DxCloth.obj
 0001:00051840       ?updateClothData@DxCloth@cloth@nv@@QEAA_NAEAUDxClothData@23@@Z 0000000180052840 f   DxCloth.obj
 0001:00051a60       ?getSharedMemorySize@DxCloth@cloth@nv@@QEBAIXZ 0000000180052a60 f   DxCloth.obj
 0001:00051ce0       ?setPhaseConfigInternal@DxCloth@cloth@nv@@QEAAXU?$Range@$$CBUPhaseConfig@cloth@nv@@@23@@Z 0000000180052ce0 f   DxCloth.obj
 0001:00051f40       ?push@DxCloth@cloth@nv@@QEAA?AU?$Range@VPxVec4@physx@@@23@AEAUDxConstraints@23@@Z 0000000180052f40 f   DxCloth.obj
 0001:00052160       ?clear@DxCloth@cloth@nv@@QEAAXAEAUDxConstraints@23@@Z 0000000180053160 f   DxCloth.obj
 0001:000521e0       ?mapParticles@DxCloth@cloth@nv@@QEAAXXZ 00000001800531e0 f   DxCloth.obj
 0001:00052300       ?unmapParticles@DxCloth@cloth@nv@@QEAAXXZ 0000000180053300 f   DxCloth.obj
 0001:000523b0       ?clampTriangleCount@DxCloth@cloth@nv@@QEAA?AU?$Range@$$CBVPxVec3@physx@@@23@U423@I@Z 00000001800533b0 f   DxCloth.obj
 0001:00053270       ??$?4VNonTrackingAllocator@cloth@nv@@@?$DxBatchedVector@I@cloth@nv@@QEAAAEAV012@AEBV?$Array@IVNonTrackingAllocator@cloth@nv@@@shdfnd@physx@@@Z 0000000180054270 f i DxCloth.obj
 0001:000532f0       ??$?4VNonTrackingAllocator@cloth@nv@@@?$DxBatchedVector@U?$Vec4T@G@cloth@nv@@@cloth@nv@@QEAAAEAV012@AEBV?$Array@U?$Vec4T@G@cloth@nv@@VNonTrackingAllocator@23@@shdfnd@physx@@@Z 00000001800542f0 f i DxCloth.obj
 0001:00053370       ??$?4VNonTrackingAllocator@cloth@nv@@@?$DxBatchedVector@VPxVec4@physx@@@cloth@nv@@QEAAAEAV012@AEBV?$Array@VPxVec4@physx@@VNonTrackingAllocator@cloth@nv@@@shdfnd@physx@@@Z 0000000180054370 f i DxCloth.obj
 0001:000533f0       ??$copy@VDxCloth@cloth@nv@@V123@@cloth@nv@@YAXAEAVDxCloth@01@AEBV201@@Z 00000001800543f0 f i DxCloth.obj
 0001:000538b0       ??$copy@VNonTrackingAllocator@cloth@nv@@@?$Array@VPxVec4@physx@@VNonTrackingAllocator@cloth@nv@@@shdfnd@physx@@IEAAXAEBV012@@Z 00000001800548b0 f i DxCloth.obj
 0001:000539b0       ??$getMappedParticles@$$CBVPxVec4@physx@@@?$ClothImpl@VDxCloth@cloth@nv@@@cloth@nv@@QEBA?AU?$MappedRange@$$CBVPxVec4@physx@@@12@PEBVPxVec4@physx@@@Z 00000001800549b0 f i DxCloth.obj
 0001:00053ae0       ??$getMappedParticles@VPxVec4@physx@@@?$ClothImpl@VDxCloth@cloth@nv@@@cloth@nv@@QEBA?AU?$MappedRange@VPxVec4@physx@@@12@PEAVPxVec4@physx@@@Z 0000000180054ae0 f i DxCloth.obj
 0001:00053c10       ??$initialize@VDxCloth@cloth@nv@@@cloth@nv@@YAXAEAVDxCloth@01@PEBVPxVec4@physx@@1@Z 0000000180054c10 f i DxCloth.obj
 0001:00054290       ??$swap@I@shdfnd@physx@@YAXAEAV?$DxBuffer@I@cloth@nv@@0@Z 0000000180055290 f i DxCloth.obj
 0001:00054390       ??$swap@PEAUID3D11Buffer@@@shdfnd@physx@@YAXAEAPEAUID3D11Buffer@@0@Z 0000000180055390 f i DxCloth.obj
 0001:00054400       ??$swap@PEAUID3D11ShaderResourceView@@@shdfnd@physx@@YAXAEAPEAUID3D11ShaderResourceView@@0@Z 0000000180055400 f i DxCloth.obj
 0001:00054470       ??$swap@PEAUID3D11UnorderedAccessView@@@shdfnd@physx@@YAXAEAPEAUID3D11UnorderedAccessView@@0@Z 0000000180055470 f i DxCloth.obj
 0001:000544e0       ??$swap@PEAVDxContextManagerCallback@cloth@nv@@@shdfnd@physx@@YAXAEAPEAVDxContextManagerCallback@cloth@nv@@0@Z 00000001800554e0 f i DxCloth.obj
 0001:00054550       ??$swap@U?$Vec4T@G@cloth@nv@@@shdfnd@physx@@YAXAEAV?$DxBuffer@U?$Vec4T@G@cloth@nv@@@cloth@nv@@0@Z 0000000180055550 f i DxCloth.obj
 0001:00054650       ??$swap@UDxPhaseConfig@cloth@nv@@@shdfnd@physx@@YAXAEAV?$DxBuffer@UDxPhaseConfig@cloth@nv@@@cloth@nv@@0@Z 0000000180055650 f i DxCloth.obj
 0001:00054750       ??$swap@UIndexPair@cloth@nv@@@shdfnd@physx@@YAXAEAV?$DxBuffer@UIndexPair@cloth@nv@@@cloth@nv@@0@Z 0000000180055750 f i DxCloth.obj
 0001:00054850       ??$swap@VPxVec3@physx@@@shdfnd@physx@@YAXAEAV?$DxBuffer@VPxVec3@physx@@@cloth@nv@@0@Z 0000000180055850 f i DxCloth.obj
 0001:00054950       ??$swap@VPxVec4@physx@@@shdfnd@physx@@YAXAEAV?$DxBatchedVector@VPxVec4@physx@@@cloth@nv@@0@Z 0000000180055950 f i DxCloth.obj
 0001:000549a0       ??$swap@VPxVec4@physx@@@shdfnd@physx@@YAXAEAV?$DxBuffer@VPxVec4@physx@@@cloth@nv@@0@Z 00000001800559a0 f i DxCloth.obj
 0001:00054aa0       ??0?$Array@UDxPhaseConfig@cloth@nv@@VNonTrackingAllocator@23@@shdfnd@physx@@QEAA@AEBVNonTrackingAllocator@cloth@nv@@@Z 0000000180055aa0 f i DxCloth.obj
 0001:00054af0       ??0?$Array@VPxVec4@physx@@VNonTrackingAllocator@cloth@nv@@@shdfnd@physx@@QEAA@AEBV012@AEBVNonTrackingAllocator@cloth@nv@@@Z 0000000180055af0 f i DxCloth.obj
 0001:00054b50       ??0?$ClothImpl@VDxCloth@cloth@nv@@@cloth@nv@@QEAA@XZ 0000000180055b50 f i DxCloth.obj
 0001:00054d00       ??0?$DxBatchedVector@I@cloth@nv@@QEAA@AEAV?$DxBatchedStorage@I@12@@Z 0000000180055d00 f i DxCloth.obj
 0001:00054d80       ??0?$DxBatchedVector@I@cloth@nv@@QEAA@AEBV012@@Z 0000000180055d80 f i DxCloth.obj
 0001:00054ff0       ??0?$DxBatchedVector@U?$Vec4T@G@cloth@nv@@@cloth@nv@@QEAA@AEAV?$DxBatchedStorage@U?$Vec4T@G@cloth@nv@@@12@@Z 0000000180055ff0 f i DxCloth.obj
 0001:00055070       ??0?$DxBatchedVector@U?$Vec4T@G@cloth@nv@@@cloth@nv@@QEAA@AEBV012@@Z 0000000180056070 f i DxCloth.obj
 0001:000552e0       ??0?$DxBatchedVector@UDxPhaseConfig@cloth@nv@@@cloth@nv@@QEAA@AEAV?$DxBatchedStorage@UDxPhaseConfig@cloth@nv@@@12@@Z 00000001800562e0 f i DxCloth.obj
 0001:00055360       ??0?$DxBatchedVector@UDxPhaseConfig@cloth@nv@@@cloth@nv@@QEAA@AEBV012@@Z 0000000180056360 f i DxCloth.obj
 0001:000555d0       ??0?$DxBatchedVector@UIndexPair@cloth@nv@@@cloth@nv@@QEAA@AEAV?$DxBatchedStorage@UIndexPair@cloth@nv@@@12@@Z 00000001800565d0 f i DxCloth.obj
 0001:00055650       ??0?$DxBatchedVector@UIndexPair@cloth@nv@@@cloth@nv@@QEAA@AEBV012@@Z 0000000180056650 f i DxCloth.obj
 0001:000558c0       ??0?$DxBatchedVector@VPxVec3@physx@@@cloth@nv@@QEAA@AEAV?$DxBatchedStorage@VPxVec3@physx@@@12@@Z 00000001800568c0 f i DxCloth.obj
 0001:00055940       ??0?$DxBatchedVector@VPxVec3@physx@@@cloth@nv@@QEAA@AEBV012@@Z 0000000180056940 f i DxCloth.obj
 0001:00055bb0       ??0?$DxBatchedVector@VPxVec4@physx@@@cloth@nv@@QEAA@AEAV?$DxBatchedStorage@VPxVec4@physx@@@12@@Z 0000000180056bb0 f i DxCloth.obj
 0001:00055c30       ??0?$DxBatchedVector@VPxVec4@physx@@@cloth@nv@@QEAA@AEBV012@@Z 0000000180056c30 f i DxCloth.obj
 0001:00055ea0       ??0?$DxBuffer@I@cloth@nv@@QEAA@PEAVDxContextManagerCallback@12@AEBUDxBufferFlags@12@@Z 0000000180056ea0 f i DxCloth.obj
 0001:00055f40       ??0?$DxBuffer@U?$Vec4T@G@cloth@nv@@@cloth@nv@@QEAA@PEAVDxContextManagerCallback@12@AEBUDxBufferFlags@12@@Z 0000000180056f40 f i DxCloth.obj
 0001:00055fe0       ??0?$DxBuffer@UDxPhaseConfig@cloth@nv@@@cloth@nv@@QEAA@PEAVDxContextManagerCallback@12@AEBUDxBufferFlags@12@@Z 0000000180056fe0 f i DxCloth.obj
 0001:00056080       ??0?$DxBuffer@UIndexPair@cloth@nv@@@cloth@nv@@QEAA@PEAVDxContextManagerCallback@12@AEBUDxBufferFlags@12@@Z 0000000180057080 f i DxCloth.obj
 0001:00056120       ??0?$DxBuffer@VPxVec3@physx@@@cloth@nv@@QEAA@PEAVDxContextManagerCallback@12@AEBUDxBufferFlags@12@@Z 0000000180057120 f i DxCloth.obj
 0001:000561c0       ??0?$DxBuffer@VPxVec4@physx@@@cloth@nv@@QEAA@PEAVDxContextManagerCallback@12@AEBUDxBufferFlags@12@@Z 00000001800571c0 f i DxCloth.obj
 0001:00056260       ??0?$DxVectorMap@V?$DxBatchedVector@I@cloth@nv@@@cloth@nv@@QEAA@AEAV?$DxBatchedVector@I@12@W4D3D11_MAP@@@Z 0000000180057260 f i DxCloth.obj
 0001:000562f0       ??0?$DxVectorMap@V?$DxBatchedVector@UIndexPair@cloth@nv@@@cloth@nv@@@cloth@nv@@QEAA@AEAV?$DxBatchedVector@UIndexPair@cloth@nv@@@12@W4D3D11_MAP@@@Z 00000001800572f0 f i DxCloth.obj
 0001:00056380       ??0?$DxVectorMap@V?$DxBatchedVector@VPxVec3@physx@@@cloth@nv@@@cloth@nv@@QEAA@AEAV?$DxBatchedVector@VPxVec3@physx@@@12@W4D3D11_MAP@@@Z 0000000180057380 f i DxCloth.obj
 0001:00056410       ??0?$DxVectorMap@V?$DxBatchedVector@VPxVec4@physx@@@cloth@nv@@@cloth@nv@@QEAA@AEAV?$DxBatchedVector@VPxVec4@physx@@@12@W4D3D11_MAP@@@Z 0000000180057410 f i DxCloth.obj
 0001:000564a0       ??0CD3D11_BOX@@QEAA@JJJJJJ@Z 00000001800574a0 f i DxCloth.obj
 0001:00056520       ??0CD3D11_BUFFER_DESC@@QEAA@IIW4D3D11_USAGE@@III@Z 0000000180057520 f i DxCloth.obj
 0001:000565a0       ??0DxConstraints@cloth@nv@@QEAA@AEAV?$DxBatchedStorage@VPxVec4@physx@@@12@@Z 00000001800575a0 f i DxCloth.obj
 0001:00056630       ??0DxConstraints@cloth@nv@@QEAA@AEBU012@@Z 0000000180057630 f i DxCloth.obj
 0001:000566f0       ??1?$Array@UDxPhaseConfig@cloth@nv@@VNonTrackingAllocator@23@@shdfnd@physx@@QEAA@XZ 00000001800576f0 f i DxCloth.obj
 0001:00056790       ??1?$ClothImpl@VDxCloth@cloth@nv@@@cloth@nv@@UEAA@XZ 0000000180057790 f i DxCloth.obj
 0001:000567f0       ??1?$DxBatchedVector@I@cloth@nv@@QEAA@XZ 00000001800577f0 f i DxCloth.obj
 0001:00056840       ??1?$DxBatchedVector@U?$Vec4T@G@cloth@nv@@@cloth@nv@@QEAA@XZ 0000000180057840 f i DxCloth.obj
 0001:00056890       ??1?$DxBatchedVector@UDxPhaseConfig@cloth@nv@@@cloth@nv@@QEAA@XZ 0000000180057890 f i DxCloth.obj
 0001:000568e0       ??1?$DxBatchedVector@UIndexPair@cloth@nv@@@cloth@nv@@QEAA@XZ 00000001800578e0 f i DxCloth.obj
 0001:00056930       ??1?$DxBatchedVector@VPxVec3@physx@@@cloth@nv@@QEAA@XZ 0000000180057930 f i DxCloth.obj
 0001:00056980       ??1?$DxBatchedVector@VPxVec4@physx@@@cloth@nv@@QEAA@XZ 0000000180057980 f i DxCloth.obj
 0001:000569d0       ??1?$DxBuffer@I@cloth@nv@@QEAA@XZ 00000001800579d0 f i DxCloth.obj
 0001:00056ac0       ??1?$DxBuffer@U?$Vec4T@G@cloth@nv@@@cloth@nv@@QEAA@XZ 0000000180057ac0 f i DxCloth.obj
 0001:00056bb0       ??1?$DxBuffer@UDxPhaseConfig@cloth@nv@@@cloth@nv@@QEAA@XZ 0000000180057bb0 f i DxCloth.obj
 0001:00056ca0       ??1?$DxBuffer@UIndexPair@cloth@nv@@@cloth@nv@@QEAA@XZ 0000000180057ca0 f i DxCloth.obj
 0001:00056d90       ??1?$DxBuffer@VPxVec3@physx@@@cloth@nv@@QEAA@XZ 0000000180057d90 f i DxCloth.obj
 0001:00056e80       ??1?$DxBuffer@VPxVec4@physx@@@cloth@nv@@QEAA@XZ 0000000180057e80 f i DxCloth.obj
 0001:00056f70       ??1?$DxVectorMap@V?$DxBatchedVector@I@cloth@nv@@@cloth@nv@@QEAA@XZ 0000000180057f70 f i DxCloth.obj
 0001:00056fd0       ??1?$DxVectorMap@V?$DxBatchedVector@UIndexPair@cloth@nv@@@cloth@nv@@@cloth@nv@@QEAA@XZ 0000000180057fd0 f i DxCloth.obj
 0001:00057030       ??1?$DxVectorMap@V?$DxBatchedVector@VPxVec3@physx@@@cloth@nv@@@cloth@nv@@QEAA@XZ 0000000180058030 f i DxCloth.obj
 0001:00057090       ??1?$DxVectorMap@V?$DxBatchedVector@VPxVec4@physx@@@cloth@nv@@@cloth@nv@@QEAA@XZ 0000000180058090 f i DxCloth.obj
 0001:000570f0       ??1CD3D11_BOX@@QEAA@XZ     00000001800580f0 f i DxCloth.obj
 0001:00057100       ??1CD3D11_BUFFER_DESC@@QEAA@XZ 0000000180058100 f i DxCloth.obj
 0001:00057110       ??1DxConstraints@cloth@nv@@QEAA@XZ 0000000180058110 f i DxCloth.obj
 0001:00057180       ??4?$DxBatchedVector@VPxVec4@physx@@@cloth@nv@@QEAAAEAV012@AEBV012@@Z 0000000180058180 f i DxCloth.obj
 0001:00057470       ??A?$DxVectorMap@V?$DxBatchedVector@I@cloth@nv@@@cloth@nv@@QEAAAEAII@Z 0000000180058470 f i DxCloth.obj
 0001:000574a0       ??A?$DxVectorMap@V?$DxBatchedVector@UIndexPair@cloth@nv@@@cloth@nv@@@cloth@nv@@QEAAAEAUIndexPair@12@I@Z 00000001800584a0 f i DxCloth.obj
 0001:000574d0       ??A?$DxVectorMap@V?$DxBatchedVector@VPxVec3@physx@@@cloth@nv@@@cloth@nv@@QEAAAEAVPxVec3@physx@@I@Z 00000001800584d0 f i DxCloth.obj
 0001:00057500       ??A?$DxVectorMap@V?$DxBatchedVector@VPxVec4@physx@@@cloth@nv@@@cloth@nv@@QEAAAEAVPxVec4@physx@@I@Z 0000000180058500 f i DxCloth.obj
 0001:00057530       ??_E?$ClothImpl@VDxCloth@cloth@nv@@@cloth@nv@@UEAAPEAXI@Z 0000000180058530 f i DxCloth.obj
 0001:00057530       ??_G?$ClothImpl@VDxCloth@cloth@nv@@@cloth@nv@@UEAAPEAXI@Z 0000000180058530 f i DxCloth.obj
 0001:000575c0       ??_EDxCloth@cloth@nv@@UEAAPEAXI@Z 00000001800585c0 f i DxCloth.obj
 0001:000575c0       ??_GDxCloth@cloth@nv@@UEAAPEAXI@Z 00000001800585c0 f i DxCloth.obj
 0001:00057650       ?add@?$DxBatchedStorage@I@cloth@nv@@AEAAXPEAV?$DxBatchedVector@I@23@@Z 0000000180058650 f i DxCloth.obj
 0001:000576c0       ?add@?$DxBatchedStorage@U?$Vec4T@G@cloth@nv@@@cloth@nv@@AEAAXPEAV?$DxBatchedVector@U?$Vec4T@G@cloth@nv@@@23@@Z 00000001800586c0 f i DxCloth.obj
 0001:00057730       ?add@?$DxBatchedStorage@UDxPhaseConfig@cloth@nv@@@cloth@nv@@AEAAXPEAV?$DxBatchedVector@UDxPhaseConfig@cloth@nv@@@23@@Z 0000000180058730 f i DxCloth.obj
 0001:000577a0       ?add@?$DxBatchedStorage@UIndexPair@cloth@nv@@@cloth@nv@@AEAAXPEAV?$DxBatchedVector@UIndexPair@cloth@nv@@@23@@Z 00000001800587a0 f i DxCloth.obj
 0001:00057810       ?add@?$DxBatchedStorage@VPxVec3@physx@@@cloth@nv@@AEAAXPEAV?$DxBatchedVector@VPxVec3@physx@@@23@@Z 0000000180058810 f i DxCloth.obj
 0001:00057880       ?add@?$DxBatchedStorage@VPxVec4@physx@@@cloth@nv@@AEAAXPEAV?$DxBatchedVector@VPxVec4@physx@@@23@@Z 0000000180058880 f i DxCloth.obj
 0001:000578f0       ?allocate@?$Array@PEAV?$DxBatchedVector@I@cloth@nv@@VNonTrackingAllocator@23@@shdfnd@physx@@IEAAPEAPEAV?$DxBatchedVector@I@cloth@nv@@I@Z 00000001800588f0 f i DxCloth.obj
 0001:000579c0       ?allocate@?$Array@PEAV?$DxBatchedVector@U?$Vec4T@G@cloth@nv@@@cloth@nv@@VNonTrackingAllocator@23@@shdfnd@physx@@IEAAPEAPEAV?$DxBatchedVector@U?$Vec4T@G@cloth@nv@@@cloth@nv@@I@Z 00000001800589c0 f i DxCloth.obj
 0001:00057a90       ?allocate@?$Array@PEAV?$DxBatchedVector@UDxPhaseConfig@cloth@nv@@@cloth@nv@@VNonTrackingAllocator@23@@shdfnd@physx@@IEAAPEAPEAV?$DxBatchedVector@UDxPhaseConfig@cloth@nv@@@cloth@nv@@I@Z 0000000180058a90 f i DxCloth.obj
 0001:00057b60       ?allocate@?$Array@PEAV?$DxBatchedVector@UIndexPair@cloth@nv@@@cloth@nv@@VNonTrackingAllocator@23@@shdfnd@physx@@IEAAPEAPEAV?$DxBatchedVector@UIndexPair@cloth@nv@@@cloth@nv@@I@Z 0000000180058b60 f i DxCloth.obj
 0001:00057c30       ?allocate@?$Array@PEAV?$DxBatchedVector@VPxVec3@physx@@@cloth@nv@@VNonTrackingAllocator@23@@shdfnd@physx@@IEAAPEAPEAV?$DxBatchedVector@VPxVec3@physx@@@cloth@nv@@I@Z 0000000180058c30 f i DxCloth.obj
 0001:00057d00       ?allocate@?$Array@PEAV?$DxBatchedVector@VPxVec4@physx@@@cloth@nv@@VNonTrackingAllocator@23@@shdfnd@physx@@IEAAPEAPEAV?$DxBatchedVector@VPxVec4@physx@@@cloth@nv@@I@Z 0000000180058d00 f i DxCloth.obj
 0001:00057dd0       ?allocate@?$Array@UDxPhaseConfig@cloth@nv@@VNonTrackingAllocator@23@@shdfnd@physx@@IEAAPEAUDxPhaseConfig@cloth@nv@@I@Z 0000000180058dd0 f i DxCloth.obj
 0001:00057ea0       ?assign@?$DxBatchedStorage@I@cloth@nv@@AEAAXPEAV?$DxBatchedVector@I@23@PEBII@Z 0000000180058ea0 f i DxCloth.obj
 0001:00057fb0       ?assign@?$DxBatchedStorage@U?$Vec4T@G@cloth@nv@@@cloth@nv@@AEAAXPEAV?$DxBatchedVector@U?$Vec4T@G@cloth@nv@@@23@PEBU?$Vec4T@G@23@I@Z 0000000180058fb0 f i DxCloth.obj
 0001:000580c0       ?assign@?$DxBatchedStorage@UDxPhaseConfig@cloth@nv@@@cloth@nv@@AEAAXPEAV?$DxBatchedVector@UDxPhaseConfig@cloth@nv@@@23@PEBUDxPhaseConfig@23@I@Z 00000001800590c0 f i DxCloth.obj
 0001:000581d0       ?assign@?$DxBatchedStorage@UIndexPair@cloth@nv@@@cloth@nv@@AEAAXPEAV?$DxBatchedVector@UIndexPair@cloth@nv@@@23@PEBUIndexPair@23@I@Z 00000001800591d0 f i DxCloth.obj
 0001:000582e0       ?assign@?$DxBatchedStorage@VPxVec3@physx@@@cloth@nv@@AEAAXPEAV?$DxBatchedVector@VPxVec3@physx@@@23@PEBVPxVec3@physx@@I@Z 00000001800592e0 f i DxCloth.obj
 0001:000583f0       ?assign@?$DxBatchedStorage@VPxVec4@physx@@@cloth@nv@@AEAAXPEAV?$DxBatchedVector@VPxVec4@physx@@@23@PEBVPxVec4@physx@@I@Z 00000001800593f0 f i DxCloth.obj
 0001:00058500       ?assign@?$DxBatchedVector@I@cloth@nv@@QEAAXPEBI0@Z 0000000180059500 f i DxCloth.obj
 0001:00058580       ?assign@?$DxBatchedVector@U?$Vec4T@G@cloth@nv@@@cloth@nv@@QEAAXPEBU?$Vec4T@G@23@0@Z 0000000180059580 f i DxCloth.obj
 0001:00058600       ?assign@?$DxBatchedVector@UDxPhaseConfig@cloth@nv@@@cloth@nv@@QEAAXPEBUDxPhaseConfig@23@0@Z 0000000180059600 f i DxCloth.obj
 0001:00058680       ?assign@?$DxBatchedVector@VPxVec3@physx@@@cloth@nv@@QEAAXPEBVPxVec3@physx@@0@Z 0000000180059680 f i DxCloth.obj
 0001:00058700       ?assign@?$DxBatchedVector@VPxVec4@physx@@@cloth@nv@@QEAAXPEBVPxVec4@physx@@0@Z 0000000180059700 f i DxCloth.obj
 0001:00058780       ?begin@?$Array@PEAV?$DxBatchedVector@I@cloth@nv@@VNonTrackingAllocator@23@@shdfnd@physx@@QEAAPEAPEAV?$DxBatchedVector@I@cloth@nv@@XZ 0000000180059780 f i DxCloth.obj
 0001:000587a0       ?begin@?$Array@PEAV?$DxBatchedVector@U?$Vec4T@G@cloth@nv@@@cloth@nv@@VNonTrackingAllocator@23@@shdfnd@physx@@QEAAPEAPEAV?$DxBatchedVector@U?$Vec4T@G@cloth@nv@@@cloth@nv@@XZ 00000001800597a0 f i DxCloth.obj
 0001:000587c0       ?begin@?$Array@PEAV?$DxBatchedVector@UDxPhaseConfig@cloth@nv@@@cloth@nv@@VNonTrackingAllocator@23@@shdfnd@physx@@QEAAPEAPEAV?$DxBatchedVector@UDxPhaseConfig@cloth@nv@@@cloth@nv@@XZ 00000001800597c0 f i DxCloth.obj
 0001:000587e0       ?begin@?$Array@PEAV?$DxBatchedVector@UIndexPair@cloth@nv@@@cloth@nv@@VNonTrackingAllocator@23@@shdfnd@physx@@QEAAPEAPEAV?$DxBatchedVector@UIndexPair@cloth@nv@@@cloth@nv@@XZ 00000001800597e0 f i DxCloth.obj
 0001:00058800       ?begin@?$Array@PEAV?$DxBatchedVector@VPxVec3@physx@@@cloth@nv@@VNonTrackingAllocator@23@@shdfnd@physx@@QEAAPEAPEAV?$DxBatchedVector@VPxVec3@physx@@@cloth@nv@@XZ 0000000180059800 f i DxCloth.obj
 0001:00058820       ?begin@?$Array@PEAV?$DxBatchedVector@VPxVec4@physx@@@cloth@nv@@VNonTrackingAllocator@23@@shdfnd@physx@@QEAAPEAPEAV?$DxBatchedVector@VPxVec4@physx@@@cloth@nv@@XZ 0000000180059820 f i DxCloth.obj
 0001:00058840       ?begin@?$Array@U?$Vec4T@G@cloth@nv@@VNonTrackingAllocator@23@@shdfnd@physx@@QEBAPEBU?$Vec4T@G@cloth@nv@@XZ 0000000180059840 f i DxCloth.obj
 0001:00058860       ?begin@?$Array@UDxPhaseConfig@cloth@nv@@VNonTrackingAllocator@23@@shdfnd@physx@@QEAAPEAUDxPhaseConfig@cloth@nv@@XZ 0000000180059860 f i DxCloth.obj
 0001:00058880       ?begin@?$DxVectorMap@V?$DxBatchedVector@I@cloth@nv@@@cloth@nv@@QEAAPEAIXZ 0000000180059880 f i DxCloth.obj
 0001:000588a0       ?begin@?$DxVectorMap@V?$DxBatchedVector@UIndexPair@cloth@nv@@@cloth@nv@@@cloth@nv@@QEAAPEAUIndexPair@23@XZ 00000001800598a0 f i DxCloth.obj
 0001:000588c0       ?begin@?$DxVectorMap@V?$DxBatchedVector@VPxVec3@physx@@@cloth@nv@@@cloth@nv@@QEAAPEAVPxVec3@physx@@XZ 00000001800598c0 f i DxCloth.obj
 0001:000588e0       ?begin@?$DxVectorMap@V?$DxBatchedVector@VPxVec4@physx@@@cloth@nv@@@cloth@nv@@QEAAPEAVPxVec4@physx@@XZ 00000001800598e0 f i DxCloth.obj
 0001:00058900       ?buffer@?$DxBatchedVector@I@cloth@nv@@QEBAPEAUID3D11Buffer@@XZ 0000000180059900 f i DxCloth.obj
 0001:00058920       ?buffer@?$DxBatchedVector@U?$Vec4T@G@cloth@nv@@@cloth@nv@@QEBAPEAUID3D11Buffer@@XZ 0000000180059920 f i DxCloth.obj
 0001:00058940       ?buffer@?$DxBatchedVector@UDxPhaseConfig@cloth@nv@@@cloth@nv@@QEBAPEAUID3D11Buffer@@XZ 0000000180059940 f i DxCloth.obj
 0001:00058960       ?buffer@?$DxBatchedVector@UIndexPair@cloth@nv@@@cloth@nv@@QEBAPEAUID3D11Buffer@@XZ 0000000180059960 f i DxCloth.obj
 0001:00058980       ?buffer@?$DxBatchedVector@VPxVec3@physx@@@cloth@nv@@QEBAPEAUID3D11Buffer@@XZ 0000000180059980 f i DxCloth.obj
 0001:000589a0       ?buffer@?$DxBatchedVector@VPxVec4@physx@@@cloth@nv@@QEBAPEAUID3D11Buffer@@XZ 00000001800599a0 f i DxCloth.obj
 0001:000589c0       ?capacity@?$Array@PEAV?$DxBatchedVector@I@cloth@nv@@VNonTrackingAllocator@23@@shdfnd@physx@@QEBAIXZ 00000001800599c0 f i DxCloth.obj
 0001:000589e0       ?capacity@?$Array@PEAV?$DxBatchedVector@U?$Vec4T@G@cloth@nv@@@cloth@nv@@VNonTrackingAllocator@23@@shdfnd@physx@@QEBAIXZ 00000001800599e0 f i DxCloth.obj
 0001:00058a00       ?capacity@?$Array@PEAV?$DxBatchedVector@UDxPhaseConfig@cloth@nv@@@cloth@nv@@VNonTrackingAllocator@23@@shdfnd@physx@@QEBAIXZ 0000000180059a00 f i DxCloth.obj
 0001:00058a20       ?capacity@?$Array@PEAV?$DxBatchedVector@UIndexPair@cloth@nv@@@cloth@nv@@VNonTrackingAllocator@23@@shdfnd@physx@@QEBAIXZ 0000000180059a20 f i DxCloth.obj
 0001:00058a40       ?capacity@?$Array@PEAV?$DxBatchedVector@VPxVec3@physx@@@cloth@nv@@VNonTrackingAllocator@23@@shdfnd@physx@@QEBAIXZ 0000000180059a40 f i DxCloth.obj
 0001:00058a60       ?capacity@?$Array@PEAV?$DxBatchedVector@VPxVec4@physx@@@cloth@nv@@VNonTrackingAllocator@23@@shdfnd@physx@@QEBAIXZ 0000000180059a60 f i DxCloth.obj
 0001:00058a80       ?capacity@?$Array@UDxPhaseConfig@cloth@nv@@VNonTrackingAllocator@23@@shdfnd@physx@@QEBAIXZ 0000000180059a80 f i DxCloth.obj
 0001:00058aa0       ?capacity@?$DxBatchedVector@I@cloth@nv@@QEBAIXZ 0000000180059aa0 f i DxCloth.obj
 0001:00058ac0       ?capacity@?$DxBatchedVector@UIndexPair@cloth@nv@@@cloth@nv@@QEBAIXZ 0000000180059ac0 f i DxCloth.obj
 0001:00058ae0       ?capacity@?$DxBatchedVector@VPxVec3@physx@@@cloth@nv@@QEBAIXZ 0000000180059ae0 f i DxCloth.obj
 0001:00058b00       ?capacity@?$DxBatchedVector@VPxVec4@physx@@@cloth@nv@@QEBAIXZ 0000000180059b00 f i DxCloth.obj
 0001:00058b20       ?capacityIncrement@?$Array@PEAV?$DxBatchedVector@I@cloth@nv@@VNonTrackingAllocator@23@@shdfnd@physx@@IEBAIXZ 0000000180059b20 f i DxCloth.obj
 0001:00058b90       ?capacityIncrement@?$Array@PEAV?$DxBatchedVector@U?$Vec4T@G@cloth@nv@@@cloth@nv@@VNonTrackingAllocator@23@@shdfnd@physx@@IEBAIXZ 0000000180059b90 f i DxCloth.obj
 0001:00058c00       ?capacityIncrement@?$Array@PEAV?$DxBatchedVector@UDxPhaseConfig@cloth@nv@@@cloth@nv@@VNonTrackingAllocator@23@@shdfnd@physx@@IEBAIXZ 0000000180059c00 f i DxCloth.obj
 0001:00058c70       ?capacityIncrement@?$Array@PEAV?$DxBatchedVector@UIndexPair@cloth@nv@@@cloth@nv@@VNonTrackingAllocator@23@@shdfnd@physx@@IEBAIXZ 0000000180059c70 f i DxCloth.obj
 0001:00058ce0       ?capacityIncrement@?$Array@PEAV?$DxBatchedVector@VPxVec3@physx@@@cloth@nv@@VNonTrackingAllocator@23@@shdfnd@physx@@IEBAIXZ 0000000180059ce0 f i DxCloth.obj
 0001:00058d50       ?capacityIncrement@?$Array@PEAV?$DxBatchedVector@VPxVec4@physx@@@cloth@nv@@VNonTrackingAllocator@23@@shdfnd@physx@@IEBAIXZ 0000000180059d50 f i DxCloth.obj
 0001:00058dc0       ?capacityIncrement@?$Array@UDxPhaseConfig@cloth@nv@@VNonTrackingAllocator@23@@shdfnd@physx@@IEBAIXZ 0000000180059dc0 f i DxCloth.obj
 0001:00058e30       ?clear@?$DxBatchedVector@VPxVec4@physx@@@cloth@nv@@QEAAXXZ 0000000180059e30 f i DxCloth.obj
 0001:00058eb0       ?clearInertia@?$ClothImpl@VDxCloth@cloth@nv@@@cloth@nv@@UEAAXXZ 0000000180059eb0 f i DxCloth.obj
 0001:00058f70       ?clearInterpolation@?$ClothImpl@VDxCloth@cloth@nv@@@cloth@nv@@UEAAXXZ 0000000180059f70 f i DxCloth.obj
 0001:000590c0       ?clearMotionConstraints@?$ClothImpl@VDxCloth@cloth@nv@@@cloth@nv@@UEAAXXZ 000000018005a0c0 f i DxCloth.obj
 0001:00059140       ?clearSeparationConstraints@?$ClothImpl@VDxCloth@cloth@nv@@@cloth@nv@@UEAAXXZ 000000018005a140 f i DxCloth.obj
 0001:000591c0       ?context@?$DxBuffer@I@cloth@nv@@QEBAPEAUID3D11DeviceContext@@XZ 000000018005a1c0 f i DxCloth.obj
 0001:00059210       ?context@?$DxBuffer@U?$Vec4T@G@cloth@nv@@@cloth@nv@@QEBAPEAUID3D11DeviceContext@@XZ 000000018005a210 f i DxCloth.obj
 0001:00059260       ?context@?$DxBuffer@UDxPhaseConfig@cloth@nv@@@cloth@nv@@QEBAPEAUID3D11DeviceContext@@XZ 000000018005a260 f i DxCloth.obj
 0001:000592b0       ?context@?$DxBuffer@UIndexPair@cloth@nv@@@cloth@nv@@QEBAPEAUID3D11DeviceContext@@XZ 000000018005a2b0 f i DxCloth.obj
 0001:00059300       ?context@?$DxBuffer@VPxVec3@physx@@@cloth@nv@@QEBAPEAUID3D11DeviceContext@@XZ 000000018005a300 f i DxCloth.obj
 0001:00059350       ?context@?$DxBuffer@VPxVec4@physx@@@cloth@nv@@QEBAPEAUID3D11DeviceContext@@XZ 000000018005a350 f i DxCloth.obj
 0001:000593a0       ?copy@?$Array@PEAV?$DxBatchedVector@I@cloth@nv@@VNonTrackingAllocator@23@@shdfnd@physx@@KAXPEAPEAV?$DxBatchedVector@I@cloth@nv@@0PEBQEAV456@@Z 000000018005a3a0 f i DxCloth.obj
 0001:00059480       ?copy@?$Array@PEAV?$DxBatchedVector@U?$Vec4T@G@cloth@nv@@@cloth@nv@@VNonTrackingAllocator@23@@shdfnd@physx@@KAXPEAPEAV?$DxBatchedVector@U?$Vec4T@G@cloth@nv@@@cloth@nv@@0PEBQEAV456@@Z 000000018005a480 f i DxCloth.obj
 0001:00059560       ?copy@?$Array@PEAV?$DxBatchedVector@UDxPhaseConfig@cloth@nv@@@cloth@nv@@VNonTrackingAllocator@23@@shdfnd@physx@@KAXPEAPEAV?$DxBatchedVector@UDxPhaseConfig@cloth@nv@@@cloth@nv@@0PEBQEAV456@@Z 000000018005a560 f i DxCloth.obj
 0001:00059640       ?copy@?$Array@PEAV?$DxBatchedVector@UIndexPair@cloth@nv@@@cloth@nv@@VNonTrackingAllocator@23@@shdfnd@physx@@KAXPEAPEAV?$DxBatchedVector@UIndexPair@cloth@nv@@@cloth@nv@@0PEBQEAV456@@Z 000000018005a640 f i DxCloth.obj
 0001:00059720       ?copy@?$Array@PEAV?$DxBatchedVector@VPxVec3@physx@@@cloth@nv@@VNonTrackingAllocator@23@@shdfnd@physx@@KAXPEAPEAV?$DxBatchedVector@VPxVec3@physx@@@cloth@nv@@0PEBQEAV456@@Z 000000018005a720 f i DxCloth.obj
 0001:00059800       ?copy@?$Array@PEAV?$DxBatchedVector@VPxVec4@physx@@@cloth@nv@@VNonTrackingAllocator@23@@shdfnd@physx@@KAXPEAPEAV?$DxBatchedVector@VPxVec4@physx@@@cloth@nv@@0PEBQEAV456@@Z 000000018005a800 f i DxCloth.obj
 0001:000598e0       ?copy@?$Array@UDxPhaseConfig@cloth@nv@@VNonTrackingAllocator@23@@shdfnd@physx@@KAXPEAUDxPhaseConfig@cloth@nv@@0PEBU456@@Z 000000018005a8e0 f i DxCloth.obj
 0001:000599c0       ?create@?$DxBuffer@I@cloth@nv@@AEAAXIPEAUD3D11_SUBRESOURCE_DATA@@@Z 000000018005a9c0 f i DxCloth.obj
 0001:00059c40       ?create@?$DxBuffer@U?$Vec4T@G@cloth@nv@@@cloth@nv@@AEAAXIPEAUD3D11_SUBRESOURCE_DATA@@@Z 000000018005ac40 f i DxCloth.obj
 0001:00059ec0       ?create@?$DxBuffer@UDxPhaseConfig@cloth@nv@@@cloth@nv@@AEAAXIPEAUD3D11_SUBRESOURCE_DATA@@@Z 000000018005aec0 f i DxCloth.obj
 0001:0005a140       ?create@?$DxBuffer@UIndexPair@cloth@nv@@@cloth@nv@@AEAAXIPEAUD3D11_SUBRESOURCE_DATA@@@Z 000000018005b140 f i DxCloth.obj
 0001:0005a3c0       ?create@?$DxBuffer@VPxVec3@physx@@@cloth@nv@@AEAAXIPEAUD3D11_SUBRESOURCE_DATA@@@Z 000000018005b3c0 f i DxCloth.obj
 0001:0005a640       ?create@?$DxBuffer@VPxVec4@physx@@@cloth@nv@@AEAAXIPEAUD3D11_SUBRESOURCE_DATA@@@Z 000000018005b640 f i DxCloth.obj
 0001:0005a8c0       ?deallocate@?$Array@PEAV?$DxBatchedVector@I@cloth@nv@@VNonTrackingAllocator@23@@shdfnd@physx@@IEAAXPEAX@Z 000000018005b8c0 f i DxCloth.obj
 0001:0005a910       ?deallocate@?$Array@PEAV?$DxBatchedVector@U?$Vec4T@G@cloth@nv@@@cloth@nv@@VNonTrackingAllocator@23@@shdfnd@physx@@IEAAXPEAX@Z 000000018005b910 f i DxCloth.obj
 0001:0005a960       ?deallocate@?$Array@PEAV?$DxBatchedVector@UDxPhaseConfig@cloth@nv@@@cloth@nv@@VNonTrackingAllocator@23@@shdfnd@physx@@IEAAXPEAX@Z 000000018005b960 f i DxCloth.obj
 0001:0005a9b0       ?deallocate@?$Array@PEAV?$DxBatchedVector@UIndexPair@cloth@nv@@@cloth@nv@@VNonTrackingAllocator@23@@shdfnd@physx@@IEAAXPEAX@Z 000000018005b9b0 f i DxCloth.obj
 0001:0005aa00       ?deallocate@?$Array@PEAV?$DxBatchedVector@VPxVec3@physx@@@cloth@nv@@VNonTrackingAllocator@23@@shdfnd@physx@@IEAAXPEAX@Z 000000018005ba00 f i DxCloth.obj
 0001:0005aa50       ?deallocate@?$Array@PEAV?$DxBatchedVector@VPxVec4@physx@@@cloth@nv@@VNonTrackingAllocator@23@@shdfnd@physx@@IEAAXPEAX@Z 000000018005ba50 f i DxCloth.obj
 0001:0005aaa0       ?deallocate@?$Array@UDxPhaseConfig@cloth@nv@@VNonTrackingAllocator@23@@shdfnd@physx@@IEAAXPEAX@Z 000000018005baa0 f i DxCloth.obj
 0001:0005aaf0       ?destroy@?$Array@PEAV?$DxBatchedVector@I@cloth@nv@@VNonTrackingAllocator@23@@shdfnd@physx@@KAXPEAPEAV?$DxBatchedVector@I@cloth@nv@@0@Z 000000018005baf0 f i DxCloth.obj
 0001:0005ab30       ?destroy@?$Array@PEAV?$DxBatchedVector@U?$Vec4T@G@cloth@nv@@@cloth@nv@@VNonTrackingAllocator@23@@shdfnd@physx@@KAXPEAPEAV?$DxBatchedVector@U?$Vec4T@G@cloth@nv@@@cloth@nv@@0@Z 000000018005bb30 f i DxCloth.obj
 0001:0005ab70       ?destroy@?$Array@PEAV?$DxBatchedVector@UDxPhaseConfig@cloth@nv@@@cloth@nv@@VNonTrackingAllocator@23@@shdfnd@physx@@KAXPEAPEAV?$DxBatchedVector@UDxPhaseConfig@cloth@nv@@@cloth@nv@@0@Z 000000018005bb70 f i DxCloth.obj
 0001:0005abb0       ?destroy@?$Array@PEAV?$DxBatchedVector@UIndexPair@cloth@nv@@@cloth@nv@@VNonTrackingAllocator@23@@shdfnd@physx@@KAXPEAPEAV?$DxBatchedVector@UIndexPair@cloth@nv@@@cloth@nv@@0@Z 000000018005bbb0 f i DxCloth.obj
 0001:0005abf0       ?destroy@?$Array@PEAV?$DxBatchedVector@VPxVec3@physx@@@cloth@nv@@VNonTrackingAllocator@23@@shdfnd@physx@@KAXPEAPEAV?$DxBatchedVector@VPxVec3@physx@@@cloth@nv@@0@Z 000000018005bbf0 f i DxCloth.obj
 0001:0005ac30       ?destroy@?$Array@PEAV?$DxBatchedVector@VPxVec4@physx@@@cloth@nv@@VNonTrackingAllocator@23@@shdfnd@physx@@KAXPEAPEAV?$DxBatchedVector@VPxVec4@physx@@@cloth@nv@@0@Z 000000018005bc30 f i DxCloth.obj
 0001:0005ac70       ?destroy@?$Array@UDxPhaseConfig@cloth@nv@@VNonTrackingAllocator@23@@shdfnd@physx@@KAXPEAUDxPhaseConfig@cloth@nv@@0@Z 000000018005bc70 f i DxCloth.obj
 0001:0005acb0       ?empty@?$DxBatchedVector@I@cloth@nv@@QEBA_NXZ 000000018005bcb0 f i DxCloth.obj
 0001:0005ad10       ?empty@?$DxBatchedVector@VPxVec4@physx@@@cloth@nv@@QEBA_NXZ 000000018005bd10 f i DxCloth.obj
 0001:0005ad70       ?enableContinuousCollision@?$ClothImpl@VDxCloth@cloth@nv@@@cloth@nv@@UEAAX_N@Z 000000018005bd70 f i DxCloth.obj
 0001:0005ae20       ?end@?$Array@U?$Vec4T@G@cloth@nv@@VNonTrackingAllocator@23@@shdfnd@physx@@QEBAPEBU?$Vec4T@G@cloth@nv@@XZ 000000018005be20 f i DxCloth.obj
 0001:0005ae50       ?end@?$Array@VPxVec4@physx@@VNonTrackingAllocator@cloth@nv@@@shdfnd@physx@@QEAAPEAVPxVec4@3@XZ 000000018005be50 f i DxCloth.obj
 0001:0005ae80       ?end@?$Array@VPxVec4@physx@@VNonTrackingAllocator@cloth@nv@@@shdfnd@physx@@QEBAPEBVPxVec4@3@XZ 000000018005be80 f i DxCloth.obj
 0001:0005aeb0       ?end@?$DxVectorMap@V?$DxBatchedVector@I@cloth@nv@@@cloth@nv@@QEAAPEAIXZ 000000018005beb0 f i DxCloth.obj
 0001:0005aee0       ?end@?$DxVectorMap@V?$DxBatchedVector@UIndexPair@cloth@nv@@@cloth@nv@@@cloth@nv@@QEAAPEAUIndexPair@23@XZ 000000018005bee0 f i DxCloth.obj
 0001:0005af10       ?find@?$Array@PEAV?$DxBatchedVector@I@cloth@nv@@VNonTrackingAllocator@23@@shdfnd@physx@@QEAAPEAPEAV?$DxBatchedVector@I@cloth@nv@@AEBQEAV456@@Z 000000018005bf10 f i DxCloth.obj
 0001:0005afa0       ?find@?$Array@PEAV?$DxBatchedVector@U?$Vec4T@G@cloth@nv@@@cloth@nv@@VNonTrackingAllocator@23@@shdfnd@physx@@QEAAPEAPEAV?$DxBatchedVector@U?$Vec4T@G@cloth@nv@@@cloth@nv@@AEBQEAV456@@Z 000000018005bfa0 f i DxCloth.obj
 0001:0005b030       ?find@?$Array@PEAV?$DxBatchedVector@UDxPhaseConfig@cloth@nv@@@cloth@nv@@VNonTrackingAllocator@23@@shdfnd@physx@@QEAAPEAPEAV?$DxBatchedVector@UDxPhaseConfig@cloth@nv@@@cloth@nv@@AEBQEAV456@@Z 000000018005c030 f i DxCloth.obj
 0001:0005b0c0       ?find@?$Array@PEAV?$DxBatchedVector@UIndexPair@cloth@nv@@@cloth@nv@@VNonTrackingAllocator@23@@shdfnd@physx@@QEAAPEAPEAV?$DxBatchedVector@UIndexPair@cloth@nv@@@cloth@nv@@AEBQEAV456@@Z 000000018005c0c0 f i DxCloth.obj
 0001:0005b150       ?find@?$Array@PEAV?$DxBatchedVector@VPxVec3@physx@@@cloth@nv@@VNonTrackingAllocator@23@@shdfnd@physx@@QEAAPEAPEAV?$DxBatchedVector@VPxVec3@physx@@@cloth@nv@@AEBQEAV456@@Z 000000018005c150 f i DxCloth.obj
 0001:0005b1e0       ?find@?$Array@PEAV?$DxBatchedVector@VPxVec4@physx@@@cloth@nv@@VNonTrackingAllocator@23@@shdfnd@physx@@QEAAPEAPEAV?$DxBatchedVector@VPxVec4@physx@@@cloth@nv@@AEBQEAV456@@Z 000000018005c1e0 f i DxCloth.obj
 0001:0005b270       ?getAccelerationFilterWidth@?$ClothImpl@VDxCloth@cloth@nv@@@cloth@nv@@UEBAIXZ 000000018005c270 f i DxCloth.obj
 0001:0005b2c0       ?getAngularDrag@?$ClothImpl@VDxCloth@cloth@nv@@@cloth@nv@@UEBA?AVPxVec3@physx@@XZ 000000018005c2c0 f i DxCloth.obj
 0001:0005b350       ?getAngularInertia@?$ClothImpl@VDxCloth@cloth@nv@@@cloth@nv@@UEBA?AVPxVec3@physx@@XZ 000000018005c350 f i DxCloth.obj
 0001:0005b3b0       ?getBoundingBoxCenter@?$ClothImpl@VDxCloth@cloth@nv@@@cloth@nv@@UEBAAEBVPxVec3@physx@@XZ 000000018005c3b0 f i DxCloth.obj
 0001:0005b3f0       ?getBoundingBoxScale@?$ClothImpl@VDxCloth@cloth@nv@@@cloth@nv@@UEBAAEBVPxVec3@physx@@XZ 000000018005c3f0 f i DxCloth.obj
 0001:0005b430       ?getCentrifugalInertia@?$ClothImpl@VDxCloth@cloth@nv@@@cloth@nv@@UEBA?AVPxVec3@physx@@XZ 000000018005c430 f i DxCloth.obj
 0001:0005b490       ?getChildCloth@?$ClothImpl@VDxCloth@cloth@nv@@@cloth@nv@@QEAAPEAVDxCloth@23@XZ 000000018005c490 f i DxCloth.obj
 0001:0005b4a0       ?getChildCloth@?$ClothImpl@VDxCloth@cloth@nv@@@cloth@nv@@QEBAPEBVDxCloth@23@XZ 000000018005c4a0 f i DxCloth.obj
 0001:0005b4b0       ?getCollisionMassScale@?$ClothImpl@VDxCloth@cloth@nv@@@cloth@nv@@UEBAMXZ 000000018005c4b0 f i DxCloth.obj
 0001:0005b500       ?getDamping@?$ClothImpl@VDxCloth@cloth@nv@@@cloth@nv@@UEBA?AVPxVec3@physx@@XZ 000000018005c500 f i DxCloth.obj
 0001:0005b590       ?getDragCoefficient@?$ClothImpl@VDxCloth@cloth@nv@@@cloth@nv@@UEBAMXZ 000000018005c590 f i DxCloth.obj
 0001:0005b5f0       ?getFabric@?$ClothImpl@VDxCloth@cloth@nv@@@cloth@nv@@UEBAAEAVFabric@23@XZ 000000018005c5f0 f i DxCloth.obj
 0001:0005b640       ?getFactory@?$ClothImpl@VDxCloth@cloth@nv@@@cloth@nv@@UEBAAEAVFactory@23@XZ 000000018005c640 f i DxCloth.obj
 0001:0005b690       ?getFluidDensity@?$ClothImpl@VDxCloth@cloth@nv@@@cloth@nv@@UEBAMXZ 000000018005c690 f i DxCloth.obj
 0001:0005b6d0       ?getFriction@?$ClothImpl@VDxCloth@cloth@nv@@@cloth@nv@@UEBAMXZ 000000018005c6d0 f i DxCloth.obj
 0001:0005b720       ?getGravity@?$ClothImpl@VDxCloth@cloth@nv@@@cloth@nv@@UEBA?AVPxVec3@physx@@XZ 000000018005c720 f i DxCloth.obj
 0001:0005b780       ?getLiftCoefficient@?$ClothImpl@VDxCloth@cloth@nv@@@cloth@nv@@UEBAMXZ 000000018005c780 f i DxCloth.obj
 0001:0005b7e0       ?getLinearDrag@?$ClothImpl@VDxCloth@cloth@nv@@@cloth@nv@@UEBA?AVPxVec3@physx@@XZ 000000018005c7e0 f i DxCloth.obj
 0001:0005b870       ?getLinearInertia@?$ClothImpl@VDxCloth@cloth@nv@@@cloth@nv@@UEBA?AVPxVec3@physx@@XZ 000000018005c870 f i DxCloth.obj
 0001:0005b8d0       ?getMotionConstraintBias@?$ClothImpl@VDxCloth@cloth@nv@@@cloth@nv@@UEBAMXZ 000000018005c8d0 f i DxCloth.obj
 0001:0005b920       ?getMotionConstraintScale@?$ClothImpl@VDxCloth@cloth@nv@@@cloth@nv@@UEBAMXZ 000000018005c920 f i DxCloth.obj
 0001:0005b970       ?getMotionConstraintStiffness@?$ClothImpl@VDxCloth@cloth@nv@@@cloth@nv@@UEBAMXZ 000000018005c970 f i DxCloth.obj
 0001:0005b9d0       ?getMotionConstraints@?$ClothImpl@VDxCloth@cloth@nv@@@cloth@nv@@UEAA?AU?$Range@VPxVec4@physx@@@23@XZ 000000018005c9d0 f i DxCloth.obj
 0001:0005ba70       ?getNumCapsules@?$ClothImpl@VDxCloth@cloth@nv@@@cloth@nv@@UEBAIXZ 000000018005ca70 f i DxCloth.obj
 0001:0005bac0       ?getNumConvexes@?$ClothImpl@VDxCloth@cloth@nv@@@cloth@nv@@UEBAIXZ 000000018005cac0 f i DxCloth.obj
 0001:0005bb10       ?getNumMotionConstraints@?$ClothImpl@VDxCloth@cloth@nv@@@cloth@nv@@UEBAIXZ 000000018005cb10 f i DxCloth.obj
 0001:0005bb60       ?getNumParticleAccelerations@?$ClothImpl@VDxCloth@cloth@nv@@@cloth@nv@@UEBAIXZ 000000018005cb60 f i DxCloth.obj
 0001:0005bbb0       ?getNumPlanes@?$ClothImpl@VDxCloth@cloth@nv@@@cloth@nv@@UEBAIXZ 000000018005cbb0 f i DxCloth.obj
 0001:0005bc00       ?getNumRestPositions@?$ClothImpl@VDxCloth@cloth@nv@@@cloth@nv@@UEBAIXZ 000000018005cc00 f i DxCloth.obj
 0001:0005bc50       ?getNumSelfCollisionIndices@?$ClothImpl@VDxCloth@cloth@nv@@@cloth@nv@@UEBAIXZ 000000018005cc50 f i DxCloth.obj
 0001:0005bca0       ?getNumSeparationConstraints@?$ClothImpl@VDxCloth@cloth@nv@@@cloth@nv@@UEBAIXZ 000000018005cca0 f i DxCloth.obj
 0001:0005bcf0       ?getNumSpheres@?$ClothImpl@VDxCloth@cloth@nv@@@cloth@nv@@UEBAIXZ 000000018005ccf0 f i DxCloth.obj
 0001:0005bd40       ?getNumTriangles@?$ClothImpl@VDxCloth@cloth@nv@@@cloth@nv@@UEBAIXZ 000000018005cd40 f i DxCloth.obj
 0001:0005bda0       ?getNumVirtualParticleWeights@?$ClothImpl@VDxCloth@cloth@nv@@@cloth@nv@@UEBAIXZ 000000018005cda0 f i DxCloth.obj
 0001:0005bdf0       ?getPreviousIterationDt@?$ClothImpl@VDxCloth@cloth@nv@@@cloth@nv@@UEBAMXZ 000000018005cdf0 f i DxCloth.obj
 0001:0005be30       ?getRotation@?$ClothImpl@VDxCloth@cloth@nv@@@cloth@nv@@UEBAAEBVPxQuat@physx@@XZ 000000018005ce30 f i DxCloth.obj
 0001:0005be50       ?getSelfCollisionDistance@?$ClothImpl@VDxCloth@cloth@nv@@@cloth@nv@@UEBAMXZ 000000018005ce50 f i DxCloth.obj
 0001:0005bea0       ?getSelfCollisionStiffness@?$ClothImpl@VDxCloth@cloth@nv@@@cloth@nv@@UEBAMXZ 000000018005cea0 f i DxCloth.obj
 0001:0005bf00       ?getSeparationConstraints@?$ClothImpl@VDxCloth@cloth@nv@@@cloth@nv@@UEAA?AU?$Range@VPxVec4@physx@@@23@XZ 000000018005cf00 f i DxCloth.obj
 0001:0005bfa0       ?getSleepAfterCount@?$ClothImpl@VDxCloth@cloth@nv@@@cloth@nv@@UEBAIXZ 000000018005cfa0 f i DxCloth.obj
 0001:0005bfc0       ?getSleepPassCount@?$ClothImpl@VDxCloth@cloth@nv@@@cloth@nv@@UEBAIXZ 000000018005cfc0 f i DxCloth.obj
 0001:0005bfe0       ?getSleepTestInterval@?$ClothImpl@VDxCloth@cloth@nv@@@cloth@nv@@UEBAIXZ 000000018005cfe0 f i DxCloth.obj
 0001:0005c000       ?getSleepThreshold@?$ClothImpl@VDxCloth@cloth@nv@@@cloth@nv@@UEBAMXZ 000000018005d000 f i DxCloth.obj
 0001:0005c040       ?getSolverFrequency@?$ClothImpl@VDxCloth@cloth@nv@@@cloth@nv@@UEBAMXZ 000000018005d040 f i DxCloth.obj
 0001:0005c080       ?getStiffnessFrequency@?$ClothImpl@VDxCloth@cloth@nv@@@cloth@nv@@UEBAMXZ 000000018005d080 f i DxCloth.obj
 0001:0005c0c0       ?getTetherConstraintScale@?$ClothImpl@VDxCloth@cloth@nv@@@cloth@nv@@UEBAMXZ 000000018005d0c0 f i DxCloth.obj
 0001:0005c110       ?getTetherConstraintStiffness@?$ClothImpl@VDxCloth@cloth@nv@@@cloth@nv@@UEBAMXZ 000000018005d110 f i DxCloth.obj
 0001:0005c170       ?getTranslation@?$ClothImpl@VDxCloth@cloth@nv@@@cloth@nv@@UEBAAEBVPxVec3@physx@@XZ 000000018005d170 f i DxCloth.obj
 0001:0005c190       ?getUserData@?$ClothImpl@VDxCloth@cloth@nv@@@cloth@nv@@UEBAPEAXXZ 000000018005d190 f i DxCloth.obj
 0001:0005c1e0       ?getWindVelocity@?$ClothImpl@VDxCloth@cloth@nv@@@cloth@nv@@UEBA?AVPxVec3@physx@@XZ 000000018005d1e0 f i DxCloth.obj
 0001:0005c240       ?grow@?$Array@UDxPhaseConfig@cloth@nv@@VNonTrackingAllocator@23@@shdfnd@physx@@IEAAXI@Z 000000018005d240 f i DxCloth.obj
 0001:0005c300       ?growAndPushBack@?$Array@PEAV?$DxBatchedVector@I@cloth@nv@@VNonTrackingAllocator@23@@shdfnd@physx@@IEAAAEAPEAV?$DxBatchedVector@I@cloth@nv@@AEBQEAV456@@Z 000000018005d300 f i DxCloth.obj
 0001:0005c520       ?growAndPushBack@?$Array@PEAV?$DxBatchedVector@U?$Vec4T@G@cloth@nv@@@cloth@nv@@VNonTrackingAllocator@23@@shdfnd@physx@@IEAAAEAPEAV?$DxBatchedVector@U?$Vec4T@G@cloth@nv@@@cloth@nv@@AEBQEAV456@@Z 000000018005d520 f i DxCloth.obj
 0001:0005c740       ?growAndPushBack@?$Array@PEAV?$DxBatchedVector@UDxPhaseConfig@cloth@nv@@@cloth@nv@@VNonTrackingAllocator@23@@shdfnd@physx@@IEAAAEAPEAV?$DxBatchedVector@UDxPhaseConfig@cloth@nv@@@cloth@nv@@AEBQEAV456@@Z 000000018005d740 f i DxCloth.obj
 0001:0005c960       ?growAndPushBack@?$Array@PEAV?$DxBatchedVector@UIndexPair@cloth@nv@@@cloth@nv@@VNonTrackingAllocator@23@@shdfnd@physx@@IEAAAEAPEAV?$DxBatchedVector@UIndexPair@cloth@nv@@@cloth@nv@@AEBQEAV456@@Z 000000018005d960 f i DxCloth.obj
 0001:0005cb80       ?growAndPushBack@?$Array@PEAV?$DxBatchedVector@VPxVec3@physx@@@cloth@nv@@VNonTrackingAllocator@23@@shdfnd@physx@@IEAAAEAPEAV?$DxBatchedVector@VPxVec3@physx@@@cloth@nv@@AEBQEAV456@@Z 000000018005db80 f i DxCloth.obj
 0001:0005cda0       ?growAndPushBack@?$Array@PEAV?$DxBatchedVector@VPxVec4@physx@@@cloth@nv@@VNonTrackingAllocator@23@@shdfnd@physx@@IEAAAEAPEAV?$DxBatchedVector@VPxVec4@physx@@@cloth@nv@@AEBQEAV456@@Z 000000018005dda0 f i DxCloth.obj
 0001:0005cfc0       ?growAndPushBack@?$Array@UDxPhaseConfig@cloth@nv@@VNonTrackingAllocator@23@@shdfnd@physx@@IEAAAEAUDxPhaseConfig@cloth@nv@@AEBU456@@Z 000000018005dfc0 f i DxCloth.obj
 0001:0005d240       ?ignoreVelocityDiscontinuity@?$ClothImpl@VDxCloth@cloth@nv@@@cloth@nv@@UEAAXXZ 000000018005e240 f i DxCloth.obj
 0001:0005d260       ?isAsleep@?$ClothImpl@VDxCloth@cloth@nv@@@cloth@nv@@UEBA_NXZ 000000018005e260 f i DxCloth.obj
 0001:0005d2b0       ?isContinuousCollisionEnabled@?$ClothImpl@VDxCloth@cloth@nv@@@cloth@nv@@UEBA_NXZ 000000018005e2b0 f i DxCloth.obj
 0001:0005d300       ?isInUserMemory@?$Array@PEAV?$DxBatchedVector@I@cloth@nv@@VNonTrackingAllocator@23@@shdfnd@physx@@QEBAIXZ 000000018005e300 f i DxCloth.obj
 0001:0005d320       ?isInUserMemory@?$Array@PEAV?$DxBatchedVector@U?$Vec4T@G@cloth@nv@@@cloth@nv@@VNonTrackingAllocator@23@@shdfnd@physx@@QEBAIXZ 000000018005e320 f i DxCloth.obj
 0001:0005d340       ?isInUserMemory@?$Array@PEAV?$DxBatchedVector@UDxPhaseConfig@cloth@nv@@@cloth@nv@@VNonTrackingAllocator@23@@shdfnd@physx@@QEBAIXZ 000000018005e340 f i DxCloth.obj
 0001:0005d360       ?isInUserMemory@?$Array@PEAV?$DxBatchedVector@UIndexPair@cloth@nv@@@cloth@nv@@VNonTrackingAllocator@23@@shdfnd@physx@@QEBAIXZ 000000018005e360 f i DxCloth.obj
 0001:0005d380       ?isInUserMemory@?$Array@PEAV?$DxBatchedVector@VPxVec3@physx@@@cloth@nv@@VNonTrackingAllocator@23@@shdfnd@physx@@QEBAIXZ 000000018005e380 f i DxCloth.obj
 0001:0005d3a0       ?isInUserMemory@?$Array@PEAV?$DxBatchedVector@VPxVec4@physx@@@cloth@nv@@VNonTrackingAllocator@23@@shdfnd@physx@@QEBAIXZ 000000018005e3a0 f i DxCloth.obj
 0001:0005d3c0       ?isInUserMemory@?$Array@UDxPhaseConfig@cloth@nv@@VNonTrackingAllocator@23@@shdfnd@physx@@QEBAIXZ 000000018005e3c0 f i DxCloth.obj
 0001:0005d3e0       ?isRawBuffer@DxBufferFlags@cloth@nv@@QEAA_NXZ 000000018005e3e0 f i DxCloth.obj
 0001:0005d440       ?isSleeping@?$ClothImpl@VDxCloth@cloth@nv@@@cloth@nv@@UEBA_NXZ 000000018005e440 f i DxCloth.obj
 0001:0005d4b0       ?manager@?$DxBatchedVector@I@cloth@nv@@QEBAPEAVDxContextManagerCallback@23@XZ 000000018005e4b0 f i DxCloth.obj
 0001:0005d4d0       ?manager@?$DxBatchedVector@UIndexPair@cloth@nv@@@cloth@nv@@QEBAPEAVDxContextManagerCallback@23@XZ 000000018005e4d0 f i DxCloth.obj
 0001:0005d4f0       ?manager@?$DxBatchedVector@VPxVec3@physx@@@cloth@nv@@QEBAPEAVDxContextManagerCallback@23@XZ 000000018005e4f0 f i DxCloth.obj
 0001:0005d510       ?manager@?$DxBatchedVector@VPxVec4@physx@@@cloth@nv@@QEBAPEAVDxContextManagerCallback@23@XZ 000000018005e510 f i DxCloth.obj
 0001:0005d530       ?map@?$DxBatchedStorage@I@cloth@nv@@AEAAPEAIW4D3D11_MAP@@@Z 000000018005e530 f i DxCloth.obj
 0001:0005d5c0       ?map@?$DxBatchedStorage@U?$Vec4T@G@cloth@nv@@@cloth@nv@@AEAAPEAU?$Vec4T@G@23@W4D3D11_MAP@@@Z 000000018005e5c0 f i DxCloth.obj
 0001:0005d650       ?map@?$DxBatchedStorage@UDxPhaseConfig@cloth@nv@@@cloth@nv@@AEAAPEAUDxPhaseConfig@23@W4D3D11_MAP@@@Z 000000018005e650 f i DxCloth.obj
 0001:0005d6e0       ?map@?$DxBatchedStorage@UIndexPair@cloth@nv@@@cloth@nv@@AEAAPEAUIndexPair@23@W4D3D11_MAP@@@Z 000000018005e6e0 f i DxCloth.obj
 0001:0005d770       ?map@?$DxBatchedStorage@VPxVec3@physx@@@cloth@nv@@AEAAPEAVPxVec3@physx@@W4D3D11_MAP@@@Z 000000018005e770 f i DxCloth.obj
 0001:0005d800       ?map@?$DxBatchedStorage@VPxVec4@physx@@@cloth@nv@@AEAAPEAVPxVec4@physx@@W4D3D11_MAP@@@Z 000000018005e800 f i DxCloth.obj
 0001:0005d890       ?map@?$DxBatchedVector@I@cloth@nv@@QEAAPEAIW4D3D11_MAP@@@Z 000000018005e890 f i DxCloth.obj
 0001:0005d920       ?map@?$DxBatchedVector@UIndexPair@cloth@nv@@@cloth@nv@@QEAAPEAUIndexPair@23@W4D3D11_MAP@@@Z 000000018005e920 f i DxCloth.obj
 0001:0005d9b0       ?map@?$DxBatchedVector@VPxVec3@physx@@@cloth@nv@@QEAAPEAVPxVec3@physx@@W4D3D11_MAP@@@Z 000000018005e9b0 f i DxCloth.obj
 0001:0005da40       ?map@?$DxBatchedVector@VPxVec4@physx@@@cloth@nv@@QEAAPEAVPxVec4@physx@@W4D3D11_MAP@@@Z 000000018005ea40 f i DxCloth.obj
 0001:0005dad0       ?map@?$DxBuffer@I@cloth@nv@@QEAAPEAIW4D3D11_MAP@@@Z 000000018005ead0 f i DxCloth.obj
 0001:0005db90       ?map@?$DxBuffer@U?$Vec4T@G@cloth@nv@@@cloth@nv@@QEAAPEAU?$Vec4T@G@23@W4D3D11_MAP@@@Z 000000018005eb90 f i DxCloth.obj
 0001:0005dc50       ?map@?$DxBuffer@UDxPhaseConfig@cloth@nv@@@cloth@nv@@QEAAPEAUDxPhaseConfig@23@W4D3D11_MAP@@@Z 000000018005ec50 f i DxCloth.obj
 0001:0005dd10       ?map@?$DxBuffer@UIndexPair@cloth@nv@@@cloth@nv@@QEAAPEAUIndexPair@23@W4D3D11_MAP@@@Z 000000018005ed10 f i DxCloth.obj
 0001:0005ddd0       ?map@?$DxBuffer@VPxVec3@physx@@@cloth@nv@@QEAAPEAVPxVec3@physx@@W4D3D11_MAP@@@Z 000000018005edd0 f i DxCloth.obj
 0001:0005de90       ?map@?$DxBuffer@VPxVec4@physx@@@cloth@nv@@QEAAPEAVPxVec4@physx@@W4D3D11_MAP@@@Z 000000018005ee90 f i DxCloth.obj
 0001:0005df50       ?pop@DxConstraints@cloth@nv@@QEAAXXZ 000000018005ef50 f i DxCloth.obj
 0001:0005dfd0       ?pushBack@?$Array@PEAV?$DxBatchedVector@I@cloth@nv@@VNonTrackingAllocator@23@@shdfnd@physx@@QEAAAEAPEAV?$DxBatchedVector@I@cloth@nv@@AEBQEAV456@@Z 000000018005efd0 f i DxCloth.obj
 0001:0005e0e0       ?pushBack@?$Array@PEAV?$DxBatchedVector@U?$Vec4T@G@cloth@nv@@@cloth@nv@@VNonTrackingAllocator@23@@shdfnd@physx@@QEAAAEAPEAV?$DxBatchedVector@U?$Vec4T@G@cloth@nv@@@cloth@nv@@AEBQEAV456@@Z 000000018005f0e0 f i DxCloth.obj
 0001:0005e1f0       ?pushBack@?$Array@PEAV?$DxBatchedVector@UDxPhaseConfig@cloth@nv@@@cloth@nv@@VNonTrackingAllocator@23@@shdfnd@physx@@QEAAAEAPEAV?$DxBatchedVector@UDxPhaseConfig@cloth@nv@@@cloth@nv@@AEBQEAV456@@Z 000000018005f1f0 f i DxCloth.obj
 0001:0005e300       ?pushBack@?$Array@PEAV?$DxBatchedVector@UIndexPair@cloth@nv@@@cloth@nv@@VNonTrackingAllocator@23@@shdfnd@physx@@QEAAAEAPEAV?$DxBatchedVector@UIndexPair@cloth@nv@@@cloth@nv@@AEBQEAV456@@Z 000000018005f300 f i DxCloth.obj
 0001:0005e410       ?pushBack@?$Array@PEAV?$DxBatchedVector@VPxVec3@physx@@@cloth@nv@@VNonTrackingAllocator@23@@shdfnd@physx@@QEAAAEAPEAV?$DxBatchedVector@VPxVec3@physx@@@cloth@nv@@AEBQEAV456@@Z 000000018005f410 f i DxCloth.obj
 0001:0005e520       ?pushBack@?$Array@PEAV?$DxBatchedVector@VPxVec4@physx@@@cloth@nv@@VNonTrackingAllocator@23@@shdfnd@physx@@QEAAAEAPEAV?$DxBatchedVector@VPxVec4@physx@@@cloth@nv@@AEBQEAV456@@Z 000000018005f520 f i DxCloth.obj
 0001:0005e630       ?pushBack@?$Array@UDxPhaseConfig@cloth@nv@@VNonTrackingAllocator@23@@shdfnd@physx@@QEAAAEAUDxPhaseConfig@cloth@nv@@AEBU456@@Z 000000018005f630 f i DxCloth.obj
 0001:0005e740       ?pushBack@?$DxVectorMap@V?$DxBatchedVector@VPxVec3@physx@@@cloth@nv@@@cloth@nv@@QEAAXAEBVPxVec3@physx@@@Z 000000018005f740 f i DxCloth.obj
 0001:0005e850       ?pushBack@?$DxVectorMap@V?$DxBatchedVector@VPxVec4@physx@@@cloth@nv@@@cloth@nv@@QEAAXAEBVPxVec4@physx@@@Z 000000018005f850 f i DxCloth.obj
 0001:0005e960       ?putToSleep@?$ClothImpl@VDxCloth@cloth@nv@@@cloth@nv@@UEAAXXZ 000000018005f960 f i DxCloth.obj
 0001:0005e990       ?recreate@?$Array@UDxPhaseConfig@cloth@nv@@VNonTrackingAllocator@23@@shdfnd@physx@@IEAAXI@Z 000000018005f990 f i DxCloth.obj
 0001:0005eb10       ?remove@?$Array@PEAV?$DxBatchedVector@I@cloth@nv@@VNonTrackingAllocator@23@@shdfnd@physx@@QEAAXI@Z 000000018005fb10 f i DxCloth.obj
 0001:0005ec70       ?remove@?$Array@PEAV?$DxBatchedVector@U?$Vec4T@G@cloth@nv@@@cloth@nv@@VNonTrackingAllocator@23@@shdfnd@physx@@QEAAXI@Z 000000018005fc70 f i DxCloth.obj
 0001:0005edd0       ?remove@?$Array@PEAV?$DxBatchedVector@UDxPhaseConfig@cloth@nv@@@cloth@nv@@VNonTrackingAllocator@23@@shdfnd@physx@@QEAAXI@Z 000000018005fdd0 f i DxCloth.obj
 0001:0005ef30       ?remove@?$Array@PEAV?$DxBatchedVector@UIndexPair@cloth@nv@@@cloth@nv@@VNonTrackingAllocator@23@@shdfnd@physx@@QEAAXI@Z 000000018005ff30 f i DxCloth.obj
 0001:0005f090       ?remove@?$Array@PEAV?$DxBatchedVector@VPxVec3@physx@@@cloth@nv@@VNonTrackingAllocator@23@@shdfnd@physx@@QEAAXI@Z 0000000180060090 f i DxCloth.obj
 0001:0005f1f0       ?remove@?$Array@PEAV?$DxBatchedVector@VPxVec4@physx@@@cloth@nv@@VNonTrackingAllocator@23@@shdfnd@physx@@QEAAXI@Z 00000001800601f0 f i DxCloth.obj
 0001:0005f350       ?remove@?$DxBatchedStorage@I@cloth@nv@@AEAAXPEAV?$DxBatchedVector@I@23@@Z 0000000180060350 f i DxCloth.obj
 0001:0005f450       ?remove@?$DxBatchedStorage@U?$Vec4T@G@cloth@nv@@@cloth@nv@@AEAAXPEAV?$DxBatchedVector@U?$Vec4T@G@cloth@nv@@@23@@Z 0000000180060450 f i DxCloth.obj
 0001:0005f550       ?remove@?$DxBatchedStorage@UDxPhaseConfig@cloth@nv@@@cloth@nv@@AEAAXPEAV?$DxBatchedVector@UDxPhaseConfig@cloth@nv@@@23@@Z 0000000180060550 f i DxCloth.obj
 0001:0005f650       ?remove@?$DxBatchedStorage@UIndexPair@cloth@nv@@@cloth@nv@@AEAAXPEAV?$DxBatchedVector@UIndexPair@cloth@nv@@@23@@Z 0000000180060650 f i DxCloth.obj
 0001:0005f750       ?remove@?$DxBatchedStorage@VPxVec3@physx@@@cloth@nv@@AEAAXPEAV?$DxBatchedVector@VPxVec3@physx@@@23@@Z 0000000180060750 f i DxCloth.obj
 0001:0005f850       ?remove@?$DxBatchedStorage@VPxVec4@physx@@@cloth@nv@@AEAAXPEAV?$DxBatchedVector@VPxVec4@physx@@@23@@Z 0000000180060850 f i DxCloth.obj
 0001:0005f950       ?replace@?$DxBatchedStorage@I@cloth@nv@@AEAAXIIPEBI0@Z 0000000180060950 f i DxCloth.obj
 0001:0005ffe0       ?replace@?$DxBatchedStorage@U?$Vec4T@G@cloth@nv@@@cloth@nv@@AEAAXIIPEBU?$Vec4T@G@23@0@Z 0000000180060fe0 f i DxCloth.obj
 0001:00060670       ?replace@?$DxBatchedStorage@UDxPhaseConfig@cloth@nv@@@cloth@nv@@AEAAXIIPEBUDxPhaseConfig@23@0@Z 0000000180061670 f i DxCloth.obj
 0001:00060d10       ?replace@?$DxBatchedStorage@UIndexPair@cloth@nv@@@cloth@nv@@AEAAXIIPEBUIndexPair@23@0@Z 0000000180061d10 f i DxCloth.obj
 0001:000613a0       ?replace@?$DxBatchedStorage@VPxVec3@physx@@@cloth@nv@@AEAAXIIPEBVPxVec3@physx@@0@Z 00000001800623a0 f i DxCloth.obj
 0001:00061a40       ?replace@?$DxBatchedStorage@VPxVec4@physx@@@cloth@nv@@AEAAXIIPEBVPxVec4@physx@@0@Z 0000000180062a40 f i DxCloth.obj
 0001:000620d0       ?replaceWithLast@?$DxVectorMap@V?$DxBatchedVector@I@cloth@nv@@@cloth@nv@@QEAAXPEAI@Z 00000001800630d0 f i DxCloth.obj
 0001:00062150       ?replaceWithLast@?$DxVectorMap@V?$DxBatchedVector@UIndexPair@cloth@nv@@@cloth@nv@@@cloth@nv@@QEAAXPEAUIndexPair@23@@Z 0000000180063150 f i DxCloth.obj
 0001:000621d0       ?reserve@?$Array@UDxPhaseConfig@cloth@nv@@VNonTrackingAllocator@23@@shdfnd@physx@@QEAAXI@Z 00000001800631d0 f i DxCloth.obj
 0001:00062230       ?reserve@?$DxBatchedStorage@I@cloth@nv@@AEAAXPEAV?$DxBatchedVector@I@23@I@Z 0000000180063230 f i DxCloth.obj
 0001:00062310       ?reserve@?$DxBatchedStorage@U?$Vec4T@G@cloth@nv@@@cloth@nv@@AEAAXPEAV?$DxBatchedVector@U?$Vec4T@G@cloth@nv@@@23@I@Z 0000000180063310 f i DxCloth.obj
 0001:000623f0       ?reserve@?$DxBatchedStorage@UDxPhaseConfig@cloth@nv@@@cloth@nv@@AEAAXPEAV?$DxBatchedVector@UDxPhaseConfig@cloth@nv@@@23@I@Z 00000001800633f0 f i DxCloth.obj
 0001:000624d0       ?reserve@?$DxBatchedStorage@UIndexPair@cloth@nv@@@cloth@nv@@AEAAXPEAV?$DxBatchedVector@UIndexPair@cloth@nv@@@23@I@Z 00000001800634d0 f i DxCloth.obj
 0001:000625b0       ?reserve@?$DxBatchedStorage@VPxVec3@physx@@@cloth@nv@@AEAAXPEAV?$DxBatchedVector@VPxVec3@physx@@@23@I@Z 00000001800635b0 f i DxCloth.obj
 0001:00062690       ?reserve@?$DxBatchedStorage@VPxVec4@physx@@@cloth@nv@@AEAAXPEAV?$DxBatchedVector@VPxVec4@physx@@@23@I@Z 0000000180063690 f i DxCloth.obj
 0001:00062770       ?reserve@?$DxBatchedVector@I@cloth@nv@@QEAAXI@Z 0000000180063770 f i DxCloth.obj
 0001:000627c0       ?reserve@?$DxBatchedVector@UIndexPair@cloth@nv@@@cloth@nv@@QEAAXI@Z 00000001800637c0 f i DxCloth.obj
 0001:00062810       ?reserve@?$DxBatchedVector@VPxVec3@physx@@@cloth@nv@@QEAAXI@Z 0000000180063810 f i DxCloth.obj
 0001:00062860       ?reserve@?$DxBatchedVector@VPxVec4@physx@@@cloth@nv@@QEAAXI@Z 0000000180063860 f i DxCloth.obj
 0001:000628b0       ?reserve@?$DxBuffer@I@cloth@nv@@QEAAXI@Z 00000001800638b0 f i DxCloth.obj
 0001:00062a50       ?reserve@?$DxBuffer@U?$Vec4T@G@cloth@nv@@@cloth@nv@@QEAAXI@Z 0000000180063a50 f i DxCloth.obj
 0001:00062bf0       ?reserve@?$DxBuffer@UDxPhaseConfig@cloth@nv@@@cloth@nv@@QEAAXI@Z 0000000180063bf0 f i DxCloth.obj
 0001:00062d90       ?reserve@?$DxBuffer@UIndexPair@cloth@nv@@@cloth@nv@@QEAAXI@Z 0000000180063d90 f i DxCloth.obj
 0001:00062f30       ?reserve@?$DxBuffer@VPxVec3@physx@@@cloth@nv@@QEAAXI@Z 0000000180063f30 f i DxCloth.obj
 0001:000630d0       ?reserve@?$DxBuffer@VPxVec4@physx@@@cloth@nv@@QEAAXI@Z 00000001800640d0 f i DxCloth.obj
 0001:00063270       ?resize@?$DxBatchedVector@I@cloth@nv@@QEAAXI@Z 0000000180064270 f i DxCloth.obj
 0001:000632d0       ?resize@?$DxBatchedVector@UIndexPair@cloth@nv@@@cloth@nv@@QEAAXI@Z 00000001800642d0 f i DxCloth.obj
 0001:00063330       ?resize@?$DxBatchedVector@VPxVec3@physx@@@cloth@nv@@QEAAXI@Z 0000000180064330 f i DxCloth.obj
 0001:00063390       ?resize@?$DxBatchedVector@VPxVec4@physx@@@cloth@nv@@QEAAXI@Z 0000000180064390 f i DxCloth.obj
 0001:000633f0       ?resize@?$DxVectorMap@V?$DxBatchedVector@I@cloth@nv@@@cloth@nv@@QEAAXIAEBI@Z 00000001800643f0 f i DxCloth.obj
 0001:000634c0       ?resize@?$DxVectorMap@V?$DxBatchedVector@UIndexPair@cloth@nv@@@cloth@nv@@@cloth@nv@@QEAAXIAEBUIndexPair@23@@Z 00000001800644c0 f i DxCloth.obj
 0001:00063590       ?resize@?$DxVectorMap@V?$DxBatchedVector@VPxVec3@physx@@@cloth@nv@@@cloth@nv@@QEAAXIAEBVPxVec3@physx@@@Z 0000000180064590 f i DxCloth.obj
 0001:00063660       ?resize@?$DxVectorMap@V?$DxBatchedVector@VPxVec4@physx@@@cloth@nv@@@cloth@nv@@QEAAXIAEBVPxVec4@physx@@@Z 0000000180064660 f i DxCloth.obj
 0001:00063730       ?resizeUninitialized@?$Array@VPxVec4@physx@@VNonTrackingAllocator@cloth@nv@@@shdfnd@physx@@QEAAXI@Z 0000000180064730 f i DxCloth.obj
 0001:00063790       ?setAcceleationFilterWidth@?$ClothImpl@VDxCloth@cloth@nv@@@cloth@nv@@UEAAXI@Z 0000000180064790 f i DxCloth.obj
 0001:000637e0       ?setAngularDrag@?$ClothImpl@VDxCloth@cloth@nv@@@cloth@nv@@UEAAXAEBVPxVec3@physx@@@Z 00000001800647e0 f i DxCloth.obj
 0001:000638c0       ?setAngularInertia@?$ClothImpl@VDxCloth@cloth@nv@@@cloth@nv@@UEAAXAEBVPxVec3@physx@@@Z 00000001800648c0 f i DxCloth.obj
 0001:00063980       ?setCapsules@?$ClothImpl@VDxCloth@cloth@nv@@@cloth@nv@@UEAAXU?$Range@$$CBI@23@II@Z 0000000180064980 f i DxCloth.obj
 0001:00063f20       ?setCentrifugalInertia@?$ClothImpl@VDxCloth@cloth@nv@@@cloth@nv@@UEAAXAEBVPxVec3@physx@@@Z 0000000180064f20 f i DxCloth.obj
 0001:00063fe0       ?setCollisionMassScale@?$ClothImpl@VDxCloth@cloth@nv@@@cloth@nv@@UEAAXM@Z 0000000180064fe0 f i DxCloth.obj
 0001:00064090       ?setConvexes@?$ClothImpl@VDxCloth@cloth@nv@@@cloth@nv@@UEAAXU?$Range@$$CBI@23@II@Z 0000000180065090 f i DxCloth.obj
 0001:000645c0       ?setDamping@?$ClothImpl@VDxCloth@cloth@nv@@@cloth@nv@@UEAAXAEBVPxVec3@physx@@@Z 00000001800655c0 f i DxCloth.obj
 0001:000646a0       ?setDragCoefficient@?$ClothImpl@VDxCloth@cloth@nv@@@cloth@nv@@UEAAXM@Z 00000001800656a0 f i DxCloth.obj
 0001:000647d0       ?setFluidDensity@?$ClothImpl@VDxCloth@cloth@nv@@@cloth@nv@@UEAAXM@Z 00000001800657d0 f i DxCloth.obj
 0001:000648e0       ?setFriction@?$ClothImpl@VDxCloth@cloth@nv@@@cloth@nv@@UEAAXM@Z 00000001800658e0 f i DxCloth.obj
 0001:00064950       ?setGravity@?$ClothImpl@VDxCloth@cloth@nv@@@cloth@nv@@UEAAXAEBVPxVec3@physx@@@Z 0000000180065950 f i DxCloth.obj
 0001:00064a10       ?setLiftCoefficient@?$ClothImpl@VDxCloth@cloth@nv@@@cloth@nv@@UEAAXM@Z 0000000180065a10 f i DxCloth.obj
 0001:00064b40       ?setLinearDrag@?$ClothImpl@VDxCloth@cloth@nv@@@cloth@nv@@UEAAXAEBVPxVec3@physx@@@Z 0000000180065b40 f i DxCloth.obj
 0001:00064c20       ?setLinearInertia@?$ClothImpl@VDxCloth@cloth@nv@@@cloth@nv@@UEAAXAEBVPxVec3@physx@@@Z 0000000180065c20 f i DxCloth.obj
 0001:00064ce0       ?setMotionConstraintScaleBias@?$ClothImpl@VDxCloth@cloth@nv@@@cloth@nv@@UEAAXMM@Z 0000000180065ce0 f i DxCloth.obj
 0001:00064dd0       ?setMotionConstraintStiffness@?$ClothImpl@VDxCloth@cloth@nv@@@cloth@nv@@UEAAXM@Z 0000000180065dd0 f i DxCloth.obj
 0001:00064ea0       ?setPlanes@?$ClothImpl@VDxCloth@cloth@nv@@@cloth@nv@@UEAAXU?$Range@$$CBVPxVec4@physx@@@23@II@Z 0000000180065ea0 f i DxCloth.obj
 0001:00065b60       ?setRestPositions@?$ClothImpl@VDxCloth@cloth@nv@@@cloth@nv@@UEAAXU?$Range@$$CBVPxVec4@physx@@@23@@Z 0000000180066b60 f i DxCloth.obj
 0001:00065d30       ?setRotation@?$ClothImpl@VDxCloth@cloth@nv@@@cloth@nv@@UEAAXAEBVPxQuat@physx@@@Z 0000000180066d30 f i DxCloth.obj
 0001:00065dd0       ?setSelfCollisionDistance@?$ClothImpl@VDxCloth@cloth@nv@@@cloth@nv@@UEAAXM@Z 0000000180066dd0 f i DxCloth.obj
 0001:00065e80       ?setSelfCollisionStiffness@?$ClothImpl@VDxCloth@cloth@nv@@@cloth@nv@@UEAAXM@Z 0000000180066e80 f i DxCloth.obj
 0001:00065fc0       ?setSleepAfterCount@?$ClothImpl@VDxCloth@cloth@nv@@@cloth@nv@@UEAAXI@Z 0000000180066fc0 f i DxCloth.obj
 0001:00066050       ?setSleepTestInterval@?$ClothImpl@VDxCloth@cloth@nv@@@cloth@nv@@UEAAXI@Z 0000000180067050 f i DxCloth.obj
 0001:000660e0       ?setSleepThreshold@?$ClothImpl@VDxCloth@cloth@nv@@@cloth@nv@@UEAAXM@Z 00000001800670e0 f i DxCloth.obj
 0001:00066180       ?setSolverFrequency@?$ClothImpl@VDxCloth@cloth@nv@@@cloth@nv@@UEAAXM@Z 0000000180067180 f i DxCloth.obj
 0001:00066230       ?setSpheres@?$ClothImpl@VDxCloth@cloth@nv@@@cloth@nv@@UEAAXU?$Range@$$CBVPxVec4@physx@@@23@II@Z 0000000180067230 f i DxCloth.obj
 0001:00066dc0       ?setStiffnessFrequency@?$ClothImpl@VDxCloth@cloth@nv@@@cloth@nv@@UEAAXM@Z 0000000180067dc0 f i DxCloth.obj
 0001:00066e40       ?setTetherConstraintScale@?$ClothImpl@VDxCloth@cloth@nv@@@cloth@nv@@UEAAXM@Z 0000000180067e40 f i DxCloth.obj
 0001:00066ef0       ?setTetherConstraintStiffness@?$ClothImpl@VDxCloth@cloth@nv@@@cloth@nv@@UEAAXM@Z 0000000180067ef0 f i DxCloth.obj
 0001:00066fc0       ?setTranslation@?$ClothImpl@VDxCloth@cloth@nv@@@cloth@nv@@UEAAXAEBVPxVec3@physx@@@Z 0000000180067fc0 f i DxCloth.obj
 0001:00067080       ?setTriangles@?$ClothImpl@VDxCloth@cloth@nv@@@cloth@nv@@UEAAXU?$Range@$$CBVPxVec3@physx@@@23@0I@Z 0000000180068080 f i DxCloth.obj
 0001:00067770       ?setTriangles@?$ClothImpl@VDxCloth@cloth@nv@@@cloth@nv@@UEAAXU?$Range@$$CBVPxVec3@physx@@@23@II@Z 0000000180068770 f i DxCloth.obj
 0001:000680f0       ?setUserData@?$ClothImpl@VDxCloth@cloth@nv@@@cloth@nv@@UEAAXPEAX@Z 00000001800690f0 f i DxCloth.obj
 0001:00068140       ?setWindVelocity@?$ClothImpl@VDxCloth@cloth@nv@@@cloth@nv@@UEAAXVPxVec3@physx@@@Z 0000000180069140 f i DxCloth.obj
 0001:000681f0       ?size@?$Array@PEAV?$DxBatchedVector@I@cloth@nv@@VNonTrackingAllocator@23@@shdfnd@physx@@QEBAIXZ 00000001800691f0 f i DxCloth.obj
 0001:00068210       ?size@?$Array@PEAV?$DxBatchedVector@U?$Vec4T@G@cloth@nv@@@cloth@nv@@VNonTrackingAllocator@23@@shdfnd@physx@@QEBAIXZ 0000000180069210 f i DxCloth.obj
 0001:00068230       ?size@?$Array@PEAV?$DxBatchedVector@UDxPhaseConfig@cloth@nv@@@cloth@nv@@VNonTrackingAllocator@23@@shdfnd@physx@@QEBAIXZ 0000000180069230 f i DxCloth.obj
 0001:00068250       ?size@?$Array@PEAV?$DxBatchedVector@UIndexPair@cloth@nv@@@cloth@nv@@VNonTrackingAllocator@23@@shdfnd@physx@@QEBAIXZ 0000000180069250 f i DxCloth.obj
 0001:00068270       ?size@?$Array@PEAV?$DxBatchedVector@VPxVec3@physx@@@cloth@nv@@VNonTrackingAllocator@23@@shdfnd@physx@@QEBAIXZ 0000000180069270 f i DxCloth.obj
 0001:00068290       ?size@?$Array@PEAV?$DxBatchedVector@VPxVec4@physx@@@cloth@nv@@VNonTrackingAllocator@23@@shdfnd@physx@@QEBAIXZ 0000000180069290 f i DxCloth.obj
 0001:000682b0       ?size@?$Array@UDxPhaseConfig@cloth@nv@@VNonTrackingAllocator@23@@shdfnd@physx@@QEBAIXZ 00000001800692b0 f i DxCloth.obj
 0001:000682d0       ?size@?$DxBatchedVector@I@cloth@nv@@QEBAIXZ 00000001800692d0 f i DxCloth.obj
 0001:000682f0       ?size@?$DxBatchedVector@U?$Vec4T@G@cloth@nv@@@cloth@nv@@QEBAIXZ 00000001800692f0 f i DxCloth.obj
 0001:00068310       ?size@?$DxBatchedVector@UDxPhaseConfig@cloth@nv@@@cloth@nv@@QEBAIXZ 0000000180069310 f i DxCloth.obj
 0001:00068330       ?size@?$DxBatchedVector@UIndexPair@cloth@nv@@@cloth@nv@@QEBAIXZ 0000000180069330 f i DxCloth.obj
 0001:00068350       ?size@?$DxBatchedVector@VPxVec3@physx@@@cloth@nv@@QEBAIXZ 0000000180069350 f i DxCloth.obj
 0001:00068370       ?size@?$DxBatchedVector@VPxVec4@physx@@@cloth@nv@@QEBAIXZ 0000000180069370 f i DxCloth.obj
 0001:00068390       ?size@?$DxVectorMap@V?$DxBatchedVector@VPxVec3@physx@@@cloth@nv@@@cloth@nv@@QEBAIXZ 0000000180069390 f i DxCloth.obj
 0001:000683d0       ?size@?$DxVectorMap@V?$DxBatchedVector@VPxVec4@physx@@@cloth@nv@@@cloth@nv@@QEBAIXZ 00000001800693d0 f i DxCloth.obj
 0001:00068410       ?swap@?$Array@VPxVec4@physx@@VNonTrackingAllocator@cloth@nv@@@shdfnd@physx@@QEAAXAEAV123@@Z 0000000180069410 f i DxCloth.obj
 0001:000684a0       ?swap@?$DxBatchedVector@VPxVec4@physx@@@cloth@nv@@QEAAXAEAV123@@Z 00000001800694a0 f i DxCloth.obj
 0001:000685b0       ?teleport@?$ClothImpl@VDxCloth@cloth@nv@@@cloth@nv@@UEAAXAEBVPxVec3@physx@@@Z 00000001800695b0 f i DxCloth.obj
 0001:00068620       ?teleportToLocation@?$ClothImpl@VDxCloth@cloth@nv@@@cloth@nv@@UEAAXAEBVPxVec3@physx@@AEBVPxQuat@5@@Z 0000000180069620 f i DxCloth.obj
 0001:000686d0       ?unmap@?$DxBatchedStorage@I@cloth@nv@@AEAAXXZ 00000001800696d0 f i DxCloth.obj
 0001:00068750       ?unmap@?$DxBatchedStorage@U?$Vec4T@G@cloth@nv@@@cloth@nv@@AEAAXXZ 0000000180069750 f i DxCloth.obj
 0001:000687d0       ?unmap@?$DxBatchedStorage@UDxPhaseConfig@cloth@nv@@@cloth@nv@@AEAAXXZ 00000001800697d0 f i DxCloth.obj
 0001:00068850       ?unmap@?$DxBatchedStorage@UIndexPair@cloth@nv@@@cloth@nv@@AEAAXXZ 0000000180069850 f i DxCloth.obj
 0001:000688d0       ?unmap@?$DxBatchedStorage@VPxVec3@physx@@@cloth@nv@@AEAAXXZ 00000001800698d0 f i DxCloth.obj
 0001:00068950       ?unmap@?$DxBatchedStorage@VPxVec4@physx@@@cloth@nv@@AEAAXXZ 0000000180069950 f i DxCloth.obj
 0001:000689d0       ?unmap@?$DxBatchedVector@I@cloth@nv@@QEAAXXZ 00000001800699d0 f i DxCloth.obj
 0001:00068a10       ?unmap@?$DxBatchedVector@UIndexPair@cloth@nv@@@cloth@nv@@QEAAXXZ 0000000180069a10 f i DxCloth.obj
 0001:00068a50       ?unmap@?$DxBatchedVector@VPxVec3@physx@@@cloth@nv@@QEAAXXZ 0000000180069a50 f i DxCloth.obj
 0001:00068a90       ?unmap@?$DxBatchedVector@VPxVec4@physx@@@cloth@nv@@QEAAXXZ 0000000180069a90 f i DxCloth.obj
 0001:00068ad0       ?unmap@?$DxBuffer@I@cloth@nv@@QEAAXXZ 0000000180069ad0 f i DxCloth.obj
 0001:00068b40       ?unmap@?$DxBuffer@U?$Vec4T@G@cloth@nv@@@cloth@nv@@QEAAXXZ 0000000180069b40 f i DxCloth.obj
 0001:00068bb0       ?unmap@?$DxBuffer@UDxPhaseConfig@cloth@nv@@@cloth@nv@@QEAAXXZ 0000000180069bb0 f i DxCloth.obj
 0001:00068c20       ?unmap@?$DxBuffer@UIndexPair@cloth@nv@@@cloth@nv@@QEAAXXZ 0000000180069c20 f i DxCloth.obj
 0001:00068c90       ?unmap@?$DxBuffer@VPxVec3@physx@@@cloth@nv@@QEAAXXZ 0000000180069c90 f i DxCloth.obj
 0001:00068d00       ?unmap@?$DxBuffer@VPxVec4@physx@@@cloth@nv@@QEAAXXZ 0000000180069d00 f i DxCloth.obj
 0001:00068d70       ?update@?$DxBatchedStorage@I@cloth@nv@@AEAAXPEAV?$DxBatchedVector@I@23@H@Z 0000000180069d70 f i DxCloth.obj
 0001:00068eb0       ?update@?$DxBatchedStorage@U?$Vec4T@G@cloth@nv@@@cloth@nv@@AEAAXPEAV?$DxBatchedVector@U?$Vec4T@G@cloth@nv@@@23@H@Z 0000000180069eb0 f i DxCloth.obj
 0001:00068ff0       ?update@?$DxBatchedStorage@UDxPhaseConfig@cloth@nv@@@cloth@nv@@AEAAXPEAV?$DxBatchedVector@UDxPhaseConfig@cloth@nv@@@23@H@Z 0000000180069ff0 f i DxCloth.obj
 0001:00069130       ?update@?$DxBatchedStorage@UIndexPair@cloth@nv@@@cloth@nv@@AEAAXPEAV?$DxBatchedVector@UIndexPair@cloth@nv@@@23@H@Z 000000018006a130 f i DxCloth.obj
 0001:00069270       ?update@?$DxBatchedStorage@VPxVec3@physx@@@cloth@nv@@AEAAXPEAV?$DxBatchedVector@VPxVec3@physx@@@23@H@Z 000000018006a270 f i DxCloth.obj
 0001:000693b0       ?update@?$DxBatchedStorage@VPxVec4@physx@@@cloth@nv@@AEAAXPEAV?$DxBatchedVector@VPxVec4@physx@@@23@H@Z 000000018006a3b0 f i DxCloth.obj
 0001:000694f0       ?wakeUp@?$ClothImpl@VDxCloth@cloth@nv@@@cloth@nv@@UEAAXXZ 000000018006a4f0 f i DxCloth.obj
 0001:00069510       ?clone@DxFactory@cloth@nv@@UEAAPEAVCloth@23@AEBV423@@Z 000000018006a510 f   DxClothClone.obj
 0001:000695b0       ?clone@DxCloth@cloth@nv@@UEBAPEAVCloth@23@AEAVFactory@23@@Z 000000018006a5b0 f   DxClothClone.obj
 0001:000696a0       ?getPhaseConfigs@cloth@nv@@YA?AU?$Range@$$CBUPhaseConfig@cloth@nv@@@12@AEBVDxCloth@12@@Z 000000018006a6a0 f   DxClothClone.obj
 0001:000696f0       ?setPhaseConfigs@cloth@nv@@YAXAEAVDxCloth@12@U?$Range@$$CBUPhaseConfig@cloth@nv@@@12@@Z 000000018006a6f0 f   DxClothClone.obj
 0001:00069750       ?getParticleAccelerations@cloth@nv@@YA?AU?$Range@$$CBVPxVec4@physx@@@12@AEBVDxCloth@12@@Z 000000018006a750 f   DxClothClone.obj
 0001:000697a0       ?getSelfCollisionIndices@cloth@nv@@YA?AU?$Range@$$CBI@12@AEBVDxCloth@12@@Z 000000018006a7a0 f   DxClothClone.obj
 0001:000698a0       ??$convertCloth@VDxFactory@cloth@nv@@VDxCloth@23@@cloth@nv@@YAPEAVDxCloth@01@AEAVDxFactory@01@AEBV201@@Z 000000018006a8a0 f i DxClothClone.obj
 0001:0006ac90       ??$convertCloth@VDxFactory@cloth@nv@@VSwCloth@23@@cloth@nv@@YAPEAVDxCloth@01@AEAVDxFactory@01@AEBVSwCloth@01@@Z 000000018006bc90 f i DxClothClone.obj
 0001:0006c070       ??$convertCloth@VSwFactory@cloth@nv@@VDxCloth@23@@cloth@nv@@YAPEAVSwCloth@01@AEAVSwFactory@01@AEBVDxCloth@01@@Z 000000018006d070 f i DxClothClone.obj
 0001:0006d450       ??$convertFabric@VDxFabric@cloth@nv@@VDxFactory@23@@cloth@nv@@YAPEAVDxFabric@01@AEBV201@AEAVDxFactory@01@@Z 000000018006e450 f i DxClothClone.obj
 0001:0006dfc0       ??$convertFabric@VDxFabric@cloth@nv@@VSwFactory@23@@cloth@nv@@YAPEAVSwFabric@01@AEBVDxFabric@01@AEAVSwFactory@01@@Z 000000018006efc0 f i DxClothClone.obj
 0001:0006eb30       ??$convertFabric@VSwFabric@cloth@nv@@VDxFactory@23@@cloth@nv@@YAPEAVDxFabric@01@AEBVSwFabric@01@AEAVDxFactory@01@@Z 000000018006fb30 f i DxClothClone.obj
 0001:0006f6a0       ??$copy@VDxCloth@cloth@nv@@VSwCloth@23@@cloth@nv@@YAXAEAVDxCloth@01@AEBVSwCloth@01@@Z 00000001800706a0 f i DxClothClone.obj
 0001:0006fb60       ??$copy@VSwCloth@cloth@nv@@VDxCloth@23@@cloth@nv@@YAXAEAVSwCloth@01@AEBVDxCloth@01@@Z 0000000180070b60 f i DxClothClone.obj
 0001:00070020       ?begin@?$Array@PEAVDxFabric@cloth@nv@@VNonTrackingAllocator@23@@shdfnd@physx@@QEAAPEAPEAVDxFabric@cloth@nv@@XZ 0000000180071020 f i DxClothClone.obj
 0001:00070040       ?end@?$Array@PEAVDxFabric@cloth@nv@@VNonTrackingAllocator@23@@shdfnd@physx@@QEAAPEAPEAVDxFabric@cloth@nv@@XZ 0000000180071040 f i DxClothClone.obj
 0001:00070070       ??0DxTether@cloth@nv@@QEAA@GG@Z 0000000180071070 f   DxClothData.obj
 0001:000700b0       ??0DxClothData@cloth@nv@@QEAA@AEAVDxCloth@12@@Z 00000001800710b0 f   DxClothData.obj
 0001:00070490       ??0DxFrameData@cloth@nv@@QEAA@AEAVDxCloth@12@IAEBU?$IterationState@T__m128@@@12@I@Z 0000000180071490 f   DxClothData.obj
 0001:00070d20       ??0DxIterationData@cloth@nv@@QEAA@AEBU?$IterationState@T__m128@@@12@@Z 0000000180071d20 f   DxClothData.obj
 0001:00071540       ?empty@?$DxBatchedVector@M@cloth@nv@@QEBA_NXZ 0000000180072540 f i DxClothData.obj
 0001:000715a0       ?empty@?$DxBatchedVector@VPxVec3@physx@@@cloth@nv@@QEBA_NXZ 00000001800725a0 f i DxClothData.obj
 0001:00071600       ?size@?$DxBatchedVector@UDxTether@cloth@nv@@@cloth@nv@@QEBAIXZ 0000000180072600 f i DxClothData.obj
 0001:00071620       ??0DxContextLock@cloth@nv@@QEAA@AEBVDxFactory@12@@Z 0000000180072620 f   DxContextLock.obj
 0001:00071670       ??0DxContextLock@cloth@nv@@QEAA@PEAVDxContextManagerCallback@12@@Z 0000000180072670 f   DxContextLock.obj
 0001:000716c0       ??1DxContextLock@cloth@nv@@QEAA@XZ 00000001800726c0 f   DxContextLock.obj
 0001:00071700       ?acquire@DxContextLock@cloth@nv@@QEAAXXZ 0000000180072700 f   DxContextLock.obj
 0001:00071740       ?release@DxContextLock@cloth@nv@@QEAAXXZ 0000000180072740 f   DxContextLock.obj
 0001:000717d0       ??0DxFabric@cloth@nv@@QEAA@AEAVDxFactory@12@IU?$Range@$$CBI@12@1U?$Range@$$CBM@12@21121I@Z 00000001800727d0 f   DxFabric.obj
 0001:000723f0       ??1DxFabric@cloth@nv@@UEAA@XZ 00000001800733f0 f   DxFabric.obj
 0001:000725b0       ?getFactory@DxFabric@cloth@nv@@UEBAAEAVFactory@23@XZ 00000001800735b0 f   DxFabric.obj
 0001:000725d0       ?getNumPhases@DxFabric@cloth@nv@@UEBAIXZ 00000001800735d0 f   DxFabric.obj
 0001:00072610       ?getNumRestvalues@DxFabric@cloth@nv@@UEBAIXZ 0000000180073610 f   DxFabric.obj
 0001:00072650       ?getNumStiffnessValues@DxFabric@cloth@nv@@UEBAIXZ 0000000180073650 f   DxFabric.obj
 0001:00072690       ?getNumSets@DxFabric@cloth@nv@@UEBAIXZ 0000000180073690 f   DxFabric.obj
 0001:000726d0       ?getNumIndices@DxFabric@cloth@nv@@UEBAIXZ 00000001800736d0 f   DxFabric.obj
 0001:00072710       ?getNumParticles@DxFabric@cloth@nv@@UEBAIXZ 0000000180073710 f   DxFabric.obj
 0001:00072730       ?getNumTethers@DxFabric@cloth@nv@@UEBAIXZ 0000000180073730 f   DxFabric.obj
 0001:00072770       ?getNumTriangles@DxFabric@cloth@nv@@UEBAIXZ 0000000180073770 f   DxFabric.obj
 0001:000727a0       ?scaleRestvalues@DxFabric@cloth@nv@@UEAAXM@Z 00000001800737a0 f   DxFabric.obj
 0001:00072970       ?scaleTetherLengths@DxFabric@cloth@nv@@UEAAXM@Z 0000000180073970 f   DxFabric.obj
 0001:00072e20       ??$?4VNonTrackingAllocator@cloth@nv@@@?$DxBatchedVector@UDxConstraint@cloth@nv@@@cloth@nv@@QEAAAEAV012@AEBV?$Array@UDxConstraint@cloth@nv@@VNonTrackingAllocator@23@@shdfnd@physx@@@Z 0000000180073e20 f i DxFabric.obj
 0001:00072ea0       ??$swap@M@shdfnd@physx@@YAXAEAV?$DxBuffer@M@cloth@nv@@0@Z 0000000180073ea0 f i DxFabric.obj
 0001:00072fa0       ??$swap@UDxConstraint@cloth@nv@@@shdfnd@physx@@YAXAEAV?$DxBuffer@UDxConstraint@cloth@nv@@@cloth@nv@@0@Z 0000000180073fa0 f i DxFabric.obj
 0001:000730a0       ??$swap@UDxTether@cloth@nv@@@shdfnd@physx@@YAXAEAV?$DxBuffer@UDxTether@cloth@nv@@@cloth@nv@@0@Z 00000001800740a0 f i DxFabric.obj
 0001:000731a0       ??0?$Array@IVNonTrackingAllocator@cloth@nv@@@shdfnd@physx@@QEAA@PEBI0AEBVNonTrackingAllocator@cloth@nv@@@Z 00000001800741a0 f i DxFabric.obj
 0001:000732a0       ??0?$Array@UDxConstraint@cloth@nv@@VNonTrackingAllocator@23@@shdfnd@physx@@QEAA@AEBVNonTrackingAllocator@cloth@nv@@@Z 00000001800742a0 f i DxFabric.obj
 0001:000732f0       ??0?$Array@UDxConstraint@cloth@nv@@VNonTrackingAllocator@23@@shdfnd@physx@@QEAA@IAEBUDxConstraint@cloth@nv@@AEBVNonTrackingAllocator@45@@Z 00000001800742f0 f i DxFabric.obj
 0001:00073380       ??0?$Array@UDxTether@cloth@nv@@VNonTrackingAllocator@23@@shdfnd@physx@@QEAA@AEBVNonTrackingAllocator@cloth@nv@@@Z 0000000180074380 f i DxFabric.obj
 0001:000733d0       ??0?$DxBatchedVector@M@cloth@nv@@QEAA@AEAV?$DxBatchedStorage@M@12@@Z 00000001800743d0 f i DxFabric.obj
 0001:00073450       ??0?$DxBatchedVector@UDxConstraint@cloth@nv@@@cloth@nv@@QEAA@AEAV?$DxBatchedStorage@UDxConstraint@cloth@nv@@@12@@Z 0000000180074450 f i DxFabric.obj
 0001:000734d0       ??0?$DxBatchedVector@UDxTether@cloth@nv@@@cloth@nv@@QEAA@AEAV?$DxBatchedStorage@UDxTether@cloth@nv@@@12@@Z 00000001800744d0 f i DxFabric.obj
 0001:00073550       ??0?$DxBuffer@M@cloth@nv@@QEAA@PEAVDxContextManagerCallback@12@AEBUDxBufferFlags@12@@Z 0000000180074550 f i DxFabric.obj
 0001:000735f0       ??0?$DxBuffer@UDxConstraint@cloth@nv@@@cloth@nv@@QEAA@PEAVDxContextManagerCallback@12@AEBUDxBufferFlags@12@@Z 00000001800745f0 f i DxFabric.obj
 0001:00073690       ??0?$DxBuffer@UDxTether@cloth@nv@@@cloth@nv@@QEAA@PEAVDxContextManagerCallback@12@AEBUDxBufferFlags@12@@Z 0000000180074690 f i DxFabric.obj
 0001:00073730       ??1?$Array@UDxConstraint@cloth@nv@@VNonTrackingAllocator@23@@shdfnd@physx@@QEAA@XZ 0000000180074730 f i DxFabric.obj
 0001:000737d0       ??1?$Array@UDxTether@cloth@nv@@VNonTrackingAllocator@23@@shdfnd@physx@@QEAA@XZ 00000001800747d0 f i DxFabric.obj
 0001:00073870       ??1?$DxBatchedVector@M@cloth@nv@@QEAA@XZ 0000000180074870 f i DxFabric.obj
 0001:000738c0       ??1?$DxBatchedVector@UDxConstraint@cloth@nv@@@cloth@nv@@QEAA@XZ 00000001800748c0 f i DxFabric.obj
 0001:00073910       ??1?$DxBatchedVector@UDxTether@cloth@nv@@@cloth@nv@@QEAA@XZ 0000000180074910 f i DxFabric.obj
 0001:00073960       ??1?$DxBuffer@M@cloth@nv@@QEAA@XZ 0000000180074960 f i DxFabric.obj
 0001:00073a50       ??1?$DxBuffer@UDxConstraint@cloth@nv@@@cloth@nv@@QEAA@XZ 0000000180074a50 f i DxFabric.obj
 0001:00073b40       ??1?$DxBuffer@UDxTether@cloth@nv@@@cloth@nv@@QEAA@XZ 0000000180074b40 f i DxFabric.obj
 0001:00073c30       ??_GDxFabric@cloth@nv@@UEAAPEAXI@Z 0000000180074c30 f i DxFabric.obj
 0001:00073c30       ??_EDxFabric@cloth@nv@@UEAAPEAXI@Z 0000000180074c30 f i DxFabric.obj
 0001:00073cc0       ?add@?$DxBatchedStorage@M@cloth@nv@@AEAAXPEAV?$DxBatchedVector@M@23@@Z 0000000180074cc0 f i DxFabric.obj
 0001:00073d30       ?add@?$DxBatchedStorage@UDxConstraint@cloth@nv@@@cloth@nv@@AEAAXPEAV?$DxBatchedVector@UDxConstraint@cloth@nv@@@23@@Z 0000000180074d30 f i DxFabric.obj
 0001:00073da0       ?add@?$DxBatchedStorage@UDxTether@cloth@nv@@@cloth@nv@@AEAAXPEAV?$DxBatchedVector@UDxTether@cloth@nv@@@23@@Z 0000000180074da0 f i DxFabric.obj
 0001:00073e10       ?allocate@?$Array@PEAV?$DxBatchedVector@M@cloth@nv@@VNonTrackingAllocator@23@@shdfnd@physx@@IEAAPEAPEAV?$DxBatchedVector@M@cloth@nv@@I@Z 0000000180074e10 f i DxFabric.obj
 0001:00073ee0       ?allocate@?$Array@PEAV?$DxBatchedVector@UDxConstraint@cloth@nv@@@cloth@nv@@VNonTrackingAllocator@23@@shdfnd@physx@@IEAAPEAPEAV?$DxBatchedVector@UDxConstraint@cloth@nv@@@cloth@nv@@I@Z 0000000180074ee0 f i DxFabric.obj
 0001:00073fb0       ?allocate@?$Array@PEAV?$DxBatchedVector@UDxTether@cloth@nv@@@cloth@nv@@VNonTrackingAllocator@23@@shdfnd@physx@@IEAAPEAPEAV?$DxBatchedVector@UDxTether@cloth@nv@@@cloth@nv@@I@Z 0000000180074fb0 f i DxFabric.obj
 0001:00074080       ?allocate@?$Array@PEAVDxFabric@cloth@nv@@VNonTrackingAllocator@23@@shdfnd@physx@@IEAAPEAPEAVDxFabric@cloth@nv@@I@Z 0000000180075080 f i DxFabric.obj
 0001:00074150       ?allocate@?$Array@UDxConstraint@cloth@nv@@VNonTrackingAllocator@23@@shdfnd@physx@@IEAAPEAUDxConstraint@cloth@nv@@I@Z 0000000180075150 f i DxFabric.obj
 0001:00074220       ?allocate@?$Array@UDxTether@cloth@nv@@VNonTrackingAllocator@23@@shdfnd@physx@@IEAAPEAUDxTether@cloth@nv@@I@Z 0000000180075220 f i DxFabric.obj
 0001:000742f0       ?assign@?$DxBatchedStorage@M@cloth@nv@@AEAAXPEAV?$DxBatchedVector@M@23@PEBMI@Z 00000001800752f0 f i DxFabric.obj
 0001:00074400       ?assign@?$DxBatchedStorage@UDxConstraint@cloth@nv@@@cloth@nv@@AEAAXPEAV?$DxBatchedVector@UDxConstraint@cloth@nv@@@23@PEBUDxConstraint@23@I@Z 0000000180075400 f i DxFabric.obj
 0001:00074510       ?assign@?$DxBatchedStorage@UDxTether@cloth@nv@@@cloth@nv@@AEAAXPEAV?$DxBatchedVector@UDxTether@cloth@nv@@@23@PEBUDxTether@23@I@Z 0000000180075510 f i DxFabric.obj
 0001:00074620       ?assign@?$DxBatchedVector@M@cloth@nv@@QEAAXPEBM0@Z 0000000180075620 f i DxFabric.obj
 0001:000746a0       ?assign@?$DxBatchedVector@UDxConstraint@cloth@nv@@@cloth@nv@@QEAAXPEBUDxConstraint@23@0@Z 00000001800756a0 f i DxFabric.obj
 0001:00074720       ?assign@?$DxBatchedVector@UDxTether@cloth@nv@@@cloth@nv@@QEAAXPEBUDxTether@23@0@Z 0000000180075720 f i DxFabric.obj
 0001:000747a0       ?begin@?$Array@PEAV?$DxBatchedVector@M@cloth@nv@@VNonTrackingAllocator@23@@shdfnd@physx@@QEAAPEAPEAV?$DxBatchedVector@M@cloth@nv@@XZ 00000001800757a0 f i DxFabric.obj
 0001:000747c0       ?begin@?$Array@PEAV?$DxBatchedVector@UDxConstraint@cloth@nv@@@cloth@nv@@VNonTrackingAllocator@23@@shdfnd@physx@@QEAAPEAPEAV?$DxBatchedVector@UDxConstraint@cloth@nv@@@cloth@nv@@XZ 00000001800757c0 f i DxFabric.obj
 0001:000747e0       ?begin@?$Array@PEAV?$DxBatchedVector@UDxTether@cloth@nv@@@cloth@nv@@VNonTrackingAllocator@23@@shdfnd@physx@@QEAAPEAPEAV?$DxBatchedVector@UDxTether@cloth@nv@@@cloth@nv@@XZ 00000001800757e0 f i DxFabric.obj
 0001:00074800       ?begin@?$Array@UDxConstraint@cloth@nv@@VNonTrackingAllocator@23@@shdfnd@physx@@QEAAPEAUDxConstraint@cloth@nv@@XZ 0000000180075800 f i DxFabric.obj
 0001:00074820       ?begin@?$Array@UDxConstraint@cloth@nv@@VNonTrackingAllocator@23@@shdfnd@physx@@QEBAPEBUDxConstraint@cloth@nv@@XZ 0000000180075820 f i DxFabric.obj
 0001:00074840       ?begin@?$Array@UDxTether@cloth@nv@@VNonTrackingAllocator@23@@shdfnd@physx@@QEAAPEAUDxTether@cloth@nv@@XZ 0000000180075840 f i DxFabric.obj
 0001:00074860       ?buffer@?$DxBatchedVector@UDxConstraint@cloth@nv@@@cloth@nv@@QEBAPEAUID3D11Buffer@@XZ 0000000180075860 f i DxFabric.obj
 0001:00074880       ?capacity@?$Array@PEAV?$DxBatchedVector@M@cloth@nv@@VNonTrackingAllocator@23@@shdfnd@physx@@QEBAIXZ 0000000180075880 f i DxFabric.obj
 0001:000748a0       ?capacity@?$Array@PEAV?$DxBatchedVector@UDxConstraint@cloth@nv@@@cloth@nv@@VNonTrackingAllocator@23@@shdfnd@physx@@QEBAIXZ 00000001800758a0 f i DxFabric.obj
 0001:000748c0       ?capacity@?$Array@PEAV?$DxBatchedVector@UDxTether@cloth@nv@@@cloth@nv@@VNonTrackingAllocator@23@@shdfnd@physx@@QEBAIXZ 00000001800758c0 f i DxFabric.obj
 0001:000748e0       ?capacity@?$Array@PEAVDxFabric@cloth@nv@@VNonTrackingAllocator@23@@shdfnd@physx@@QEBAIXZ 00000001800758e0 f i DxFabric.obj
 0001:00074900       ?capacity@?$Array@UDxConstraint@cloth@nv@@VNonTrackingAllocator@23@@shdfnd@physx@@QEBAIXZ 0000000180075900 f i DxFabric.obj
 0001:00074920       ?capacity@?$Array@UDxTether@cloth@nv@@VNonTrackingAllocator@23@@shdfnd@physx@@QEBAIXZ 0000000180075920 f i DxFabric.obj
 0001:00074940       ?capacityIncrement@?$Array@PEAV?$DxBatchedVector@M@cloth@nv@@VNonTrackingAllocator@23@@shdfnd@physx@@IEBAIXZ 0000000180075940 f i DxFabric.obj
 0001:000749b0       ?capacityIncrement@?$Array@PEAV?$DxBatchedVector@UDxConstraint@cloth@nv@@@cloth@nv@@VNonTrackingAllocator@23@@shdfnd@physx@@IEBAIXZ 00000001800759b0 f i DxFabric.obj
 0001:00074a20       ?capacityIncrement@?$Array@PEAV?$DxBatchedVector@UDxTether@cloth@nv@@@cloth@nv@@VNonTrackingAllocator@23@@shdfnd@physx@@IEBAIXZ 0000000180075a20 f i DxFabric.obj
 0001:00074a90       ?capacityIncrement@?$Array@PEAVDxFabric@cloth@nv@@VNonTrackingAllocator@23@@shdfnd@physx@@IEBAIXZ 0000000180075a90 f i DxFabric.obj
 0001:00074b00       ?capacityIncrement@?$Array@UDxTether@cloth@nv@@VNonTrackingAllocator@23@@shdfnd@physx@@IEBAIXZ 0000000180075b00 f i DxFabric.obj
 0001:00074b70       ?context@?$DxBuffer@M@cloth@nv@@QEBAPEAUID3D11DeviceContext@@XZ 0000000180075b70 f i DxFabric.obj
 0001:00074bc0       ?context@?$DxBuffer@UDxConstraint@cloth@nv@@@cloth@nv@@QEBAPEAUID3D11DeviceContext@@XZ 0000000180075bc0 f i DxFabric.obj
 0001:00074c10       ?context@?$DxBuffer@UDxTether@cloth@nv@@@cloth@nv@@QEBAPEAUID3D11DeviceContext@@XZ 0000000180075c10 f i DxFabric.obj
 0001:00074c60       ?copy@?$Array@PEAV?$DxBatchedVector@M@cloth@nv@@VNonTrackingAllocator@23@@shdfnd@physx@@KAXPEAPEAV?$DxBatchedVector@M@cloth@nv@@0PEBQEAV456@@Z 0000000180075c60 f i DxFabric.obj
 0001:00074d40       ?copy@?$Array@PEAV?$DxBatchedVector@UDxConstraint@cloth@nv@@@cloth@nv@@VNonTrackingAllocator@23@@shdfnd@physx@@KAXPEAPEAV?$DxBatchedVector@UDxConstraint@cloth@nv@@@cloth@nv@@0PEBQEAV456@@Z 0000000180075d40 f i DxFabric.obj
 0001:00074e20       ?copy@?$Array@PEAV?$DxBatchedVector@UDxTether@cloth@nv@@@cloth@nv@@VNonTrackingAllocator@23@@shdfnd@physx@@KAXPEAPEAV?$DxBatchedVector@UDxTether@cloth@nv@@@cloth@nv@@0PEBQEAV456@@Z 0000000180075e20 f i DxFabric.obj
 0001:00074f00       ?copy@?$Array@PEAVDxFabric@cloth@nv@@VNonTrackingAllocator@23@@shdfnd@physx@@KAXPEAPEAVDxFabric@cloth@nv@@0PEBQEAV456@@Z 0000000180075f00 f i DxFabric.obj
 0001:00074fe0       ?copy@?$Array@UDxConstraint@cloth@nv@@VNonTrackingAllocator@23@@shdfnd@physx@@KAXPEAUDxConstraint@cloth@nv@@0PEBU456@@Z 0000000180075fe0 f i DxFabric.obj
 0001:000750c0       ?copy@?$Array@UDxTether@cloth@nv@@VNonTrackingAllocator@23@@shdfnd@physx@@KAXPEAUDxTether@cloth@nv@@0PEBU456@@Z 00000001800760c0 f i DxFabric.obj
 0001:00075190       ?create@?$Array@UDxConstraint@cloth@nv@@VNonTrackingAllocator@23@@shdfnd@physx@@KAXPEAUDxConstraint@cloth@nv@@0AEBU456@@Z 0000000180076190 f i DxFabric.obj
 0001:00075240       ?create@?$DxBuffer@M@cloth@nv@@AEAAXIPEAUD3D11_SUBRESOURCE_DATA@@@Z 0000000180076240 f i DxFabric.obj
 0001:000754c0       ?create@?$DxBuffer@UDxConstraint@cloth@nv@@@cloth@nv@@AEAAXIPEAUD3D11_SUBRESOURCE_DATA@@@Z 00000001800764c0 f i DxFabric.obj
 0001:00075740       ?create@?$DxBuffer@UDxTether@cloth@nv@@@cloth@nv@@AEAAXIPEAUD3D11_SUBRESOURCE_DATA@@@Z 0000000180076740 f i DxFabric.obj
 0001:000759c0       ?deallocate@?$Array@PEAV?$DxBatchedVector@M@cloth@nv@@VNonTrackingAllocator@23@@shdfnd@physx@@IEAAXPEAX@Z 00000001800769c0 f i DxFabric.obj
 0001:00075a10       ?deallocate@?$Array@PEAV?$DxBatchedVector@UDxConstraint@cloth@nv@@@cloth@nv@@VNonTrackingAllocator@23@@shdfnd@physx@@IEAAXPEAX@Z 0000000180076a10 f i DxFabric.obj
 0001:00075a60       ?deallocate@?$Array@PEAV?$DxBatchedVector@UDxTether@cloth@nv@@@cloth@nv@@VNonTrackingAllocator@23@@shdfnd@physx@@IEAAXPEAX@Z 0000000180076a60 f i DxFabric.obj
 0001:00075ab0       ?deallocate@?$Array@PEAVDxFabric@cloth@nv@@VNonTrackingAllocator@23@@shdfnd@physx@@IEAAXPEAX@Z 0000000180076ab0 f i DxFabric.obj
 0001:00075b00       ?deallocate@?$Array@UDxConstraint@cloth@nv@@VNonTrackingAllocator@23@@shdfnd@physx@@IEAAXPEAX@Z 0000000180076b00 f i DxFabric.obj
 0001:00075b50       ?deallocate@?$Array@UDxTether@cloth@nv@@VNonTrackingAllocator@23@@shdfnd@physx@@IEAAXPEAX@Z 0000000180076b50 f i DxFabric.obj
 0001:00075ba0       ?destroy@?$Array@PEAV?$DxBatchedVector@M@cloth@nv@@VNonTrackingAllocator@23@@shdfnd@physx@@KAXPEAPEAV?$DxBatchedVector@M@cloth@nv@@0@Z 0000000180076ba0 f i DxFabric.obj
 0001:00075be0       ?destroy@?$Array@PEAV?$DxBatchedVector@UDxConstraint@cloth@nv@@@cloth@nv@@VNonTrackingAllocator@23@@shdfnd@physx@@KAXPEAPEAV?$DxBatchedVector@UDxConstraint@cloth@nv@@@cloth@nv@@0@Z 0000000180076be0 f i DxFabric.obj
 0001:00075c20       ?destroy@?$Array@PEAV?$DxBatchedVector@UDxTether@cloth@nv@@@cloth@nv@@VNonTrackingAllocator@23@@shdfnd@physx@@KAXPEAPEAV?$DxBatchedVector@UDxTether@cloth@nv@@@cloth@nv@@0@Z 0000000180076c20 f i DxFabric.obj
 0001:00075c60       ?destroy@?$Array@PEAVDxFabric@cloth@nv@@VNonTrackingAllocator@23@@shdfnd@physx@@KAXPEAPEAVDxFabric@cloth@nv@@0@Z 0000000180076c60 f i DxFabric.obj
 0001:00075ca0       ?destroy@?$Array@UDxConstraint@cloth@nv@@VNonTrackingAllocator@23@@shdfnd@physx@@KAXPEAUDxConstraint@cloth@nv@@0@Z 0000000180076ca0 f i DxFabric.obj
 0001:00075ce0       ?destroy@?$Array@UDxTether@cloth@nv@@VNonTrackingAllocator@23@@shdfnd@physx@@KAXPEAUDxTether@cloth@nv@@0@Z 0000000180076ce0 f i DxFabric.obj
 0001:00075d20       ?end@?$Array@UDxConstraint@cloth@nv@@VNonTrackingAllocator@23@@shdfnd@physx@@QEAAPEAUDxConstraint@cloth@nv@@XZ 0000000180076d20 f i DxFabric.obj
 0001:00075d50       ?end@?$Array@UDxConstraint@cloth@nv@@VNonTrackingAllocator@23@@shdfnd@physx@@QEBAPEBUDxConstraint@cloth@nv@@XZ 0000000180076d50 f i DxFabric.obj
 0001:00075d80       ?end@?$Array@UDxTether@cloth@nv@@VNonTrackingAllocator@23@@shdfnd@physx@@QEAAPEAUDxTether@cloth@nv@@XZ 0000000180076d80 f i DxFabric.obj
 0001:00075db0       ?find@?$Array@PEAV?$DxBatchedVector@M@cloth@nv@@VNonTrackingAllocator@23@@shdfnd@physx@@QEAAPEAPEAV?$DxBatchedVector@M@cloth@nv@@AEBQEAV456@@Z 0000000180076db0 f i DxFabric.obj
 0001:00075e40       ?find@?$Array@PEAV?$DxBatchedVector@UDxConstraint@cloth@nv@@@cloth@nv@@VNonTrackingAllocator@23@@shdfnd@physx@@QEAAPEAPEAV?$DxBatchedVector@UDxConstraint@cloth@nv@@@cloth@nv@@AEBQEAV456@@Z 0000000180076e40 f i DxFabric.obj
 0001:00075ed0       ?find@?$Array@PEAV?$DxBatchedVector@UDxTether@cloth@nv@@@cloth@nv@@VNonTrackingAllocator@23@@shdfnd@physx@@QEAAPEAPEAV?$DxBatchedVector@UDxTether@cloth@nv@@@cloth@nv@@AEBQEAV456@@Z 0000000180076ed0 f i DxFabric.obj
 0001:00075f60       ?find@?$Array@PEAVDxFabric@cloth@nv@@VNonTrackingAllocator@23@@shdfnd@physx@@QEAAPEAPEAVDxFabric@cloth@nv@@AEBQEAV456@@Z 0000000180076f60 f i DxFabric.obj
 0001:00075ff0       ?grow@?$Array@UDxConstraint@cloth@nv@@VNonTrackingAllocator@23@@shdfnd@physx@@IEAAXI@Z 0000000180076ff0 f i DxFabric.obj
 0001:000760b0       ?grow@?$Array@UDxTether@cloth@nv@@VNonTrackingAllocator@23@@shdfnd@physx@@IEAAXI@Z 00000001800770b0 f i DxFabric.obj
 0001:00076170       ?growAndPushBack@?$Array@PEAV?$DxBatchedVector@M@cloth@nv@@VNonTrackingAllocator@23@@shdfnd@physx@@IEAAAEAPEAV?$DxBatchedVector@M@cloth@nv@@AEBQEAV456@@Z 0000000180077170 f i DxFabric.obj
 0001:00076390       ?growAndPushBack@?$Array@PEAV?$DxBatchedVector@UDxConstraint@cloth@nv@@@cloth@nv@@VNonTrackingAllocator@23@@shdfnd@physx@@IEAAAEAPEAV?$DxBatchedVector@UDxConstraint@cloth@nv@@@cloth@nv@@AEBQEAV456@@Z 0000000180077390 f i DxFabric.obj
 0001:000765b0       ?growAndPushBack@?$Array@PEAV?$DxBatchedVector@UDxTether@cloth@nv@@@cloth@nv@@VNonTrackingAllocator@23@@shdfnd@physx@@IEAAAEAPEAV?$DxBatchedVector@UDxTether@cloth@nv@@@cloth@nv@@AEBQEAV456@@Z 00000001800775b0 f i DxFabric.obj
 0001:000767d0       ?growAndPushBack@?$Array@PEAVDxFabric@cloth@nv@@VNonTrackingAllocator@23@@shdfnd@physx@@IEAAAEAPEAVDxFabric@cloth@nv@@AEBQEAV456@@Z 00000001800777d0 f i DxFabric.obj
 0001:000769f0       ?growAndPushBack@?$Array@UDxTether@cloth@nv@@VNonTrackingAllocator@23@@shdfnd@physx@@IEAAAEAUDxTether@cloth@nv@@AEBU456@@Z 00000001800779f0 f i DxFabric.obj
 0001:00076c10       ?isInUserMemory@?$Array@PEAV?$DxBatchedVector@M@cloth@nv@@VNonTrackingAllocator@23@@shdfnd@physx@@QEBAIXZ 0000000180077c10 f i DxFabric.obj
 0001:00076c30       ?isInUserMemory@?$Array@PEAV?$DxBatchedVector@UDxConstraint@cloth@nv@@@cloth@nv@@VNonTrackingAllocator@23@@shdfnd@physx@@QEBAIXZ 0000000180077c30 f i DxFabric.obj
 0001:00076c50       ?isInUserMemory@?$Array@PEAV?$DxBatchedVector@UDxTether@cloth@nv@@@cloth@nv@@VNonTrackingAllocator@23@@shdfnd@physx@@QEBAIXZ 0000000180077c50 f i DxFabric.obj
 0001:00076c70       ?isInUserMemory@?$Array@PEAVDxFabric@cloth@nv@@VNonTrackingAllocator@23@@shdfnd@physx@@QEBAIXZ 0000000180077c70 f i DxFabric.obj
 0001:00076c90       ?isInUserMemory@?$Array@UDxConstraint@cloth@nv@@VNonTrackingAllocator@23@@shdfnd@physx@@QEBAIXZ 0000000180077c90 f i DxFabric.obj
 0001:00076cb0       ?isInUserMemory@?$Array@UDxTether@cloth@nv@@VNonTrackingAllocator@23@@shdfnd@physx@@QEBAIXZ 0000000180077cb0 f i DxFabric.obj
 0001:00076cd0       ?map@?$DxBatchedStorage@M@cloth@nv@@AEAAPEAMW4D3D11_MAP@@@Z 0000000180077cd0 f i DxFabric.obj
 0001:00076d60       ?map@?$DxBatchedStorage@UDxConstraint@cloth@nv@@@cloth@nv@@AEAAPEAUDxConstraint@23@W4D3D11_MAP@@@Z 0000000180077d60 f i DxFabric.obj
 0001:00076df0       ?map@?$DxBatchedStorage@UDxTether@cloth@nv@@@cloth@nv@@AEAAPEAUDxTether@23@W4D3D11_MAP@@@Z 0000000180077df0 f i DxFabric.obj
 0001:00076e80       ?map@?$DxBuffer@M@cloth@nv@@QEAAPEAMW4D3D11_MAP@@@Z 0000000180077e80 f i DxFabric.obj
 0001:00076f40       ?map@?$DxBuffer@UDxConstraint@cloth@nv@@@cloth@nv@@QEAAPEAUDxConstraint@23@W4D3D11_MAP@@@Z 0000000180077f40 f i DxFabric.obj
 0001:00077000       ?map@?$DxBuffer@UDxTether@cloth@nv@@@cloth@nv@@QEAAPEAUDxTether@23@W4D3D11_MAP@@@Z 0000000180078000 f i DxFabric.obj
 0001:000770c0       ?pushBack@?$Array@PEAV?$DxBatchedVector@M@cloth@nv@@VNonTrackingAllocator@23@@shdfnd@physx@@QEAAAEAPEAV?$DxBatchedVector@M@cloth@nv@@AEBQEAV456@@Z 00000001800780c0 f i DxFabric.obj
 0001:000771d0       ?pushBack@?$Array@PEAV?$DxBatchedVector@UDxConstraint@cloth@nv@@@cloth@nv@@VNonTrackingAllocator@23@@shdfnd@physx@@QEAAAEAPEAV?$DxBatchedVector@UDxConstraint@cloth@nv@@@cloth@nv@@AEBQEAV456@@Z 00000001800781d0 f i DxFabric.obj
 0001:000772e0       ?pushBack@?$Array@PEAV?$DxBatchedVector@UDxTether@cloth@nv@@@cloth@nv@@VNonTrackingAllocator@23@@shdfnd@physx@@QEAAAEAPEAV?$DxBatchedVector@UDxTether@cloth@nv@@@cloth@nv@@AEBQEAV456@@Z 00000001800782e0 f i DxFabric.obj
 0001:000773f0       ?pushBack@?$Array@PEAVDxFabric@cloth@nv@@VNonTrackingAllocator@23@@shdfnd@physx@@QEAAAEAPEAVDxFabric@cloth@nv@@AEBQEAV456@@Z 00000001800783f0 f i DxFabric.obj
 0001:00077500       ?pushBack@?$Array@UDxTether@cloth@nv@@VNonTrackingAllocator@23@@shdfnd@physx@@QEAAAEAUDxTether@cloth@nv@@AEBU456@@Z 0000000180078500 f i DxFabric.obj
 0001:00077610       ?recreate@?$Array@UDxConstraint@cloth@nv@@VNonTrackingAllocator@23@@shdfnd@physx@@IEAAXI@Z 0000000180078610 f i DxFabric.obj
 0001:00077780       ?recreate@?$Array@UDxTether@cloth@nv@@VNonTrackingAllocator@23@@shdfnd@physx@@IEAAXI@Z 0000000180078780 f i DxFabric.obj
 0001:000778f0       ?remove@?$Array@PEAV?$DxBatchedVector@M@cloth@nv@@VNonTrackingAllocator@23@@shdfnd@physx@@QEAAXI@Z 00000001800788f0 f i DxFabric.obj
 0001:00077a50       ?remove@?$Array@PEAV?$DxBatchedVector@UDxConstraint@cloth@nv@@@cloth@nv@@VNonTrackingAllocator@23@@shdfnd@physx@@QEAAXI@Z 0000000180078a50 f i DxFabric.obj
 0001:00077bb0       ?remove@?$Array@PEAV?$DxBatchedVector@UDxTether@cloth@nv@@@cloth@nv@@VNonTrackingAllocator@23@@shdfnd@physx@@QEAAXI@Z 0000000180078bb0 f i DxFabric.obj
 0001:00077d10       ?remove@?$DxBatchedStorage@M@cloth@nv@@AEAAXPEAV?$DxBatchedVector@M@23@@Z 0000000180078d10 f i DxFabric.obj
 0001:00077e10       ?remove@?$DxBatchedStorage@UDxConstraint@cloth@nv@@@cloth@nv@@AEAAXPEAV?$DxBatchedVector@UDxConstraint@cloth@nv@@@23@@Z 0000000180078e10 f i DxFabric.obj
 0001:00077f10       ?remove@?$DxBatchedStorage@UDxTether@cloth@nv@@@cloth@nv@@AEAAXPEAV?$DxBatchedVector@UDxTether@cloth@nv@@@23@@Z 0000000180078f10 f i DxFabric.obj
 0001:00078010       ?replace@?$DxBatchedStorage@M@cloth@nv@@AEAAXIIPEBM0@Z 0000000180079010 f i DxFabric.obj
 0001:000786a0       ?replace@?$DxBatchedStorage@UDxConstraint@cloth@nv@@@cloth@nv@@AEAAXIIPEBUDxConstraint@23@0@Z 00000001800796a0 f i DxFabric.obj
 0001:00078d30       ?replace@?$DxBatchedStorage@UDxTether@cloth@nv@@@cloth@nv@@AEAAXIIPEBUDxTether@23@0@Z 0000000180079d30 f i DxFabric.obj
 0001:000793c0       ?replaceWithLast@?$Array@PEAVDxFabric@cloth@nv@@VNonTrackingAllocator@23@@shdfnd@physx@@QEAAXI@Z 000000018007a3c0 f i DxFabric.obj
 0001:000794b0       ?replaceWithLast@?$Array@PEAVDxFabric@cloth@nv@@VNonTrackingAllocator@23@@shdfnd@physx@@QEAAXPEAPEAVDxFabric@cloth@nv@@@Z 000000018007a4b0 f i DxFabric.obj
 0001:00079510       ?reserve@?$Array@UDxConstraint@cloth@nv@@VNonTrackingAllocator@23@@shdfnd@physx@@QEAAXI@Z 000000018007a510 f i DxFabric.obj
 0001:00079570       ?reserve@?$Array@UDxTether@cloth@nv@@VNonTrackingAllocator@23@@shdfnd@physx@@QEAAXI@Z 000000018007a570 f i DxFabric.obj
 0001:000795d0       ?reserve@?$DxBuffer@M@cloth@nv@@QEAAXI@Z 000000018007a5d0 f i DxFabric.obj
 0001:00079770       ?reserve@?$DxBuffer@UDxConstraint@cloth@nv@@@cloth@nv@@QEAAXI@Z 000000018007a770 f i DxFabric.obj
 0001:00079910       ?reserve@?$DxBuffer@UDxTether@cloth@nv@@@cloth@nv@@QEAAXI@Z 000000018007a910 f i DxFabric.obj
 0001:00079ab0       ?resize@?$Array@UDxConstraint@cloth@nv@@VNonTrackingAllocator@23@@shdfnd@physx@@QEAAXIAEBUDxConstraint@cloth@nv@@@Z 000000018007aab0 f i DxFabric.obj
 0001:00079b80       ?resizeUninitialized@?$Array@UDxConstraint@cloth@nv@@VNonTrackingAllocator@23@@shdfnd@physx@@QEAAXI@Z 000000018007ab80 f i DxFabric.obj
 0001:00079be0       ?size@?$Array@PEAV?$DxBatchedVector@M@cloth@nv@@VNonTrackingAllocator@23@@shdfnd@physx@@QEBAIXZ 000000018007abe0 f i DxFabric.obj
 0001:00079c00       ?size@?$Array@PEAV?$DxBatchedVector@UDxConstraint@cloth@nv@@@cloth@nv@@VNonTrackingAllocator@23@@shdfnd@physx@@QEBAIXZ 000000018007ac00 f i DxFabric.obj
 0001:00079c20       ?size@?$Array@PEAV?$DxBatchedVector@UDxTether@cloth@nv@@@cloth@nv@@VNonTrackingAllocator@23@@shdfnd@physx@@QEBAIXZ 000000018007ac20 f i DxFabric.obj
 0001:00079c40       ?size@?$Array@UDxConstraint@cloth@nv@@VNonTrackingAllocator@23@@shdfnd@physx@@QEBAIXZ 000000018007ac40 f i DxFabric.obj
 0001:00079c60       ?size@?$DxBatchedVector@M@cloth@nv@@QEBAIXZ 000000018007ac60 f i DxFabric.obj
 0001:00079c80       ?size@?$DxBatchedVector@UDxConstraint@cloth@nv@@@cloth@nv@@QEBAIXZ 000000018007ac80 f i DxFabric.obj
 0001:00079ca0       ?unmap@?$DxBatchedStorage@M@cloth@nv@@AEAAXXZ 000000018007aca0 f i DxFabric.obj
 0001:00079d20       ?unmap@?$DxBatchedStorage@UDxConstraint@cloth@nv@@@cloth@nv@@AEAAXXZ 000000018007ad20 f i DxFabric.obj
 0001:00079da0       ?unmap@?$DxBatchedStorage@UDxTether@cloth@nv@@@cloth@nv@@AEAAXXZ 000000018007ada0 f i DxFabric.obj
 0001:00079e20       ?unmap@?$DxBuffer@M@cloth@nv@@QEAAXXZ 000000018007ae20 f i DxFabric.obj
 0001:00079e90       ?unmap@?$DxBuffer@UDxConstraint@cloth@nv@@@cloth@nv@@QEAAXXZ 000000018007ae90 f i DxFabric.obj
 0001:00079f00       ?unmap@?$DxBuffer@UDxTether@cloth@nv@@@cloth@nv@@QEAAXXZ 000000018007af00 f i DxFabric.obj
 0001:00079f70       ?update@?$DxBatchedStorage@M@cloth@nv@@AEAAXPEAV?$DxBatchedVector@M@23@H@Z 000000018007af70 f i DxFabric.obj
 0001:0007a0b0       ?update@?$DxBatchedStorage@UDxConstraint@cloth@nv@@@cloth@nv@@AEAAXPEAV?$DxBatchedVector@UDxConstraint@cloth@nv@@@23@H@Z 000000018007b0b0 f i DxFabric.obj
 0001:0007a1f0       ?update@?$DxBatchedStorage@UDxTether@cloth@nv@@@cloth@nv@@AEAAXPEAV?$DxBatchedVector@UDxTether@cloth@nv@@@23@H@Z 000000018007b1f0 f i DxFabric.obj
 0001:0007a330       ?checkSuccessImpl@cloth@nv@@YAXJPEBDH@Z 000000018007b330 f   DxFactory.obj
 0001:0007a3a0       ??0DxFactory@cloth@nv@@QEAA@PEAVDxContextManagerCallback@12@@Z 000000018007b3a0 f   DxFactory.obj
 0001:0007ae70       ??1DxFactory@cloth@nv@@UEAA@XZ 000000018007be70 f   DxFactory.obj
 0001:0007b200       ?createFabric@DxFactory@cloth@nv@@UEAAPEAVFabric@23@IU?$Range@$$CBI@23@0U?$Range@$$CBM@23@10010@Z 000000018007c200 f   DxFactory.obj
 0001:0007b3e0       ?createCloth@DxFactory@cloth@nv@@UEAAPEAVCloth@23@U?$Range@$$CBVPxVec4@physx@@@23@AEAVFabric@23@@Z 000000018007c3e0 f   DxFactory.obj
 0001:0007b490       ?createSolver@DxFactory@cloth@nv@@UEAAPEAVSolver@23@XZ 000000018007c490 f   DxFactory.obj
 0001:0007b580       ?extractFabricData@DxFactory@cloth@nv@@UEBAXAEBVFabric@23@U?$Range@I@23@1U?$Range@M@23@21121@Z 000000018007c580 f   DxFactory.obj
 0001:0007c180       ?extractCollisionData@DxFactory@cloth@nv@@UEBAXAEBVCloth@23@U?$Range@VPxVec4@physx@@@23@U?$Range@I@23@12U?$Range@VPxVec3@physx@@@23@@Z 000000018007d180 f   DxFactory.obj
 0001:0007c8f0       ?extractMotionConstraints@DxFactory@cloth@nv@@UEBAXAEBVCloth@23@U?$Range@VPxVec4@physx@@@23@@Z 000000018007d8f0 f   DxFactory.obj
 0001:0007cc10       ?extractSeparationConstraints@DxFactory@cloth@nv@@UEBAXAEBVCloth@23@U?$Range@VPxVec4@physx@@@23@@Z 000000018007dc10 f   DxFactory.obj
 0001:0007cf30       ?extractParticleAccelerations@DxFactory@cloth@nv@@UEBAXAEBVCloth@23@U?$Range@VPxVec4@physx@@@23@@Z 000000018007df30 f   DxFactory.obj
 0001:0007cfe0       ?extractVirtualParticles@DxFactory@cloth@nv@@UEBAXAEBVCloth@23@U?$Range@$$BY03I@23@U?$Range@VPxVec3@physx@@@23@@Z 000000018007dfe0 f   DxFactory.obj
 0001:0007d620       ?extractSelfCollisionIndices@DxFactory@cloth@nv@@UEBAXAEBVCloth@23@U?$Range@I@23@@Z 000000018007e620 f   DxFactory.obj
 0001:0007d730       ?extractRestPositions@DxFactory@cloth@nv@@UEBAXAEBVCloth@23@U?$Range@VPxVec4@physx@@@23@@Z 000000018007e730 f   DxFactory.obj
 0001:0007d860       ?copyToHost@DxFactory@cloth@nv@@QEBAXPEAXPEAUID3D11Buffer@@II@Z 000000018007e860 f   DxFactory.obj
 0001:0007da00       ?CompileComputeShaders@DxFactory@cloth@nv@@QEAAXXZ 000000018007ea00 f   DxFactory.obj
 0001:0007dab0       ?reserveStagingBuffer@DxFactory@cloth@nv@@QEAAXI@Z 000000018007eab0 f   DxFactory.obj
 0001:0007dc00       ?mapStagingBuffer@DxFactory@cloth@nv@@QEBAPEAXW4D3D11_MAP@@@Z 000000018007ec00 f   DxFactory.obj
 0001:0007dca0       ?unmapStagingBuffer@DxFactory@cloth@nv@@QEBAXXZ 000000018007eca0 f   DxFactory.obj
 0001:0007eba0       ??$PX_UNUSED@PEAU?$Range@VPxVec4@physx@@@cloth@nv@@@@YAXAEBQEAU?$Range@VPxVec4@physx@@@cloth@nv@@@Z 000000018007fba0 f i DxFactory.obj
 0001:0007ebb0       ??$PX_UNUSED@PEBVCloth@cloth@nv@@@@YAXAEBQEBVCloth@cloth@nv@@@Z 000000018007fbb0 f i DxFactory.obj
 0001:0007ebc0       ??0?$Array@PEAV?$DxBatchedVector@I@cloth@nv@@VNonTrackingAllocator@23@@shdfnd@physx@@QEAA@AEBVNonTrackingAllocator@cloth@nv@@@Z 000000018007fbc0 f i DxFactory.obj
 0001:0007ec10       ??0?$Array@PEAV?$DxBatchedVector@M@cloth@nv@@VNonTrackingAllocator@23@@shdfnd@physx@@QEAA@AEBVNonTrackingAllocator@cloth@nv@@@Z 000000018007fc10 f i DxFactory.obj
 0001:0007ec60       ??0?$Array@PEAV?$DxBatchedVector@U?$Vec4T@G@cloth@nv@@@cloth@nv@@VNonTrackingAllocator@23@@shdfnd@physx@@QEAA@AEBVNonTrackingAllocator@cloth@nv@@@Z 000000018007fc60 f i DxFactory.obj
 0001:0007ecb0       ??0?$Array@PEAV?$DxBatchedVector@UDxConstraint@cloth@nv@@@cloth@nv@@VNonTrackingAllocator@23@@shdfnd@physx@@QEAA@AEBVNonTrackingAllocator@cloth@nv@@@Z 000000018007fcb0 f i DxFactory.obj
 0001:0007ed00       ??0?$Array@PEAV?$DxBatchedVector@UDxPhaseConfig@cloth@nv@@@cloth@nv@@VNonTrackingAllocator@23@@shdfnd@physx@@QEAA@AEBVNonTrackingAllocator@cloth@nv@@@Z 000000018007fd00 f i DxFactory.obj
 0001:0007ed50       ??0?$Array@PEAV?$DxBatchedVector@UDxTether@cloth@nv@@@cloth@nv@@VNonTrackingAllocator@23@@shdfnd@physx@@QEAA@AEBVNonTrackingAllocator@cloth@nv@@@Z 000000018007fd50 f i DxFactory.obj
 0001:0007eda0       ??0?$Array@PEAV?$DxBatchedVector@UIndexPair@cloth@nv@@@cloth@nv@@VNonTrackingAllocator@23@@shdfnd@physx@@QEAA@AEBVNonTrackingAllocator@cloth@nv@@@Z 000000018007fda0 f i DxFactory.obj
 0001:0007edf0       ??0?$Array@PEAV?$DxBatchedVector@VPxVec3@physx@@@cloth@nv@@VNonTrackingAllocator@23@@shdfnd@physx@@QEAA@AEBVNonTrackingAllocator@cloth@nv@@@Z 000000018007fdf0 f i DxFactory.obj
 0001:0007ee40       ??0?$Array@PEAV?$DxBatchedVector@VPxVec4@physx@@@cloth@nv@@VNonTrackingAllocator@23@@shdfnd@physx@@QEAA@AEBVNonTrackingAllocator@cloth@nv@@@Z 000000018007fe40 f i DxFactory.obj
 0001:0007ee90       ??0?$Array@PEAVDxFabric@cloth@nv@@VNonTrackingAllocator@23@@shdfnd@physx@@QEAA@AEBVNonTrackingAllocator@cloth@nv@@@Z 000000018007fe90 f i DxFactory.obj
 0001:0007eee0       ??0?$Array@UDxTether@cloth@nv@@VNonTrackingAllocator@23@@shdfnd@physx@@QEAA@IAEBUDxTether@cloth@nv@@AEBVNonTrackingAllocator@45@@Z 000000018007fee0 f i DxFactory.obj
 0001:0007ef70       ??0?$DxBatchedStorage@I@cloth@nv@@QEAA@PEAVDxContextManagerCallback@12@AEBUDxBufferFlags@12@@Z 000000018007ff70 f i DxFactory.obj
 0001:0007f020       ??0?$DxBatchedStorage@M@cloth@nv@@QEAA@PEAVDxContextManagerCallback@12@AEBUDxBufferFlags@12@@Z 0000000180080020 f i DxFactory.obj
 0001:0007f0d0       ??0?$DxBatchedStorage@U?$Vec4T@G@cloth@nv@@@cloth@nv@@QEAA@PEAVDxContextManagerCallback@12@AEBUDxBufferFlags@12@@Z 00000001800800d0 f i DxFactory.obj
 0001:0007f180       ??0?$DxBatchedStorage@UDxConstraint@cloth@nv@@@cloth@nv@@QEAA@PEAVDxContextManagerCallback@12@AEBUDxBufferFlags@12@@Z 0000000180080180 f i DxFactory.obj
 0001:0007f230       ??0?$DxBatchedStorage@UDxPhaseConfig@cloth@nv@@@cloth@nv@@QEAA@PEAVDxContextManagerCallback@12@AEBUDxBufferFlags@12@@Z 0000000180080230 f i DxFactory.obj
 0001:0007f2e0       ??0?$DxBatchedStorage@UDxTether@cloth@nv@@@cloth@nv@@QEAA@PEAVDxContextManagerCallback@12@AEBUDxBufferFlags@12@@Z 00000001800802e0 f i DxFactory.obj
 0001:0007f390       ??0?$DxBatchedStorage@UIndexPair@cloth@nv@@@cloth@nv@@QEAA@PEAVDxContextManagerCallback@12@AEBUDxBufferFlags@12@@Z 0000000180080390 f i DxFactory.obj
 0001:0007f440       ??0?$DxBatchedStorage@VPxVec3@physx@@@cloth@nv@@QEAA@PEAVDxContextManagerCallback@12@AEBUDxBufferFlags@12@@Z 0000000180080440 f i DxFactory.obj
 0001:0007f4f0       ??0?$DxBatchedStorage@VPxVec4@physx@@@cloth@nv@@QEAA@PEAVDxContextManagerCallback@12@AEBUDxBufferFlags@12@@Z 00000001800804f0 f i DxFactory.obj
 0001:0007f5a0       ??0?$DxVectorMap@V?$DxBatchedVector@U?$Vec4T@G@cloth@nv@@@cloth@nv@@@cloth@nv@@QEAA@AEAV?$DxBatchedVector@U?$Vec4T@G@cloth@nv@@@12@W4D3D11_MAP@@@Z 00000001800805a0 f i DxFactory.obj
 0001:0007f630       ??1?$Array@PEAV?$DxBatchedVector@I@cloth@nv@@VNonTrackingAllocator@23@@shdfnd@physx@@QEAA@XZ 0000000180080630 f i DxFactory.obj
 0001:0007f6d0       ??1?$Array@PEAV?$DxBatchedVector@M@cloth@nv@@VNonTrackingAllocator@23@@shdfnd@physx@@QEAA@XZ 00000001800806d0 f i DxFactory.obj
 0001:0007f770       ??1?$Array@PEAV?$DxBatchedVector@U?$Vec4T@G@cloth@nv@@@cloth@nv@@VNonTrackingAllocator@23@@shdfnd@physx@@QEAA@XZ 0000000180080770 f i DxFactory.obj
 0001:0007f810       ??1?$Array@PEAV?$DxBatchedVector@UDxConstraint@cloth@nv@@@cloth@nv@@VNonTrackingAllocator@23@@shdfnd@physx@@QEAA@XZ 0000000180080810 f i DxFactory.obj
 0001:0007f8b0       ??1?$Array@PEAV?$DxBatchedVector@UDxPhaseConfig@cloth@nv@@@cloth@nv@@VNonTrackingAllocator@23@@shdfnd@physx@@QEAA@XZ 00000001800808b0 f i DxFactory.obj
 0001:0007f950       ??1?$Array@PEAV?$DxBatchedVector@UDxTether@cloth@nv@@@cloth@nv@@VNonTrackingAllocator@23@@shdfnd@physx@@QEAA@XZ 0000000180080950 f i DxFactory.obj
 0001:0007f9f0       ??1?$Array@PEAV?$DxBatchedVector@UIndexPair@cloth@nv@@@cloth@nv@@VNonTrackingAllocator@23@@shdfnd@physx@@QEAA@XZ 00000001800809f0 f i DxFactory.obj
 0001:0007fa90       ??1?$Array@PEAV?$DxBatchedVector@VPxVec3@physx@@@cloth@nv@@VNonTrackingAllocator@23@@shdfnd@physx@@QEAA@XZ 0000000180080a90 f i DxFactory.obj
 0001:0007fb30       ??1?$Array@PEAV?$DxBatchedVector@VPxVec4@physx@@@cloth@nv@@VNonTrackingAllocator@23@@shdfnd@physx@@QEAA@XZ 0000000180080b30 f i DxFactory.obj
 0001:0007fbd0       ??1?$Array@PEAVDxFabric@cloth@nv@@VNonTrackingAllocator@23@@shdfnd@physx@@QEAA@XZ 0000000180080bd0 f i DxFactory.obj
 0001:0007fc70       ??1?$DxBatchedStorage@I@cloth@nv@@QEAA@XZ 0000000180080c70 f i DxFactory.obj
 0001:0007fdb0       ??1?$DxBatchedStorage@M@cloth@nv@@QEAA@XZ 0000000180080db0 f i DxFactory.obj
 0001:0007fef0       ??1?$DxBatchedStorage@U?$Vec4T@G@cloth@nv@@@cloth@nv@@QEAA@XZ 0000000180080ef0 f i DxFactory.obj
 0001:00080030       ??1?$DxBatchedStorage@UDxConstraint@cloth@nv@@@cloth@nv@@QEAA@XZ 0000000180081030 f i DxFactory.obj
 0001:00080170       ??1?$DxBatchedStorage@UDxPhaseConfig@cloth@nv@@@cloth@nv@@QEAA@XZ 0000000180081170 f i DxFactory.obj
 0001:000802b0       ??1?$DxBatchedStorage@UDxTether@cloth@nv@@@cloth@nv@@QEAA@XZ 00000001800812b0 f i DxFactory.obj
 0001:000803f0       ??1?$DxBatchedStorage@UIndexPair@cloth@nv@@@cloth@nv@@QEAA@XZ 00000001800813f0 f i DxFactory.obj
 0001:00080530       ??1?$DxBatchedStorage@VPxVec3@physx@@@cloth@nv@@QEAA@XZ 0000000180081530 f i DxFactory.obj
 0001:00080670       ??1?$DxBatchedStorage@VPxVec4@physx@@@cloth@nv@@QEAA@XZ 0000000180081670 f i DxFactory.obj
 0001:000807b0       ??1?$DxVectorMap@V?$DxBatchedVector@U?$Vec4T@G@cloth@nv@@@cloth@nv@@@cloth@nv@@QEAA@XZ 00000001800817b0 f i DxFactory.obj
 0001:00080810       ??A?$Array@MVNonTrackingAllocator@cloth@nv@@@shdfnd@physx@@QEAAAEAMI@Z 0000000180081810 f i DxFactory.obj
 0001:000808d0       ??A?$Array@UDxConstraint@cloth@nv@@VNonTrackingAllocator@23@@shdfnd@physx@@QEAAAEAUDxConstraint@cloth@nv@@I@Z 00000001800818d0 f i DxFactory.obj
 0001:00080990       ??A?$Array@UDxTether@cloth@nv@@VNonTrackingAllocator@23@@shdfnd@physx@@QEAAAEAUDxTether@cloth@nv@@I@Z 0000000180081990 f i DxFactory.obj
 0001:00080a50       ??A?$Range@M@cloth@nv@@QEBAAEAMI@Z 0000000180081a50 f i DxFactory.obj
 0001:00080b10       ??_GDxFactory@cloth@nv@@UEAAPEAXI@Z 0000000180081b10 f i DxFactory.obj
 0001:00080b10       ??_EDxFactory@cloth@nv@@UEAAPEAXI@Z 0000000180081b10 f i DxFactory.obj
 0001:00080ba0       ?DxDefaultBufferPolicy@cloth@nv@@YA?AUDxBufferFlags@12@XZ 0000000180081ba0 f i DxFactory.obj
 0001:00080c40       ?DxDefaultRawBufferPolicy@cloth@nv@@YA?AUDxBufferFlags@12@XZ 0000000180081c40 f i DxFactory.obj
 0001:00080ce0       ?DxStagingBufferPolicy@cloth@nv@@YA?AUDxBufferFlags@12@XZ 0000000180081ce0 f i DxFactory.obj
 0001:00080d80       ?begin@?$DxVectorMap@V?$DxBatchedVector@U?$Vec4T@G@cloth@nv@@@cloth@nv@@@cloth@nv@@QEAAPEAU?$Vec4T@G@23@XZ 0000000180081d80 f i DxFactory.obj
 0001:00080da0       ?buffer@?$DxBatchedVector@M@cloth@nv@@QEBAPEAUID3D11Buffer@@XZ 0000000180081da0 f i DxFactory.obj
 0001:00080dc0       ?buffer@?$DxBatchedVector@UDxTether@cloth@nv@@@cloth@nv@@QEBAPEAUID3D11Buffer@@XZ 0000000180081dc0 f i DxFactory.obj
 0001:00080de0       ?create@?$Array@UDxTether@cloth@nv@@VNonTrackingAllocator@23@@shdfnd@physx@@KAXPEAUDxTether@cloth@nv@@0AEBU456@@Z 0000000180081de0 f i DxFactory.obj
 0001:00080e90       ?empty@?$Array@PEAV?$DxBatchedVector@I@cloth@nv@@VNonTrackingAllocator@23@@shdfnd@physx@@QEBA_NXZ 0000000180081e90 f i DxFactory.obj
 0001:00080ef0       ?empty@?$Array@PEAV?$DxBatchedVector@M@cloth@nv@@VNonTrackingAllocator@23@@shdfnd@physx@@QEBA_NXZ 0000000180081ef0 f i DxFactory.obj
 0001:00080f50       ?empty@?$Array@PEAV?$DxBatchedVector@U?$Vec4T@G@cloth@nv@@@cloth@nv@@VNonTrackingAllocator@23@@shdfnd@physx@@QEBA_NXZ 0000000180081f50 f i DxFactory.obj
 0001:00080fb0       ?empty@?$Array@PEAV?$DxBatchedVector@UDxConstraint@cloth@nv@@@cloth@nv@@VNonTrackingAllocator@23@@shdfnd@physx@@QEBA_NXZ 0000000180081fb0 f i DxFactory.obj
 0001:00081010       ?empty@?$Array@PEAV?$DxBatchedVector@UDxPhaseConfig@cloth@nv@@@cloth@nv@@VNonTrackingAllocator@23@@shdfnd@physx@@QEBA_NXZ 0000000180082010 f i DxFactory.obj
 0001:00081070       ?empty@?$Array@PEAV?$DxBatchedVector@UDxTether@cloth@nv@@@cloth@nv@@VNonTrackingAllocator@23@@shdfnd@physx@@QEBA_NXZ 0000000180082070 f i DxFactory.obj
 0001:000810d0       ?empty@?$Array@PEAV?$DxBatchedVector@UIndexPair@cloth@nv@@@cloth@nv@@VNonTrackingAllocator@23@@shdfnd@physx@@QEBA_NXZ 00000001800820d0 f i DxFactory.obj
 0001:00081130       ?empty@?$Array@PEAV?$DxBatchedVector@VPxVec3@physx@@@cloth@nv@@VNonTrackingAllocator@23@@shdfnd@physx@@QEBA_NXZ 0000000180082130 f i DxFactory.obj
 0001:00081190       ?empty@?$Array@PEAV?$DxBatchedVector@VPxVec4@physx@@@cloth@nv@@VNonTrackingAllocator@23@@shdfnd@physx@@QEBA_NXZ 0000000180082190 f i DxFactory.obj
 0001:000811f0       ?empty@?$DxBatchedVector@UIndexPair@cloth@nv@@@cloth@nv@@QEBA_NXZ 00000001800821f0 f i DxFactory.obj
 0001:00081250       ?getPlatform@DxFactory@cloth@nv@@UEBA?AW4Platform@23@XZ 0000000180082250 f i DxFactory.obj
 0001:00081260       ?manager@?$DxBatchedVector@U?$Vec4T@G@cloth@nv@@@cloth@nv@@QEBAPEAVDxContextManagerCallback@23@XZ 0000000180082260 f i DxFactory.obj
 0001:00081280       ?map@?$DxBatchedVector@U?$Vec4T@G@cloth@nv@@@cloth@nv@@QEAAPEAU?$Vec4T@G@23@W4D3D11_MAP@@@Z 0000000180082280 f i DxFactory.obj
 0001:00081310       ?memCopy@intrinsics@physx@@YAPEAXPEAXPEBXI@Z 0000000180082310 f i DxFactory.obj
 0001:00081370       ?resize@?$Array@UDxTether@cloth@nv@@VNonTrackingAllocator@23@@shdfnd@physx@@QEAAXIAEBUDxTether@cloth@nv@@@Z 0000000180082370 f i DxFactory.obj
 0001:00081440       ?size@?$Array@PEAVDxFabric@cloth@nv@@VNonTrackingAllocator@23@@shdfnd@physx@@QEBAIXZ 0000000180082440 f i DxFactory.obj
 0001:00081460       ?size@?$Array@UDxTether@cloth@nv@@VNonTrackingAllocator@23@@shdfnd@physx@@QEBAIXZ 0000000180082460 f i DxFactory.obj
 0001:00081480       ?unmap@?$DxBatchedVector@U?$Vec4T@G@cloth@nv@@@cloth@nv@@QEAAXXZ 0000000180082480 f i DxFactory.obj
 0001:00081550       ??0DxSolver@cloth@nv@@QEAA@AEAVDxFactory@12@@Z 0000000180082550 f   DxSolver.obj
 0001:000819e0       ??1DxSolver@cloth@nv@@UEAA@XZ 00000001800829e0 f   DxSolver.obj
 0001:00081ba0       ?addCloth@DxSolver@cloth@nv@@UEAAXPEAVCloth@23@@Z 0000000180082ba0 f   DxSolver.obj
 0001:00081bf0       ?addCloths@DxSolver@cloth@nv@@UEAAXU?$Range@PEAVCloth@cloth@nv@@@23@@Z 0000000180082bf0 f   DxSolver.obj
 0001:00081c70       ?removeCloth@DxSolver@cloth@nv@@UEAAXPEAVCloth@23@@Z 0000000180082c70 f   DxSolver.obj
 0001:00081d80       ?getNumCloths@DxSolver@cloth@nv@@UEBAHXZ 0000000180082d80 f   DxSolver.obj
 0001:00081dc0       ?getClothList@DxSolver@cloth@nv@@UEBAPEBQEAVCloth@23@XZ 0000000180082dc0 f   DxSolver.obj
 0001:00081e20       ?beginSimulation@DxSolver@cloth@nv@@UEAA_NM@Z 0000000180082e20 f   DxSolver.obj
 0001:00081e90       ?simulateChunk@DxSolver@cloth@nv@@UEAAXH@Z 0000000180082e90 f   DxSolver.obj
 0001:00081f90       ?endSimulation@DxSolver@cloth@nv@@UEAAXXZ 0000000180082f90 f   DxSolver.obj
 0001:00082030       ?getSimulationChunkCount@DxSolver@cloth@nv@@UEBAHXZ 0000000180083030 f   DxSolver.obj
 0001:00082090       ?addClothAppend@DxSolver@cloth@nv@@AEAAXPEAVCloth@23@@Z 0000000180083090 f   DxSolver.obj
 0001:00082180       ?addClothUpdateData@DxSolver@cloth@nv@@AEAAXXZ 0000000180083180 f   DxSolver.obj
 0001:00082330       ?beginFrame@DxSolver@cloth@nv@@AEAAXXZ 0000000180083330 f   DxSolver.obj
 0001:00082a80       ?executeKernel@DxSolver@cloth@nv@@AEAAXXZ 0000000180083a80 f   DxSolver.obj
 0001:00083280       ?endFrame@DxSolver@cloth@nv@@AEAAXXZ 0000000180084280 f   DxSolver.obj
 0001:00083610       ?interCollision@DxSolver@cloth@nv@@AEAAXXZ 0000000180084610 f   DxSolver.obj
 0001:00084560       ??$?0VDxCloth@cloth@nv@@@IterationStateFactory@cloth@nv@@QEAA@AEAVDxCloth@12@M@Z 0000000180085560 f i DxSolver.obj
 0001:00084a20       ??$?4VNonTrackingAllocator@cloth@nv@@@?$DxDeviceVector@UDxClothData@cloth@nv@@@cloth@nv@@QEAAAEAV012@AEBV?$Array@UDxClothData@cloth@nv@@VNonTrackingAllocator@23@@shdfnd@physx@@@Z 0000000180085a20 f i DxSolver.obj
 0001:00084aa0       ??$?4VNonTrackingAllocator@cloth@nv@@@?$DxDeviceVector@UDxIterationData@cloth@nv@@@cloth@nv@@QEAAAEAV012@AEBV?$Array@UDxIterationData@cloth@nv@@VNonTrackingAllocator@23@@shdfnd@physx@@@Z 0000000180085aa0 f i DxSolver.obj
 0001:00084b20       ??$create@T__m128@@VDxCloth@cloth@nv@@@IterationStateFactory@cloth@nv@@QEBA?AU?$IterationState@T__m128@@@12@AEBVDxCloth@12@@Z 0000000180085b20 f i DxSolver.obj
 0001:00086420       ??$median3@PEAVDxCloth@cloth@nv@@$$CBUClothSimCostGreater@?A0xc56557d8@@@internal@shdfnd@physx@@YAXPEAPEAVDxCloth@cloth@nv@@HHAEBUClothSimCostGreater@?A0xc56557d8@@@Z 0000000180087420 f i DxSolver.obj
 0001:000865e0       ??$partition@PEAVDxCloth@cloth@nv@@$$CBUClothSimCostGreater@?A0xc56557d8@@@internal@shdfnd@physx@@YAHPEAPEAVDxCloth@cloth@nv@@HHAEBUClothSimCostGreater@?A0xc56557d8@@@Z 00000001800875e0 f i DxSolver.obj
 0001:00086860       ??$smallSort@PEAVDxCloth@cloth@nv@@$$CBUClothSimCostGreater@?A0xc56557d8@@@internal@shdfnd@physx@@YAXPEAPEAVDxCloth@cloth@nv@@HHAEBUClothSimCostGreater@?A0xc56557d8@@@Z 0000000180087860 f i DxSolver.obj
 0001:00086980       ??$sort@PEAVDxCloth@cloth@nv@@UClothSimCostGreater@?A0xc56557d8@@VNonTrackingAllocator@23@@shdfnd@physx@@YAXPEAPEAVDxCloth@cloth@nv@@IAEBUClothSimCostGreater@?A0xc56557d8@@AEBVNonTrackingAllocator@34@I@Z 0000000180087980 f i DxSolver.obj
 0001:00086e60       ??$swap@PEAVDxCloth@cloth@nv@@@shdfnd@physx@@YAXAEAPEAVDxCloth@cloth@nv@@0@Z 0000000180087e60 f i DxSolver.obj
 0001:00086ed0       ??$swap@VPxVec3@physx@@@shdfnd@physx@@YAXAEAV?$DxBatchedVector@VPxVec3@physx@@@cloth@nv@@0@Z 0000000180087ed0 f i DxSolver.obj
 0001:00086f20       ??0?$Array@PEAVDxCloth@cloth@nv@@VNonTrackingAllocator@23@@shdfnd@physx@@QEAA@AEBVNonTrackingAllocator@cloth@nv@@@Z 0000000180087f20 f i DxSolver.obj
 0001:00086f70       ??0?$Array@UDxClothData@cloth@nv@@VNonTrackingAllocator@23@@shdfnd@physx@@QEAA@AEBVNonTrackingAllocator@cloth@nv@@@Z 0000000180087f70 f i DxSolver.obj
 0001:00086fc0       ??0?$Array@UDxIterationData@cloth@nv@@VNonTrackingAllocator@23@@shdfnd@physx@@QEAA@AEBVNonTrackingAllocator@cloth@nv@@@Z 0000000180087fc0 f i DxSolver.obj
 0001:00087010       ??0?$DxBuffer@UDxClothData@cloth@nv@@@cloth@nv@@QEAA@PEAVDxContextManagerCallback@12@AEBUDxBufferFlags@12@@Z 0000000180088010 f i DxSolver.obj
 0001:000870b0       ??0?$DxBuffer@UDxClothData@cloth@nv@@@cloth@nv@@QEAA@PEBUDxClothData@12@0PEAVDxContextManagerCallback@12@AEBUDxBufferFlags@12@@Z 00000001800880b0 f i DxSolver.obj
 0001:000871f0       ??0?$DxBuffer@UDxFrameData@cloth@nv@@@cloth@nv@@QEAA@PEAVDxContextManagerCallback@12@AEBUDxBufferFlags@12@@Z 00000001800881f0 f i DxSolver.obj
 0001:00087290       ??0?$DxBuffer@UDxIterationData@cloth@nv@@@cloth@nv@@QEAA@PEAVDxContextManagerCallback@12@AEBUDxBufferFlags@12@@Z 0000000180088290 f i DxSolver.obj
 0001:00087330       ??0?$DxBuffer@UDxIterationData@cloth@nv@@@cloth@nv@@QEAA@PEBUDxIterationData@12@0PEAVDxContextManagerCallback@12@AEBUDxBufferFlags@12@@Z 0000000180088330 f i DxSolver.obj
 0001:00087470       ??0?$DxDeviceVector@UDxClothData@cloth@nv@@@cloth@nv@@QEAA@PEAVDxContextManagerCallback@12@AEBUDxBufferFlags@12@@Z 0000000180088470 f i DxSolver.obj
 0001:000874e0       ??0?$DxDeviceVector@UDxFrameData@cloth@nv@@@cloth@nv@@QEAA@PEAVDxContextManagerCallback@12@AEBUDxBufferFlags@12@@Z 00000001800884e0 f i DxSolver.obj
 0001:00087550       ??0?$DxDeviceVector@UDxIterationData@cloth@nv@@@cloth@nv@@QEAA@PEAVDxContextManagerCallback@12@AEBUDxBufferFlags@12@@Z 0000000180088550 f i DxSolver.obj
 0001:000875c0       ??0?$ScopedPointer@HVTempAllocator@shdfnd@physx@@@shdfnd@physx@@QEAA@XZ 00000001800885c0 f i DxSolver.obj
 0001:00087610       ??0?$Stack@VNonTrackingAllocator@cloth@nv@@@internal@shdfnd@physx@@QEAA@PEAHIAEBVNonTrackingAllocator@cloth@nv@@@Z 0000000180088610 f i DxSolver.obj
 0001:00087670       ??0DxClothData@cloth@nv@@QEAA@XZ 0000000180088670 f i DxSolver.obj
 0001:00087680       ??0DxIterationData@cloth@nv@@QEAA@XZ 0000000180088680 f i DxSolver.obj
 0001:00087690       ??0TempAllocator@shdfnd@physx@@QEAA@PEBD@Z 0000000180088690 f i DxSolver.obj
 0001:000876b0       ??1?$Array@PEAVDxCloth@cloth@nv@@VNonTrackingAllocator@23@@shdfnd@physx@@QEAA@XZ 00000001800886b0 f i DxSolver.obj
 0001:00087750       ??1?$Array@UDxClothData@cloth@nv@@VNonTrackingAllocator@23@@shdfnd@physx@@QEAA@XZ 0000000180088750 f i DxSolver.obj
 0001:000877f0       ??1?$Array@UDxIterationData@cloth@nv@@VNonTrackingAllocator@23@@shdfnd@physx@@QEAA@XZ 00000001800887f0 f i DxSolver.obj
 0001:00087890       ??1?$DxBuffer@UDxClothData@cloth@nv@@@cloth@nv@@QEAA@XZ 0000000180088890 f i DxSolver.obj
 0001:00087980       ??1?$DxBuffer@UDxFrameData@cloth@nv@@@cloth@nv@@QEAA@XZ 0000000180088980 f i DxSolver.obj
 0001:00087a70       ??1?$DxBuffer@UDxIterationData@cloth@nv@@@cloth@nv@@QEAA@XZ 0000000180088a70 f i DxSolver.obj
 0001:00087b60       ??1?$DxDeviceVector@UDxClothData@cloth@nv@@@cloth@nv@@QEAA@XZ 0000000180088b60 f i DxSolver.obj
 0001:00087ba0       ??1?$DxDeviceVector@UDxFrameData@cloth@nv@@@cloth@nv@@QEAA@XZ 0000000180088ba0 f i DxSolver.obj
 0001:00087be0       ??1?$DxDeviceVector@UDxIterationData@cloth@nv@@@cloth@nv@@QEAA@XZ 0000000180088be0 f i DxSolver.obj
 0001:00087c20       ??1?$ScopedPointer@HVTempAllocator@shdfnd@physx@@@shdfnd@physx@@QEAA@XZ 0000000180088c20 f i DxSolver.obj
 0001:00087c80       ??1?$Stack@VNonTrackingAllocator@cloth@nv@@@internal@shdfnd@physx@@QEAA@XZ 0000000180088c80 f i DxSolver.obj
 0001:00087ce0       ??4?$DxBuffer@I@cloth@nv@@QEAAAEAV012@AEBV012@@Z 0000000180088ce0 f i DxSolver.obj
 0001:00087eb0       ??4?$DxBuffer@U?$Vec4T@G@cloth@nv@@@cloth@nv@@QEAAAEAV012@AEBV012@@Z 0000000180088eb0 f i DxSolver.obj
 0001:00088080       ??4?$DxBuffer@UDxClothData@cloth@nv@@@cloth@nv@@QEAAAEAV012@AEBV012@@Z 0000000180089080 f i DxSolver.obj
 0001:00088250       ??4?$DxBuffer@UDxFrameData@cloth@nv@@@cloth@nv@@QEAAAEAV012@AEBV012@@Z 0000000180089250 f i DxSolver.obj
 0001:00088420       ??4?$DxBuffer@UDxIterationData@cloth@nv@@@cloth@nv@@QEAAAEAV012@AEBV012@@Z 0000000180089420 f i DxSolver.obj
 0001:000885e0       ??4?$DxBuffer@UIndexPair@cloth@nv@@@cloth@nv@@QEAAAEAV012@AEBV012@@Z 00000001800895e0 f i DxSolver.obj
 0001:000887b0       ??4?$DxBuffer@VPxVec3@physx@@@cloth@nv@@QEAAAEAV012@AEBV012@@Z 00000001800897b0 f i DxSolver.obj
 0001:00088970       ??4?$DxBuffer@VPxVec4@physx@@@cloth@nv@@QEAAAEAV012@AEBV012@@Z 0000000180089970 f i DxSolver.obj
 0001:00088b30       ??4?$DxDeviceVector@UDxFrameData@cloth@nv@@@cloth@nv@@QEAAAEAV012@AEBV012@@Z 0000000180089b30 f i DxSolver.obj
 0001:00088ba0       ??A?$Array@PEAVDxCloth@cloth@nv@@VNonTrackingAllocator@23@@shdfnd@physx@@QEAAAEAPEAVDxCloth@cloth@nv@@I@Z 0000000180089ba0 f i DxSolver.obj
 0001:00088c60       ??A?$Array@PEAVDxCloth@cloth@nv@@VNonTrackingAllocator@23@@shdfnd@physx@@QEBAAEBQEAVDxCloth@cloth@nv@@I@Z 0000000180089c60 f i DxSolver.obj
 0001:00088d20       ??B?$ScopedPointer@HVTempAllocator@shdfnd@physx@@@shdfnd@physx@@QEBAPEAHXZ 0000000180089d20 f i DxSolver.obj
 0001:00088de0       ??_GDxSolver@cloth@nv@@UEAAPEAXI@Z 0000000180089de0 f i DxSolver.obj
 0001:00088de0       ??_EDxSolver@cloth@nv@@UEAAPEAXI@Z 0000000180089de0 f i DxSolver.obj
 0001:00088e70       ?DxDynamicBufferPolicy@cloth@nv@@YA?AUDxBufferFlags@12@XZ 0000000180089e70 f i DxSolver.obj
 0001:00088f10       ?accessView@?$DxBuffer@I@cloth@nv@@QEAAPEAUID3D11UnorderedAccessView@@XZ 0000000180089f10 f i DxSolver.obj
 0001:00088fd0       ?accessView@?$DxBuffer@UDxFrameData@cloth@nv@@@cloth@nv@@QEAAPEAUID3D11UnorderedAccessView@@XZ 0000000180089fd0 f i DxSolver.obj
 0001:00089090       ?accessView@?$DxBuffer@VPxVec4@physx@@@cloth@nv@@QEAAPEAUID3D11UnorderedAccessView@@XZ 000000018008a090 f i DxSolver.obj
 0001:00089150       ?accessViewRaw@?$DxBuffer@VPxVec4@physx@@@cloth@nv@@QEAAPEAUID3D11UnorderedAccessView@@XZ 000000018008a150 f i DxSolver.obj
 0001:000892c0       ?allocate@?$Array@PEAVDxCloth@cloth@nv@@VNonTrackingAllocator@23@@shdfnd@physx@@IEAAPEAPEAVDxCloth@cloth@nv@@I@Z 000000018008a2c0 f i DxSolver.obj
 0001:00089390       ?allocate@?$Array@UDxClothData@cloth@nv@@VNonTrackingAllocator@23@@shdfnd@physx@@IEAAPEAUDxClothData@cloth@nv@@I@Z 000000018008a390 f i DxSolver.obj
 0001:00089460       ?allocate@?$Array@UDxIterationData@cloth@nv@@VNonTrackingAllocator@23@@shdfnd@physx@@IEAAPEAUDxIterationData@cloth@nv@@I@Z 000000018008a460 f i DxSolver.obj
 0001:00089530       ?assign@?$DxDeviceVector@UDxClothData@cloth@nv@@@cloth@nv@@QEAAXPEBUDxClothData@23@0@Z 000000018008a530 f i DxSolver.obj
 0001:000897a0       ?assign@?$DxDeviceVector@UDxIterationData@cloth@nv@@@cloth@nv@@QEAAXPEBUDxIterationData@23@0@Z 000000018008a7a0 f i DxSolver.obj
 0001:00089a10       ?begin@?$Array@PEAVDxCloth@cloth@nv@@VNonTrackingAllocator@23@@shdfnd@physx@@QEAAPEAPEAVDxCloth@cloth@nv@@XZ 000000018008aa10 f i DxSolver.obj
 0001:00089a30       ?begin@?$Array@UDxClothData@cloth@nv@@VNonTrackingAllocator@23@@shdfnd@physx@@QEAAPEAUDxClothData@cloth@nv@@XZ 000000018008aa30 f i DxSolver.obj
 0001:00089a50       ?begin@?$Array@UDxClothData@cloth@nv@@VNonTrackingAllocator@23@@shdfnd@physx@@QEBAPEBUDxClothData@cloth@nv@@XZ 000000018008aa50 f i DxSolver.obj
 0001:00089a70       ?begin@?$Array@UDxIterationData@cloth@nv@@VNonTrackingAllocator@23@@shdfnd@physx@@QEBAPEBUDxIterationData@cloth@nv@@XZ 000000018008aa70 f i DxSolver.obj
 0001:00089a90       ?capacity@?$Array@PEAVDxCloth@cloth@nv@@VNonTrackingAllocator@23@@shdfnd@physx@@QEBAIXZ 000000018008aa90 f i DxSolver.obj
 0001:00089ab0       ?capacity@?$Array@UDxClothData@cloth@nv@@VNonTrackingAllocator@23@@shdfnd@physx@@QEBAIXZ 000000018008aab0 f i DxSolver.obj
 0001:00089ad0       ?capacity@?$Array@UDxIterationData@cloth@nv@@VNonTrackingAllocator@23@@shdfnd@physx@@QEBAIXZ 000000018008aad0 f i DxSolver.obj
 0001:00089af0       ?capacityIncrement@?$Array@PEAVDxCloth@cloth@nv@@VNonTrackingAllocator@23@@shdfnd@physx@@IEBAIXZ 000000018008aaf0 f i DxSolver.obj
 0001:00089b60       ?capacityIncrement@?$Array@UDxIterationData@cloth@nv@@VNonTrackingAllocator@23@@shdfnd@physx@@IEBAIXZ 000000018008ab60 f i DxSolver.obj
 0001:00089bd0       ?context@?$DxBuffer@UDxClothData@cloth@nv@@@cloth@nv@@QEBAPEAUID3D11DeviceContext@@XZ 000000018008abd0 f i DxSolver.obj
 0001:00089c20       ?context@?$DxBuffer@UDxFrameData@cloth@nv@@@cloth@nv@@QEBAPEAUID3D11DeviceContext@@XZ 000000018008ac20 f i DxSolver.obj
 0001:00089c70       ?context@?$DxBuffer@UDxIterationData@cloth@nv@@@cloth@nv@@QEBAPEAUID3D11DeviceContext@@XZ 000000018008ac70 f i DxSolver.obj
 0001:00089cc0       ?copy@?$Array@PEAVDxCloth@cloth@nv@@VNonTrackingAllocator@23@@shdfnd@physx@@KAXPEAPEAVDxCloth@cloth@nv@@0PEBQEAV456@@Z 000000018008acc0 f i DxSolver.obj
 0001:00089da0       ?copy@?$Array@UDxClothData@cloth@nv@@VNonTrackingAllocator@23@@shdfnd@physx@@KAXPEAUDxClothData@cloth@nv@@0PEBU456@@Z 000000018008ada0 f i DxSolver.obj
 0001:00089e80       ?copy@?$Array@UDxIterationData@cloth@nv@@VNonTrackingAllocator@23@@shdfnd@physx@@KAXPEAUDxIterationData@cloth@nv@@0PEBU456@@Z 000000018008ae80 f i DxSolver.obj
 0001:00089f60       ?create@?$Array@UDxClothData@cloth@nv@@VNonTrackingAllocator@23@@shdfnd@physx@@KAXPEAUDxClothData@cloth@nv@@0AEBU456@@Z 000000018008af60 f i DxSolver.obj
 0001:0008a020       ?create@?$Array@UDxIterationData@cloth@nv@@VNonTrackingAllocator@23@@shdfnd@physx@@KAXPEAUDxIterationData@cloth@nv@@0AEBU456@@Z 000000018008b020 f i DxSolver.obj
 0001:0008a0e0       ?create@?$DxBuffer@UDxClothData@cloth@nv@@@cloth@nv@@AEAAXIPEAUD3D11_SUBRESOURCE_DATA@@@Z 000000018008b0e0 f i DxSolver.obj
 0001:0008a360       ?create@?$DxBuffer@UDxFrameData@cloth@nv@@@cloth@nv@@AEAAXIPEAUD3D11_SUBRESOURCE_DATA@@@Z 000000018008b360 f i DxSolver.obj
 0001:0008a5e0       ?create@?$DxBuffer@UDxIterationData@cloth@nv@@@cloth@nv@@AEAAXIPEAUD3D11_SUBRESOURCE_DATA@@@Z 000000018008b5e0 f i DxSolver.obj
 0001:0008a860       ?deallocate@?$Array@PEAVDxCloth@cloth@nv@@VNonTrackingAllocator@23@@shdfnd@physx@@IEAAXPEAX@Z 000000018008b860 f i DxSolver.obj
 0001:0008a8b0       ?deallocate@?$Array@UDxClothData@cloth@nv@@VNonTrackingAllocator@23@@shdfnd@physx@@IEAAXPEAX@Z 000000018008b8b0 f i DxSolver.obj
 0001:0008a900       ?deallocate@?$Array@UDxIterationData@cloth@nv@@VNonTrackingAllocator@23@@shdfnd@physx@@IEAAXPEAX@Z 000000018008b900 f i DxSolver.obj
 0001:0008a950       ?destroy@?$Array@PEAVDxCloth@cloth@nv@@VNonTrackingAllocator@23@@shdfnd@physx@@KAXPEAPEAVDxCloth@cloth@nv@@0@Z 000000018008b950 f i DxSolver.obj
 0001:0008a990       ?destroy@?$Array@UDxClothData@cloth@nv@@VNonTrackingAllocator@23@@shdfnd@physx@@KAXPEAUDxClothData@cloth@nv@@0@Z 000000018008b990 f i DxSolver.obj
 0001:0008a9d0       ?destroy@?$Array@UDxIterationData@cloth@nv@@VNonTrackingAllocator@23@@shdfnd@physx@@KAXPEAUDxIterationData@cloth@nv@@0@Z 000000018008b9d0 f i DxSolver.obj
 0001:0008aa10       ?empty@?$Array@PEAVDxCloth@cloth@nv@@VNonTrackingAllocator@23@@shdfnd@physx@@QEBA_NXZ 000000018008ba10 f i DxSolver.obj
 0001:0008aa70       ?empty@?$Stack@VNonTrackingAllocator@cloth@nv@@@internal@shdfnd@physx@@QEAA_NXZ 000000018008ba70 f i DxSolver.obj
 0001:0008aad0       ?end@?$Array@PEAVDxCloth@cloth@nv@@VNonTrackingAllocator@23@@shdfnd@physx@@QEAAPEAPEAVDxCloth@cloth@nv@@XZ 000000018008bad0 f i DxSolver.obj
 0001:0008ab00       ?end@?$Array@UDxClothData@cloth@nv@@VNonTrackingAllocator@23@@shdfnd@physx@@QEBAPEBUDxClothData@cloth@nv@@XZ 000000018008bb00 f i DxSolver.obj
 0001:0008ab30       ?end@?$Array@UDxIterationData@cloth@nv@@VNonTrackingAllocator@23@@shdfnd@physx@@QEBAPEBUDxIterationData@cloth@nv@@XZ 000000018008bb30 f i DxSolver.obj
 0001:0008ab60       ?find@?$Array@PEAVDxCloth@cloth@nv@@VNonTrackingAllocator@23@@shdfnd@physx@@QEAAPEAPEAVDxCloth@cloth@nv@@AEBQEAV456@@Z 000000018008bb60 f i DxSolver.obj
 0001:0008abf0       ?getInterCollisionDistance@DxSolver@cloth@nv@@UEBAMXZ 000000018008bbf0 f i DxSolver.obj
 0001:0008ac30       ?getInterCollisionNbIterations@DxSolver@cloth@nv@@UEBAIXZ 000000018008bc30 f i DxSolver.obj
 0001:0008ac50       ?getInterCollisionStiffness@DxSolver@cloth@nv@@UEBAMXZ 000000018008bc50 f i DxSolver.obj
 0001:0008ac90       ?grow@?$Array@UDxClothData@cloth@nv@@VNonTrackingAllocator@23@@shdfnd@physx@@IEAAXI@Z 000000018008bc90 f i DxSolver.obj
 0001:0008ad50       ?grow@?$Array@UDxIterationData@cloth@nv@@VNonTrackingAllocator@23@@shdfnd@physx@@IEAAXI@Z 000000018008bd50 f i DxSolver.obj
 0001:0008ae10       ?grow@?$Stack@VNonTrackingAllocator@cloth@nv@@@internal@shdfnd@physx@@QEAAXXZ 000000018008be10 f i DxSolver.obj
 0001:0008af00       ?growAndPushBack@?$Array@PEAVDxCloth@cloth@nv@@VNonTrackingAllocator@23@@shdfnd@physx@@IEAAAEAPEAVDxCloth@cloth@nv@@AEBQEAV456@@Z 000000018008bf00 f i DxSolver.obj
 0001:0008b120       ?growAndPushBack@?$Array@UDxIterationData@cloth@nv@@VNonTrackingAllocator@23@@shdfnd@physx@@IEAAAEAUDxIterationData@cloth@nv@@AEBU456@@Z 000000018008c120 f i DxSolver.obj
 0001:0008b3a0       ?hasError@DxSolver@cloth@nv@@UEBA_NXZ 000000018008c3a0 f i DxSolver.obj
 0001:0008b3c0       ?isInUserMemory@?$Array@PEAVDxCloth@cloth@nv@@VNonTrackingAllocator@23@@shdfnd@physx@@QEBAIXZ 000000018008c3c0 f i DxSolver.obj
 0001:0008b3e0       ?isInUserMemory@?$Array@UDxClothData@cloth@nv@@VNonTrackingAllocator@23@@shdfnd@physx@@QEBAIXZ 000000018008c3e0 f i DxSolver.obj
 0001:0008b400       ?isInUserMemory@?$Array@UDxIterationData@cloth@nv@@VNonTrackingAllocator@23@@shdfnd@physx@@QEBAIXZ 000000018008c400 f i DxSolver.obj
 0001:0008b420       ?map@?$DxBuffer@UDxClothData@cloth@nv@@@cloth@nv@@QEAAPEAUDxClothData@23@W4D3D11_MAP@@@Z 000000018008c420 f i DxSolver.obj
 0001:0008b4e0       ?map@?$DxBuffer@UDxFrameData@cloth@nv@@@cloth@nv@@QEAAPEAUDxFrameData@23@W4D3D11_MAP@@@Z 000000018008c4e0 f i DxSolver.obj
 0001:0008b5a0       ?map@?$DxBuffer@UDxIterationData@cloth@nv@@@cloth@nv@@QEAAPEAUDxIterationData@23@W4D3D11_MAP@@@Z 000000018008c5a0 f i DxSolver.obj
 0001:0008b660       ?map@?$DxDeviceVector@UDxClothData@cloth@nv@@@cloth@nv@@QEAAPEAUDxClothData@23@W4D3D11_MAP@@@Z 000000018008c660 f i DxSolver.obj
 0001:0008b6b0       ?map@?$DxDeviceVector@UDxFrameData@cloth@nv@@@cloth@nv@@QEAAPEAUDxFrameData@23@W4D3D11_MAP@@@Z 000000018008c6b0 f i DxSolver.obj
 0001:0008b700       ?map@?$DxDeviceVector@UDxIterationData@cloth@nv@@@cloth@nv@@QEAAPEAUDxIterationData@23@W4D3D11_MAP@@@Z 000000018008c700 f i DxSolver.obj
 0001:0008b750       ?pop@?$Stack@VNonTrackingAllocator@cloth@nv@@@internal@shdfnd@physx@@QEAAXAEAH0@Z 000000018008c750 f i DxSolver.obj
 0001:0008b880       ?push@?$Stack@VNonTrackingAllocator@cloth@nv@@@internal@shdfnd@physx@@QEAAXHH@Z 000000018008c880 f i DxSolver.obj
 0001:0008b950       ?pushBack@?$Array@PEAVDxCloth@cloth@nv@@VNonTrackingAllocator@23@@shdfnd@physx@@QEAAAEAPEAVDxCloth@cloth@nv@@AEBQEAV456@@Z 000000018008c950 f i DxSolver.obj
 0001:0008ba60       ?pushBack@?$Array@UDxIterationData@cloth@nv@@VNonTrackingAllocator@23@@shdfnd@physx@@QEAAAEAUDxIterationData@cloth@nv@@AEBU456@@Z 000000018008ca60 f i DxSolver.obj
 0001:0008bb70       ?recreate@?$Array@UDxClothData@cloth@nv@@VNonTrackingAllocator@23@@shdfnd@physx@@IEAAXI@Z 000000018008cb70 f i DxSolver.obj
 0001:0008bcf0       ?recreate@?$Array@UDxIterationData@cloth@nv@@VNonTrackingAllocator@23@@shdfnd@physx@@IEAAXI@Z 000000018008ccf0 f i DxSolver.obj
 0001:0008be70       ?remove@?$Array@PEAVDxCloth@cloth@nv@@VNonTrackingAllocator@23@@shdfnd@physx@@QEAAXI@Z 000000018008ce70 f i DxSolver.obj
 0001:0008bfd0       ?remove@?$Array@UDxClothData@cloth@nv@@VNonTrackingAllocator@23@@shdfnd@physx@@QEAAXI@Z 000000018008cfd0 f i DxSolver.obj
 0001:0008c150       ?reserve@?$Array@UDxClothData@cloth@nv@@VNonTrackingAllocator@23@@shdfnd@physx@@QEAAXI@Z 000000018008d150 f i DxSolver.obj
 0001:0008c1b0       ?reserve@?$Array@UDxIterationData@cloth@nv@@VNonTrackingAllocator@23@@shdfnd@physx@@QEAAXI@Z 000000018008d1b0 f i DxSolver.obj
 0001:0008c210       ?reserve@?$DxBuffer@UDxClothData@cloth@nv@@@cloth@nv@@QEAAXI@Z 000000018008d210 f i DxSolver.obj
 0001:0008c3b0       ?reserve@?$DxBuffer@UDxFrameData@cloth@nv@@@cloth@nv@@QEAAXI@Z 000000018008d3b0 f i DxSolver.obj
 0001:0008c550       ?reserve@?$DxDeviceVector@UDxClothData@cloth@nv@@@cloth@nv@@QEAAXI@Z 000000018008d550 f i DxSolver.obj
 0001:0008c5a0       ?reserve@?$DxDeviceVector@UDxFrameData@cloth@nv@@@cloth@nv@@QEAAXI@Z 000000018008d5a0 f i DxSolver.obj
 0001:0008c5f0       ?resize@?$Array@UDxClothData@cloth@nv@@VNonTrackingAllocator@23@@shdfnd@physx@@QEAAXIAEBUDxClothData@cloth@nv@@@Z 000000018008d5f0 f i DxSolver.obj
 0001:0008c6d0       ?resize@?$Array@UDxIterationData@cloth@nv@@VNonTrackingAllocator@23@@shdfnd@physx@@QEAAXIAEBUDxIterationData@cloth@nv@@@Z 000000018008d6d0 f i DxSolver.obj
 0001:0008c7a0       ?resize@?$DxDeviceVector@UDxClothData@cloth@nv@@@cloth@nv@@QEAAXI@Z 000000018008d7a0 f i DxSolver.obj
 0001:0008c830       ?resize@?$DxDeviceVector@UDxFrameData@cloth@nv@@@cloth@nv@@QEAAXI@Z 000000018008d830 f i DxSolver.obj
 0001:0008c8c0       ?resourceView@?$DxBuffer@I@cloth@nv@@QEAAPEAUID3D11ShaderResourceView@@XZ 000000018008d8c0 f i DxSolver.obj
 0001:0008c980       ?resourceView@?$DxBuffer@M@cloth@nv@@QEAAPEAUID3D11ShaderResourceView@@XZ 000000018008d980 f i DxSolver.obj
 0001:0008ca40       ?resourceView@?$DxBuffer@U?$Vec4T@G@cloth@nv@@@cloth@nv@@QEAAPEAUID3D11ShaderResourceView@@XZ 000000018008da40 f i DxSolver.obj
 0001:0008cb00       ?resourceView@?$DxBuffer@UDxClothData@cloth@nv@@@cloth@nv@@QEAAPEAUID3D11ShaderResourceView@@XZ 000000018008db00 f i DxSolver.obj
 0001:0008cbc0       ?resourceView@?$DxBuffer@UDxConstraint@cloth@nv@@@cloth@nv@@QEAAPEAUID3D11ShaderResourceView@@XZ 000000018008dbc0 f i DxSolver.obj
 0001:0008cc80       ?resourceView@?$DxBuffer@UDxIterationData@cloth@nv@@@cloth@nv@@QEAAPEAUID3D11ShaderResourceView@@XZ 000000018008dc80 f i DxSolver.obj
 0001:0008cd40       ?resourceView@?$DxBuffer@UDxPhaseConfig@cloth@nv@@@cloth@nv@@QEAAPEAUID3D11ShaderResourceView@@XZ 000000018008dd40 f i DxSolver.obj
 0001:0008ce00       ?resourceView@?$DxBuffer@UDxTether@cloth@nv@@@cloth@nv@@QEAAPEAUID3D11ShaderResourceView@@XZ 000000018008de00 f i DxSolver.obj
 0001:0008cec0       ?resourceView@?$DxBuffer@UIndexPair@cloth@nv@@@cloth@nv@@QEAAPEAUID3D11ShaderResourceView@@XZ 000000018008dec0 f i DxSolver.obj
 0001:0008cf80       ?resourceView@?$DxBuffer@VPxVec3@physx@@@cloth@nv@@QEAAPEAUID3D11ShaderResourceView@@XZ 000000018008df80 f i DxSolver.obj
 0001:0008d040       ?resourceView@?$DxBuffer@VPxVec4@physx@@@cloth@nv@@QEAAPEAUID3D11ShaderResourceView@@XZ 000000018008e040 f i DxSolver.obj
 0001:0008d100       ?setInterCollisionDistance@DxSolver@cloth@nv@@UEAAXM@Z 000000018008e100 f i DxSolver.obj
 0001:0008d130       ?setInterCollisionFilter@DxSolver@cloth@nv@@UEAAXP6A_NPEAX0@Z@Z 000000018008e130 f i DxSolver.obj
 0001:0008d160       ?setInterCollisionNbIterations@DxSolver@cloth@nv@@UEAAXI@Z 000000018008e160 f i DxSolver.obj
 0001:0008d190       ?setInterCollisionStiffness@DxSolver@cloth@nv@@UEAAXM@Z 000000018008e190 f i DxSolver.obj
 0001:0008d1c0       ?size@?$Array@PEAVDxCloth@cloth@nv@@VNonTrackingAllocator@23@@shdfnd@physx@@QEBAIXZ 000000018008e1c0 f i DxSolver.obj
 0001:0008d1e0       ?size@?$Array@UDxClothData@cloth@nv@@VNonTrackingAllocator@23@@shdfnd@physx@@QEBAIXZ 000000018008e1e0 f i DxSolver.obj
 0001:0008d200       ?size@?$Array@UDxIterationData@cloth@nv@@VNonTrackingAllocator@23@@shdfnd@physx@@QEBAIXZ 000000018008e200 f i DxSolver.obj
 0001:0008d220       ?size@?$DxDeviceVector@UDxClothData@cloth@nv@@@cloth@nv@@QEBAIXZ 000000018008e220 f i DxSolver.obj
 0001:0008d240       ?swap@?$DxBatchedVector@VPxVec3@physx@@@cloth@nv@@QEAAXAEAV123@@Z 000000018008e240 f i DxSolver.obj
 0001:0008d350       ?unmap@?$DxBuffer@UDxClothData@cloth@nv@@@cloth@nv@@QEAAXXZ 000000018008e350 f i DxSolver.obj
 0001:0008d3c0       ?unmap@?$DxBuffer@UDxFrameData@cloth@nv@@@cloth@nv@@QEAAXXZ 000000018008e3c0 f i DxSolver.obj
 0001:0008d430       ?unmap@?$DxBuffer@UDxIterationData@cloth@nv@@@cloth@nv@@QEAAXXZ 000000018008e430 f i DxSolver.obj
 0001:0008d4a0       ?unmap@?$DxDeviceVector@UDxClothData@cloth@nv@@@cloth@nv@@QEAAXXZ 000000018008e4a0 f i DxSolver.obj
 0001:0008d4e0       ?unmap@?$DxDeviceVector@UDxFrameData@cloth@nv@@@cloth@nv@@QEAAXXZ 000000018008e4e0 f i DxSolver.obj
 0001:0008d520       ?unmap@?$DxDeviceVector@UDxIterationData@cloth@nv@@@cloth@nv@@QEAAXXZ 000000018008e520 f i DxSolver.obj
 0001:0008d560       ?initialize@avx@@YAXXZ     000000018008e560 f   SwSolveConstraints.obj
 0001:0008d640       ??$fmadd_ps@$01@avx@@YA?AT__m256@@T1@00@Z 000000018008e640 f   SwSolveConstraints.obj
 0001:0008d6c0       ??$fnmadd_ps@$01@avx@@YA?AT__m256@@T1@00@Z 000000018008e6c0 f   SwSolveConstraints.obj
 0001:0008d740       ??$exp2@$01@avx@@YA?AT__m256@@AEBT1@@Z 000000018008e740 f   SwSolveConstraints.obj
 0001:0008dc60       ??$exp2@$00@avx@@YA?AT__m256@@AEBT1@@Z 000000018008ec60 f i SwSolveConstraints.obj
 0001:0008e350       ??$fmadd_ps@$00@avx@@YA?AT__m256@@T1@00@Z 000000018008f350 f i SwSolveConstraints.obj
 0001:0008e3f0       ??$fnmadd_ps@$00@avx@@YA?AT__m256@@T1@00@Z 000000018008f3f0 f i SwSolveConstraints.obj
 0001:0008e490       ??$solveConstraints@$00$00@avx@@YAXPEIAMPEIBM11PEIBGAEBT__m128@@3@Z 000000018008f490 f i SwSolveConstraints.obj
 0001:000900c0       ??$solveConstraints@$00$01@avx@@YAXPEIAMPEIBM11PEIBGAEBT__m128@@3@Z 00000001800910c0 f i SwSolveConstraints.obj
 0001:00091cf0       ??$solveConstraints@$0A@$00@avx@@YAXPEIAMPEIBM11PEIBGAEBT__m128@@3@Z 0000000180092cf0 f i SwSolveConstraints.obj
 0001:00093920       ??$solveConstraints@$0A@$01@avx@@YAXPEIAMPEIBM11PEIBGAEBT__m128@@3@Z 0000000180094920 f i SwSolveConstraints.obj
 0001:00095550       ?allocate@cloth@nv@@YAPEAX_K@Z 0000000180096550 f   Allocator.obj
 0001:000955d0       ?deallocate@cloth@nv@@YAXPEAX@Z 00000001800965d0 f   Allocator.obj
 0001:00095650       InitializeNvCloth          0000000180096650 f   Callbacks.obj
 0001:00095770       GetNvClothAllocator        0000000180096770 f   Callbacks.obj
 0001:000957f0       ?LogErrorFn@cloth@nv@@YAXPEBDH0ZZ 00000001800967f0 f   Callbacks.obj
 0001:00095880       ?LogInvalidParameterFn@cloth@nv@@YAXPEBDH0ZZ 0000000180096880 f   Callbacks.obj
 0001:00095910       ?LogWarningFn@cloth@nv@@YAXPEBDH0ZZ 0000000180096910 f   Callbacks.obj
 0001:000959a0       ?LogInfoFn@cloth@nv@@YAXPEBDH0ZZ 00000001800969a0 f   Callbacks.obj
 0001:00095a30       GetNvClothAssertHandler    0000000180096a30 f   Callbacks.obj
 0001:00095a50       ?GetNvClothProfiler@cloth@nv@@YAPEAVPxProfilerCallback@physx@@XZ 0000000180096a50 f   Callbacks.obj
 0001:00095a70       ?LogFn@cloth@nv@@YAXW4Enum@PxErrorCode@physx@@PEBDH1PEAD@Z 0000000180096a70 f   Callbacks.obj
 0001:00095c60       ??$__vcrt_va_start_verify_argument_type@PEBD@@YAXXZ 0000000180096c60 f i Callbacks.obj
 0001:00095c70       __local_stdio_printf_options 0000000180096c70 f i Callbacks.obj
 0001:00095c80       _vsnprintf_s               0000000180096c80 f i Callbacks.obj
 0001:00095d00       _vsnprintf_s_l             0000000180096d00 f i Callbacks.obj
 0001:00095dc0       NvClothCreateFactoryCPU    0000000180096dc0 f   Factory.obj
 0001:00095e30       NvClothCreateFactoryCUDA   0000000180096e30 f   Factory.obj
 0001:00095eb0       NvClothCreateFactoryDX11   0000000180096eb0 f   Factory.obj
 0001:00095f60       NvClothDestroyFactory      0000000180096f60 f   Factory.obj
 0001:00095fd0       NvClothCompiledWithCudaSupport 0000000180096fd0 f   Factory.obj
 0001:00095fe0       NvClothCompiledWithDxSupport 0000000180096fe0 f   Factory.obj
 0001:00095ff0       ?getNextFabricId@cloth@nv@@YAIXZ 0000000180096ff0 f   Factory.obj
 0001:000960c0       ?transform@cloth@nv@@YA?AUPhaseConfig@12@AEBU312@@Z 00000001800970c0 f   PhaseConfig.obj
 0001:000961f0       ??0PhaseConfig@cloth@nv@@QEAA@G@Z 00000001800971f0 f i PhaseConfig.obj
 0001:00096290       ??0SwCloth@cloth@nv@@QEAA@AEAVSwFactory@12@AEAVSwFabric@12@U?$Range@$$CBVPxVec4@physx@@@12@@Z 0000000180097290 f   SwCloth.obj
 0001:00096850       ??0SwCloth@cloth@nv@@QEAA@AEAVSwFactory@12@AEBV012@@Z 0000000180097850 f   SwCloth.obj
 0001:00096e10       ??1SwCloth@cloth@nv@@UEAA@XZ 0000000180097e10 f   SwCloth.obj
 0001:00096fc0       ?clone@SwCloth@cloth@nv@@UEBAPEAVCloth@23@AEAVFactory@23@@Z 0000000180097fc0 f   SwCloth.obj
 0001:00097010       ?getNumParticles@SwCloth@cloth@nv@@UEBAIXZ 0000000180098010 f   SwCloth.obj
 0001:00097050       ?lockParticles@SwCloth@cloth@nv@@UEBAXXZ 0000000180098050 f   SwCloth.obj
 0001:00097060       ?unlockParticles@SwCloth@cloth@nv@@UEBAXXZ 0000000180098060 f   SwCloth.obj
 0001:00097070       ?getCurrentParticles@SwCloth@cloth@nv@@UEAA?AU?$MappedRange@VPxVec4@physx@@@23@XZ 0000000180098070 f   SwCloth.obj
 0001:000970d0       ?getCurrentParticles@SwCloth@cloth@nv@@UEBA?AU?$MappedRange@$$CBVPxVec4@physx@@@23@XZ 00000001800980d0 f   SwCloth.obj
 0001:00097130       ?getPreviousParticles@SwCloth@cloth@nv@@UEAA?AU?$MappedRange@VPxVec4@physx@@@23@XZ 0000000180098130 f   SwCloth.obj
 0001:00097190       ?getPreviousParticles@SwCloth@cloth@nv@@UEBA?AU?$MappedRange@$$CBVPxVec4@physx@@@23@XZ 0000000180098190 f   SwCloth.obj
 0001:000971f0       ?getGpuParticles@SwCloth@cloth@nv@@UEAA?AUGpuParticles@23@XZ 00000001800981f0 f   SwCloth.obj
 0001:00097270       ?setPhaseConfig@SwCloth@cloth@nv@@UEAAXU?$Range@$$CBUPhaseConfig@cloth@nv@@@23@@Z 0000000180098270 f   SwCloth.obj
 0001:00097340       ?setSelfCollisionIndices@SwCloth@cloth@nv@@UEAAXU?$Range@$$CBI@23@@Z 0000000180098340 f   SwCloth.obj
 0001:000973f0       ?getNumVirtualParticles@SwCloth@cloth@nv@@UEBAIXZ 00000001800983f0 f   SwCloth.obj
 0001:00097410       ?getParticleAccelerations@SwCloth@cloth@nv@@UEAA?AU?$Range@VPxVec4@physx@@@23@XZ 0000000180098410 f   SwCloth.obj
 0001:00097500       ?clearParticleAccelerations@SwCloth@cloth@nv@@UEAAXXZ 0000000180098500 f   SwCloth.obj
 0001:00097580       ?setVirtualParticles@SwCloth@cloth@nv@@UEAAXU?$Range@$$BY03$$CBI@23@U?$Range@$$CBVPxVec3@physx@@@23@@Z 0000000180098580 f   SwCloth.obj
 0001:000977b0       ?setParticleBounds@SwCloth@cloth@nv@@QEAAXPEBM@Z 00000001800987b0 f   SwCloth.obj
 0001:000978b0       ?push@SwCloth@cloth@nv@@QEAA?AU?$Range@VPxVec4@physx@@@23@AEAUSwConstraints@23@@Z 00000001800988b0 f   SwCloth.obj
 0001:00097a30       ?clear@SwCloth@cloth@nv@@SAXAEAUSwConstraints@23@@Z 0000000180098a30 f   SwCloth.obj
 0001:00097ae0       ?clampTriangleCount@SwCloth@cloth@nv@@SA?AU?$Range@$$CBVPxVec3@physx@@@23@U423@I@Z 0000000180098ae0 f   SwCloth.obj
 0001:00098230       ??$?4VNonTrackingAllocator@cloth@nv@@@?$Array@VPxVec4@physx@@VNonTrackingAllocator@cloth@nv@@@shdfnd@physx@@QEAAAEAV012@AEBV012@@Z 0000000180099230 f i SwCloth.obj
 0001:000982f0       ??$copy@VNonTrackingAllocator@cloth@nv@@@?$Array@IVNonTrackingAllocator@cloth@nv@@@shdfnd@physx@@IEAAXAEBV012@@Z 00000001800992f0 f i SwCloth.obj
 0001:000983f0       ??$copy@VNonTrackingAllocator@cloth@nv@@@?$Array@U?$Vec4T@G@cloth@nv@@VNonTrackingAllocator@23@@shdfnd@physx@@IEAAXAEBV012@@Z 00000001800993f0 f i SwCloth.obj
 0001:000984f0       ??$copy@VNonTrackingAllocator@cloth@nv@@@?$Array@UIndexPair@cloth@nv@@VNonTrackingAllocator@23@@shdfnd@physx@@IEAAXAEBV012@@Z 00000001800994f0 f i SwCloth.obj
 0001:000985f0       ??$copy@VNonTrackingAllocator@cloth@nv@@@?$Array@VPxVec3@physx@@VNonTrackingAllocator@cloth@nv@@@shdfnd@physx@@IEAAXAEBV012@@Z 00000001800995f0 f i SwCloth.obj
 0001:000986f0       ??$copy@VSwCloth@cloth@nv@@V123@@cloth@nv@@YAXAEAVSwCloth@01@AEBV201@@Z 00000001800996f0 f i SwCloth.obj
 0001:00098bb0       ??$getMappedParticles@$$CBVPxVec4@physx@@@?$ClothImpl@VSwCloth@cloth@nv@@@cloth@nv@@QEBA?AU?$MappedRange@$$CBVPxVec4@physx@@@12@PEBVPxVec4@physx@@@Z 0000000180099bb0 f i SwCloth.obj
 0001:00098ce0       ??$getMappedParticles@VPxVec4@physx@@@?$ClothImpl@VSwCloth@cloth@nv@@@cloth@nv@@QEBA?AU?$MappedRange@VPxVec4@physx@@@12@PEAVPxVec4@physx@@@Z 0000000180099ce0 f i SwCloth.obj
 0001:00098e10       ??$initialize@VSwCloth@cloth@nv@@@cloth@nv@@YAXAEAVSwCloth@01@PEBVPxVec4@physx@@1@Z 0000000180099e10 f i SwCloth.obj
 0001:00099490       ??$swap@PEAU?$Vec4T@G@cloth@nv@@@shdfnd@physx@@YAXAEAPEAU?$Vec4T@G@cloth@nv@@0@Z 000000018009a490 f i SwCloth.obj
 0001:00099500       ??$swap@VPxVec4@physx@@VNonTrackingAllocator@cloth@nv@@@shdfnd@physx@@YAXAEAV?$Array@VPxVec4@physx@@VNonTrackingAllocator@cloth@nv@@@01@0@Z 000000018009a500 f i SwCloth.obj
 0001:00099550       ??0?$Array@IVNonTrackingAllocator@cloth@nv@@@shdfnd@physx@@QEAA@AEBV012@AEBVNonTrackingAllocator@cloth@nv@@@Z 000000018009a550 f i SwCloth.obj
 0001:000995b0       ??0?$Array@U?$Vec4T@G@cloth@nv@@VNonTrackingAllocator@23@@shdfnd@physx@@QEAA@AEBV012@AEBVNonTrackingAllocator@cloth@nv@@@Z 000000018009a5b0 f i SwCloth.obj
 0001:00099610       ??0?$Array@UIndexPair@cloth@nv@@VNonTrackingAllocator@23@@shdfnd@physx@@QEAA@AEBV012@AEBVNonTrackingAllocator@cloth@nv@@@Z 000000018009a610 f i SwCloth.obj
 0001:00099670       ??0?$Array@UIndexPair@cloth@nv@@VNonTrackingAllocator@23@@shdfnd@physx@@QEAA@AEBVNonTrackingAllocator@cloth@nv@@@Z 000000018009a670 f i SwCloth.obj
 0001:000996c0       ??0?$Array@VPxVec3@physx@@VNonTrackingAllocator@cloth@nv@@@shdfnd@physx@@QEAA@AEBV012@AEBVNonTrackingAllocator@cloth@nv@@@Z 000000018009a6c0 f i SwCloth.obj
 0001:00099720       ??0?$Array@VPxVec3@physx@@VNonTrackingAllocator@cloth@nv@@@shdfnd@physx@@QEAA@AEBVNonTrackingAllocator@cloth@nv@@@Z 000000018009a720 f i SwCloth.obj
 0001:00099770       ??0?$ClothImpl@VSwCloth@cloth@nv@@@cloth@nv@@QEAA@XZ 000000018009a770 f i SwCloth.obj
 0001:00099920       ??0SwConstraints@cloth@nv@@QEAA@XZ 000000018009a920 f i SwCloth.obj
 0001:000999a0       ??1?$Array@UIndexPair@cloth@nv@@VNonTrackingAllocator@23@@shdfnd@physx@@QEAA@XZ 000000018009a9a0 f i SwCloth.obj
 0001:00099a40       ??1?$ClothImpl@VSwCloth@cloth@nv@@@cloth@nv@@UEAA@XZ 000000018009aa40 f i SwCloth.obj
 0001:00099aa0       ??1SwConstraints@cloth@nv@@QEAA@XZ 000000018009aaa0 f i SwCloth.obj
 0001:00099b00       ??4?$Array@VPxVec4@physx@@VNonTrackingAllocator@cloth@nv@@@shdfnd@physx@@QEAAAEAV012@AEBV012@@Z 000000018009ab00 f i SwCloth.obj
 0001:00099b50       ??A?$Array@UIndexPair@cloth@nv@@VNonTrackingAllocator@23@@shdfnd@physx@@QEAAAEAUIndexPair@cloth@nv@@I@Z 000000018009ab50 f i SwCloth.obj
 0001:00099c10       ??A?$Array@VPxVec3@physx@@VNonTrackingAllocator@cloth@nv@@@shdfnd@physx@@QEAAAEAVPxVec3@2@I@Z 000000018009ac10 f i SwCloth.obj
 0001:00099cd0       ??A?$Array@VPxVec4@physx@@VNonTrackingAllocator@cloth@nv@@@shdfnd@physx@@QEAAAEAVPxVec4@2@I@Z 000000018009acd0 f i SwCloth.obj
 0001:00099d90       ??_E?$ClothImpl@VSwCloth@cloth@nv@@@cloth@nv@@UEAAPEAXI@Z 000000018009ad90 f i SwCloth.obj
 0001:00099d90       ??_G?$ClothImpl@VSwCloth@cloth@nv@@@cloth@nv@@UEAAPEAXI@Z 000000018009ad90 f i SwCloth.obj
 0001:00099e20       ??_ESwCloth@cloth@nv@@UEAAPEAXI@Z 000000018009ae20 f i SwCloth.obj
 0001:00099e20       ??_GSwCloth@cloth@nv@@UEAAPEAXI@Z 000000018009ae20 f i SwCloth.obj
 0001:00099eb0       ?allocate@?$Array@UIndexPair@cloth@nv@@VNonTrackingAllocator@23@@shdfnd@physx@@IEAAPEAUIndexPair@cloth@nv@@I@Z 000000018009aeb0 f i SwCloth.obj
 0001:00099f80       ?assign@?$Array@VPxVec3@physx@@VNonTrackingAllocator@cloth@nv@@@shdfnd@physx@@QEAAXPEBVPxVec3@3@0@Z 000000018009af80 f i SwCloth.obj
 0001:0009a030       ?assign@?$Array@VPxVec4@physx@@VNonTrackingAllocator@cloth@nv@@@shdfnd@physx@@QEAAXPEBVPxVec4@3@0@Z 000000018009b030 f i SwCloth.obj
 0001:0009a0d0       ?begin@?$Array@UIndexPair@cloth@nv@@VNonTrackingAllocator@23@@shdfnd@physx@@QEAAPEAUIndexPair@cloth@nv@@XZ 000000018009b0d0 f i SwCloth.obj
 0001:0009a0f0       ?begin@?$Array@UIndexPair@cloth@nv@@VNonTrackingAllocator@23@@shdfnd@physx@@QEBAPEBUIndexPair@cloth@nv@@XZ 000000018009b0f0 f i SwCloth.obj
 0001:0009a110       ?begin@?$Array@VPxVec3@physx@@VNonTrackingAllocator@cloth@nv@@@shdfnd@physx@@QEAAPEAVPxVec3@3@XZ 000000018009b110 f i SwCloth.obj
 0001:0009a130       ?begin@?$Array@VPxVec3@physx@@VNonTrackingAllocator@cloth@nv@@@shdfnd@physx@@QEBAPEBVPxVec3@3@XZ 000000018009b130 f i SwCloth.obj
 0001:0009a150       ?capacity@?$Array@UIndexPair@cloth@nv@@VNonTrackingAllocator@23@@shdfnd@physx@@QEBAIXZ 000000018009b150 f i SwCloth.obj
 0001:0009a170       ?capacityIncrement@?$Array@VPxVec3@physx@@VNonTrackingAllocator@cloth@nv@@@shdfnd@physx@@IEBAIXZ 000000018009b170 f i SwCloth.obj
 0001:0009a1e0       ?clear@?$Array@VPxVec4@physx@@VNonTrackingAllocator@cloth@nv@@@shdfnd@physx@@QEAAXXZ 000000018009b1e0 f i SwCloth.obj
 0001:0009a250       ?clearInertia@?$ClothImpl@VSwCloth@cloth@nv@@@cloth@nv@@UEAAXXZ 000000018009b250 f i SwCloth.obj
 0001:0009a310       ?clearInterpolation@?$ClothImpl@VSwCloth@cloth@nv@@@cloth@nv@@UEAAXXZ 000000018009b310 f i SwCloth.obj
 0001:0009a470       ?clearMotionConstraints@?$ClothImpl@VSwCloth@cloth@nv@@@cloth@nv@@UEAAXXZ 000000018009b470 f i SwCloth.obj
 0001:0009a4e0       ?clearSeparationConstraints@?$ClothImpl@VSwCloth@cloth@nv@@@cloth@nv@@UEAAXXZ 000000018009b4e0 f i SwCloth.obj
 0001:0009a550       ?copy@?$Array@UIndexPair@cloth@nv@@VNonTrackingAllocator@23@@shdfnd@physx@@KAXPEAUIndexPair@cloth@nv@@0PEBU456@@Z 000000018009b550 f i SwCloth.obj
 0001:0009a630       ?create@?$Array@UIndexPair@cloth@nv@@VNonTrackingAllocator@23@@shdfnd@physx@@KAXPEAUIndexPair@cloth@nv@@0AEBU456@@Z 000000018009b630 f i SwCloth.obj
 0001:0009a6e0       ?create@?$Array@UPhaseConfig@cloth@nv@@VNonTrackingAllocator@23@@shdfnd@physx@@KAXPEAUPhaseConfig@cloth@nv@@0AEBU456@@Z 000000018009b6e0 f i SwCloth.obj
 0001:0009a7a0       ?deallocate@?$Array@UIndexPair@cloth@nv@@VNonTrackingAllocator@23@@shdfnd@physx@@IEAAXPEAX@Z 000000018009b7a0 f i SwCloth.obj
 0001:0009a7f0       ?destroy@?$Array@UIndexPair@cloth@nv@@VNonTrackingAllocator@23@@shdfnd@physx@@KAXPEAUIndexPair@cloth@nv@@0@Z 000000018009b7f0 f i SwCloth.obj
 0001:0009a830       ?empty@?$Array@UIndexPair@cloth@nv@@VNonTrackingAllocator@23@@shdfnd@physx@@QEBA_NXZ 000000018009b830 f i SwCloth.obj
 0001:0009a890       ?enableContinuousCollision@?$ClothImpl@VSwCloth@cloth@nv@@@cloth@nv@@UEAAX_N@Z 000000018009b890 f i SwCloth.obj
 0001:0009a940       ?end@?$Array@UIndexPair@cloth@nv@@VNonTrackingAllocator@23@@shdfnd@physx@@QEAAPEAUIndexPair@cloth@nv@@XZ 000000018009b940 f i SwCloth.obj
 0001:0009a970       ?end@?$Array@VPxVec3@physx@@VNonTrackingAllocator@cloth@nv@@@shdfnd@physx@@QEAAPEAVPxVec3@3@XZ 000000018009b970 f i SwCloth.obj
 0001:0009a9a0       ?getAccelerationFilterWidth@?$ClothImpl@VSwCloth@cloth@nv@@@cloth@nv@@UEBAIXZ 000000018009b9a0 f i SwCloth.obj
 0001:0009a9f0       ?getAngularDrag@?$ClothImpl@VSwCloth@cloth@nv@@@cloth@nv@@UEBA?AVPxVec3@physx@@XZ 000000018009b9f0 f i SwCloth.obj
 0001:0009aa80       ?getAngularInertia@?$ClothImpl@VSwCloth@cloth@nv@@@cloth@nv@@UEBA?AVPxVec3@physx@@XZ 000000018009ba80 f i SwCloth.obj
 0001:0009aae0       ?getBoundingBoxCenter@?$ClothImpl@VSwCloth@cloth@nv@@@cloth@nv@@UEBAAEBVPxVec3@physx@@XZ 000000018009bae0 f i SwCloth.obj
 0001:0009ab20       ?getBoundingBoxScale@?$ClothImpl@VSwCloth@cloth@nv@@@cloth@nv@@UEBAAEBVPxVec3@physx@@XZ 000000018009bb20 f i SwCloth.obj
 0001:0009ab60       ?getCentrifugalInertia@?$ClothImpl@VSwCloth@cloth@nv@@@cloth@nv@@UEBA?AVPxVec3@physx@@XZ 000000018009bb60 f i SwCloth.obj
 0001:0009abc0       ?getChildCloth@?$ClothImpl@VSwCloth@cloth@nv@@@cloth@nv@@QEAAPEAVSwCloth@23@XZ 000000018009bbc0 f i SwCloth.obj
 0001:0009abd0       ?getChildCloth@?$ClothImpl@VSwCloth@cloth@nv@@@cloth@nv@@QEBAPEBVSwCloth@23@XZ 000000018009bbd0 f i SwCloth.obj
 0001:0009abe0       ?getCollisionMassScale@?$ClothImpl@VSwCloth@cloth@nv@@@cloth@nv@@UEBAMXZ 000000018009bbe0 f i SwCloth.obj
 0001:0009ac30       ?getDamping@?$ClothImpl@VSwCloth@cloth@nv@@@cloth@nv@@UEBA?AVPxVec3@physx@@XZ 000000018009bc30 f i SwCloth.obj
 0001:0009acc0       ?getDragCoefficient@?$ClothImpl@VSwCloth@cloth@nv@@@cloth@nv@@UEBAMXZ 000000018009bcc0 f i SwCloth.obj
 0001:0009ad20       ?getFabric@?$ClothImpl@VSwCloth@cloth@nv@@@cloth@nv@@UEBAAEAVFabric@23@XZ 000000018009bd20 f i SwCloth.obj
 0001:0009ad70       ?getFactory@?$ClothImpl@VSwCloth@cloth@nv@@@cloth@nv@@UEBAAEAVFactory@23@XZ 000000018009bd70 f i SwCloth.obj
 0001:0009adc0       ?getFluidDensity@?$ClothImpl@VSwCloth@cloth@nv@@@cloth@nv@@UEBAMXZ 000000018009bdc0 f i SwCloth.obj
 0001:0009ae00       ?getFriction@?$ClothImpl@VSwCloth@cloth@nv@@@cloth@nv@@UEBAMXZ 000000018009be00 f i SwCloth.obj
 0001:0009ae50       ?getGravity@?$ClothImpl@VSwCloth@cloth@nv@@@cloth@nv@@UEBA?AVPxVec3@physx@@XZ 000000018009be50 f i SwCloth.obj
 0001:0009aeb0       ?getLiftCoefficient@?$ClothImpl@VSwCloth@cloth@nv@@@cloth@nv@@UEBAMXZ 000000018009beb0 f i SwCloth.obj
 0001:0009af10       ?getLinearDrag@?$ClothImpl@VSwCloth@cloth@nv@@@cloth@nv@@UEBA?AVPxVec3@physx@@XZ 000000018009bf10 f i SwCloth.obj
 0001:0009afa0       ?getLinearInertia@?$ClothImpl@VSwCloth@cloth@nv@@@cloth@nv@@UEBA?AVPxVec3@physx@@XZ 000000018009bfa0 f i SwCloth.obj
 0001:0009b000       ?getMotionConstraintBias@?$ClothImpl@VSwCloth@cloth@nv@@@cloth@nv@@UEBAMXZ 000000018009c000 f i SwCloth.obj
 0001:0009b050       ?getMotionConstraintScale@?$ClothImpl@VSwCloth@cloth@nv@@@cloth@nv@@UEBAMXZ 000000018009c050 f i SwCloth.obj
 0001:0009b0a0       ?getMotionConstraintStiffness@?$ClothImpl@VSwCloth@cloth@nv@@@cloth@nv@@UEBAMXZ 000000018009c0a0 f i SwCloth.obj
 0001:0009b100       ?getMotionConstraints@?$ClothImpl@VSwCloth@cloth@nv@@@cloth@nv@@UEAA?AU?$Range@VPxVec4@physx@@@23@XZ 000000018009c100 f i SwCloth.obj
 0001:0009b1a0       ?getNumCapsules@?$ClothImpl@VSwCloth@cloth@nv@@@cloth@nv@@UEBAIXZ 000000018009c1a0 f i SwCloth.obj
 0001:0009b1f0       ?getNumConvexes@?$ClothImpl@VSwCloth@cloth@nv@@@cloth@nv@@UEBAIXZ 000000018009c1f0 f i SwCloth.obj
 0001:0009b240       ?getNumMotionConstraints@?$ClothImpl@VSwCloth@cloth@nv@@@cloth@nv@@UEBAIXZ 000000018009c240 f i SwCloth.obj
 0001:0009b290       ?getNumParticleAccelerations@?$ClothImpl@VSwCloth@cloth@nv@@@cloth@nv@@UEBAIXZ 000000018009c290 f i SwCloth.obj
 0001:0009b2e0       ?getNumPlanes@?$ClothImpl@VSwCloth@cloth@nv@@@cloth@nv@@UEBAIXZ 000000018009c2e0 f i SwCloth.obj
 0001:0009b330       ?getNumRestPositions@?$ClothImpl@VSwCloth@cloth@nv@@@cloth@nv@@UEBAIXZ 000000018009c330 f i SwCloth.obj
 0001:0009b380       ?getNumSelfCollisionIndices@?$ClothImpl@VSwCloth@cloth@nv@@@cloth@nv@@UEBAIXZ 000000018009c380 f i SwCloth.obj
 0001:0009b3d0       ?getNumSeparationConstraints@?$ClothImpl@VSwCloth@cloth@nv@@@cloth@nv@@UEBAIXZ 000000018009c3d0 f i SwCloth.obj
 0001:0009b420       ?getNumSpheres@?$ClothImpl@VSwCloth@cloth@nv@@@cloth@nv@@UEBAIXZ 000000018009c420 f i SwCloth.obj
 0001:0009b470       ?getNumTriangles@?$ClothImpl@VSwCloth@cloth@nv@@@cloth@nv@@UEBAIXZ 000000018009c470 f i SwCloth.obj
 0001:0009b4d0       ?getNumVirtualParticleWeights@?$ClothImpl@VSwCloth@cloth@nv@@@cloth@nv@@UEBAIXZ 000000018009c4d0 f i SwCloth.obj
 0001:0009b520       ?getPreviousIterationDt@?$ClothImpl@VSwCloth@cloth@nv@@@cloth@nv@@UEBAMXZ 000000018009c520 f i SwCloth.obj
 0001:0009b560       ?getRotation@?$ClothImpl@VSwCloth@cloth@nv@@@cloth@nv@@UEBAAEBVPxQuat@physx@@XZ 000000018009c560 f i SwCloth.obj
 0001:0009b580       ?getSelfCollisionDistance@?$ClothImpl@VSwCloth@cloth@nv@@@cloth@nv@@UEBAMXZ 000000018009c580 f i SwCloth.obj
 0001:0009b5d0       ?getSelfCollisionStiffness@?$ClothImpl@VSwCloth@cloth@nv@@@cloth@nv@@UEBAMXZ 000000018009c5d0 f i SwCloth.obj
 0001:0009b630       ?getSeparationConstraints@?$ClothImpl@VSwCloth@cloth@nv@@@cloth@nv@@UEAA?AU?$Range@VPxVec4@physx@@@23@XZ 000000018009c630 f i SwCloth.obj
 0001:0009b6d0       ?getSleepAfterCount@?$ClothImpl@VSwCloth@cloth@nv@@@cloth@nv@@UEBAIXZ 000000018009c6d0 f i SwCloth.obj
 0001:0009b6f0       ?getSleepPassCount@?$ClothImpl@VSwCloth@cloth@nv@@@cloth@nv@@UEBAIXZ 000000018009c6f0 f i SwCloth.obj
 0001:0009b710       ?getSleepTestInterval@?$ClothImpl@VSwCloth@cloth@nv@@@cloth@nv@@UEBAIXZ 000000018009c710 f i SwCloth.obj
 0001:0009b730       ?getSleepThreshold@?$ClothImpl@VSwCloth@cloth@nv@@@cloth@nv@@UEBAMXZ 000000018009c730 f i SwCloth.obj
 0001:0009b770       ?getSolverFrequency@?$ClothImpl@VSwCloth@cloth@nv@@@cloth@nv@@UEBAMXZ 000000018009c770 f i SwCloth.obj
 0001:0009b7b0       ?getStiffnessFrequency@?$ClothImpl@VSwCloth@cloth@nv@@@cloth@nv@@UEBAMXZ 000000018009c7b0 f i SwCloth.obj
 0001:0009b7f0       ?getTetherConstraintScale@?$ClothImpl@VSwCloth@cloth@nv@@@cloth@nv@@UEBAMXZ 000000018009c7f0 f i SwCloth.obj
 0001:0009b840       ?getTetherConstraintStiffness@?$ClothImpl@VSwCloth@cloth@nv@@@cloth@nv@@UEBAMXZ 000000018009c840 f i SwCloth.obj
 0001:0009b8a0       ?getTranslation@?$ClothImpl@VSwCloth@cloth@nv@@@cloth@nv@@UEBAAEBVPxVec3@physx@@XZ 000000018009c8a0 f i SwCloth.obj
 0001:0009b8c0       ?getUserData@?$ClothImpl@VSwCloth@cloth@nv@@@cloth@nv@@UEBAPEAXXZ 000000018009c8c0 f i SwCloth.obj
 0001:0009b910       ?getWindVelocity@?$ClothImpl@VSwCloth@cloth@nv@@@cloth@nv@@UEBA?AVPxVec3@physx@@XZ 000000018009c910 f i SwCloth.obj
 0001:0009b970       ?grow@?$Array@UIndexPair@cloth@nv@@VNonTrackingAllocator@23@@shdfnd@physx@@IEAAXI@Z 000000018009c970 f i SwCloth.obj
 0001:0009ba30       ?growAndPushBack@?$Array@VPxVec3@physx@@VNonTrackingAllocator@cloth@nv@@@shdfnd@physx@@IEAAAEAVPxVec3@3@AEBV43@@Z 000000018009ca30 f i SwCloth.obj
 0001:0009bc60       ?ignoreVelocityDiscontinuity@?$ClothImpl@VSwCloth@cloth@nv@@@cloth@nv@@UEAAXXZ 000000018009cc60 f i SwCloth.obj
 0001:0009bc80       ?isAsleep@?$ClothImpl@VSwCloth@cloth@nv@@@cloth@nv@@UEBA_NXZ 000000018009cc80 f i SwCloth.obj
 0001:0009bcd0       ?isContinuousCollisionEnabled@?$ClothImpl@VSwCloth@cloth@nv@@@cloth@nv@@UEBA_NXZ 000000018009ccd0 f i SwCloth.obj
 0001:0009bd20       ?isInUserMemory@?$Array@UIndexPair@cloth@nv@@VNonTrackingAllocator@23@@shdfnd@physx@@QEBAIXZ 000000018009cd20 f i SwCloth.obj
 0001:0009bd40       ?isSleeping@?$ClothImpl@VSwCloth@cloth@nv@@@cloth@nv@@UEBA_NXZ 000000018009cd40 f i SwCloth.obj
 0001:0009bdb0       ?notifyChanged@SwCloth@cloth@nv@@QEAAXXZ 000000018009cdb0 f i SwCloth.obj
 0001:0009bdc0       ?pop@SwConstraints@cloth@nv@@QEAAXXZ 000000018009cdc0 f i SwCloth.obj
 0001:0009be50       ?pushBack@?$Array@VPxVec3@physx@@VNonTrackingAllocator@cloth@nv@@@shdfnd@physx@@QEAAAEAVPxVec3@3@AEBV43@@Z 000000018009ce50 f i SwCloth.obj
 0001:0009bf50       ?putToSleep@?$ClothImpl@VSwCloth@cloth@nv@@@cloth@nv@@UEAAXXZ 000000018009cf50 f i SwCloth.obj
 0001:0009bf80       ?recreate@?$Array@UIndexPair@cloth@nv@@VNonTrackingAllocator@23@@shdfnd@physx@@IEAAXI@Z 000000018009cf80 f i SwCloth.obj
 0001:0009c0f0       ?replaceWithLast@?$Array@IVNonTrackingAllocator@cloth@nv@@@shdfnd@physx@@QEAAXI@Z 000000018009d0f0 f i SwCloth.obj
 0001:0009c1e0       ?replaceWithLast@?$Array@IVNonTrackingAllocator@cloth@nv@@@shdfnd@physx@@QEAAXPEAI@Z 000000018009d1e0 f i SwCloth.obj
 0001:0009c240       ?replaceWithLast@?$Array@UIndexPair@cloth@nv@@VNonTrackingAllocator@23@@shdfnd@physx@@QEAAXI@Z 000000018009d240 f i SwCloth.obj
 0001:0009c330       ?replaceWithLast@?$Array@UIndexPair@cloth@nv@@VNonTrackingAllocator@23@@shdfnd@physx@@QEAAXPEAUIndexPair@cloth@nv@@@Z 000000018009d330 f i SwCloth.obj
 0001:0009c390       ?reserve@?$Array@UIndexPair@cloth@nv@@VNonTrackingAllocator@23@@shdfnd@physx@@QEAAXI@Z 000000018009d390 f i SwCloth.obj
 0001:0009c3f0       ?resize@?$Array@UIndexPair@cloth@nv@@VNonTrackingAllocator@23@@shdfnd@physx@@QEAAXIAEBUIndexPair@cloth@nv@@@Z 000000018009d3f0 f i SwCloth.obj
 0001:0009c4c0       ?resize@?$Array@UPhaseConfig@cloth@nv@@VNonTrackingAllocator@23@@shdfnd@physx@@QEAAXIAEBUPhaseConfig@cloth@nv@@@Z 000000018009d4c0 f i SwCloth.obj
 0001:0009c590       ?resizeUninitialized@?$Array@VPxVec3@physx@@VNonTrackingAllocator@cloth@nv@@@shdfnd@physx@@QEAAXI@Z 000000018009d590 f i SwCloth.obj
 0001:0009c5f0       ?setAcceleationFilterWidth@?$ClothImpl@VSwCloth@cloth@nv@@@cloth@nv@@UEAAXI@Z 000000018009d5f0 f i SwCloth.obj
 0001:0009c640       ?setAngularDrag@?$ClothImpl@VSwCloth@cloth@nv@@@cloth@nv@@UEAAXAEBVPxVec3@physx@@@Z 000000018009d640 f i SwCloth.obj
 0001:0009c720       ?setAngularInertia@?$ClothImpl@VSwCloth@cloth@nv@@@cloth@nv@@UEAAXAEBVPxVec3@physx@@@Z 000000018009d720 f i SwCloth.obj
 0001:0009c7e0       ?setCapsules@?$ClothImpl@VSwCloth@cloth@nv@@@cloth@nv@@UEAAXU?$Range@$$CBI@23@II@Z 000000018009d7e0 f i SwCloth.obj
 0001:0009cd60       ?setCentrifugalInertia@?$ClothImpl@VSwCloth@cloth@nv@@@cloth@nv@@UEAAXAEBVPxVec3@physx@@@Z 000000018009dd60 f i SwCloth.obj
 0001:0009ce20       ?setCollisionMassScale@?$ClothImpl@VSwCloth@cloth@nv@@@cloth@nv@@UEAAXM@Z 000000018009de20 f i SwCloth.obj
 0001:0009ced0       ?setConvexes@?$ClothImpl@VSwCloth@cloth@nv@@@cloth@nv@@UEAAXU?$Range@$$CBI@23@II@Z 000000018009ded0 f i SwCloth.obj
 0001:0009d3e0       ?setDamping@?$ClothImpl@VSwCloth@cloth@nv@@@cloth@nv@@UEAAXAEBVPxVec3@physx@@@Z 000000018009e3e0 f i SwCloth.obj
 0001:0009d4c0       ?setDragCoefficient@?$ClothImpl@VSwCloth@cloth@nv@@@cloth@nv@@UEAAXM@Z 000000018009e4c0 f i SwCloth.obj
 0001:0009d5e0       ?setFluidDensity@?$ClothImpl@VSwCloth@cloth@nv@@@cloth@nv@@UEAAXM@Z 000000018009e5e0 f i SwCloth.obj
 0001:0009d6f0       ?setFriction@?$ClothImpl@VSwCloth@cloth@nv@@@cloth@nv@@UEAAXM@Z 000000018009e6f0 f i SwCloth.obj
 0001:0009d760       ?setGravity@?$ClothImpl@VSwCloth@cloth@nv@@@cloth@nv@@UEAAXAEBVPxVec3@physx@@@Z 000000018009e760 f i SwCloth.obj
 0001:0009d820       ?setLiftCoefficient@?$ClothImpl@VSwCloth@cloth@nv@@@cloth@nv@@UEAAXM@Z 000000018009e820 f i SwCloth.obj
 0001:0009d940       ?setLinearDrag@?$ClothImpl@VSwCloth@cloth@nv@@@cloth@nv@@UEAAXAEBVPxVec3@physx@@@Z 000000018009e940 f i SwCloth.obj
 0001:0009da20       ?setLinearInertia@?$ClothImpl@VSwCloth@cloth@nv@@@cloth@nv@@UEAAXAEBVPxVec3@physx@@@Z 000000018009ea20 f i SwCloth.obj
 0001:0009dae0       ?setMotionConstraintScaleBias@?$ClothImpl@VSwCloth@cloth@nv@@@cloth@nv@@UEAAXMM@Z 000000018009eae0 f i SwCloth.obj
 0001:0009dbd0       ?setMotionConstraintStiffness@?$ClothImpl@VSwCloth@cloth@nv@@@cloth@nv@@UEAAXM@Z 000000018009ebd0 f i SwCloth.obj
 0001:0009dca0       ?setPlanes@?$ClothImpl@VSwCloth@cloth@nv@@@cloth@nv@@UEAAXU?$Range@$$CBVPxVec4@physx@@@23@II@Z 000000018009eca0 f i SwCloth.obj
 0001:0009e8c0       ?setRestPositions@?$ClothImpl@VSwCloth@cloth@nv@@@cloth@nv@@UEAAXU?$Range@$$CBVPxVec4@physx@@@23@@Z 000000018009f8c0 f i SwCloth.obj
 0001:0009ea70       ?setRotation@?$ClothImpl@VSwCloth@cloth@nv@@@cloth@nv@@UEAAXAEBVPxQuat@physx@@@Z 000000018009fa70 f i SwCloth.obj
 0001:0009eb10       ?setSelfCollisionDistance@?$ClothImpl@VSwCloth@cloth@nv@@@cloth@nv@@UEAAXM@Z 000000018009fb10 f i SwCloth.obj
 0001:0009ebc0       ?setSelfCollisionStiffness@?$ClothImpl@VSwCloth@cloth@nv@@@cloth@nv@@UEAAXM@Z 000000018009fbc0 f i SwCloth.obj
 0001:0009ecf0       ?setSleepAfterCount@?$ClothImpl@VSwCloth@cloth@nv@@@cloth@nv@@UEAAXI@Z 000000018009fcf0 f i SwCloth.obj
 0001:0009ed80       ?setSleepTestInterval@?$ClothImpl@VSwCloth@cloth@nv@@@cloth@nv@@UEAAXI@Z 000000018009fd80 f i SwCloth.obj
 0001:0009ee10       ?setSleepThreshold@?$ClothImpl@VSwCloth@cloth@nv@@@cloth@nv@@UEAAXM@Z 000000018009fe10 f i SwCloth.obj
 0001:0009eeb0       ?setSolverFrequency@?$ClothImpl@VSwCloth@cloth@nv@@@cloth@nv@@UEAAXM@Z 000000018009feb0 f i SwCloth.obj
 0001:0009ef60       ?setSpheres@?$ClothImpl@VSwCloth@cloth@nv@@@cloth@nv@@UEAAXU?$Range@$$CBVPxVec4@physx@@@23@II@Z 000000018009ff60 f i SwCloth.obj
 0001:0009fa50       ?setStiffnessFrequency@?$ClothImpl@VSwCloth@cloth@nv@@@cloth@nv@@UEAAXM@Z 00000001800a0a50 f i SwCloth.obj
 0001:0009fad0       ?setTetherConstraintScale@?$ClothImpl@VSwCloth@cloth@nv@@@cloth@nv@@UEAAXM@Z 00000001800a0ad0 f i SwCloth.obj
 0001:0009fb80       ?setTetherConstraintStiffness@?$ClothImpl@VSwCloth@cloth@nv@@@cloth@nv@@UEAAXM@Z 00000001800a0b80 f i SwCloth.obj
 0001:0009fc50       ?setTranslation@?$ClothImpl@VSwCloth@cloth@nv@@@cloth@nv@@UEAAXAEBVPxVec3@physx@@@Z 00000001800a0c50 f i SwCloth.obj
 0001:0009fd10       ?setTriangles@?$ClothImpl@VSwCloth@cloth@nv@@@cloth@nv@@UEAAXU?$Range@$$CBVPxVec3@physx@@@23@0I@Z 00000001800a0d10 f i SwCloth.obj
 0001:000a0400       ?setTriangles@?$ClothImpl@VSwCloth@cloth@nv@@@cloth@nv@@UEAAXU?$Range@$$CBVPxVec3@physx@@@23@II@Z 00000001800a1400 f i SwCloth.obj
 0001:000a0cf0       ?setUserData@?$ClothImpl@VSwCloth@cloth@nv@@@cloth@nv@@UEAAXPEAX@Z 00000001800a1cf0 f i SwCloth.obj
 0001:000a0d40       ?setWindVelocity@?$ClothImpl@VSwCloth@cloth@nv@@@cloth@nv@@UEAAXVPxVec3@physx@@@Z 00000001800a1d40 f i SwCloth.obj
 0001:000a0df0       ?size@?$Array@UIndexPair@cloth@nv@@VNonTrackingAllocator@23@@shdfnd@physx@@QEBAIXZ 00000001800a1df0 f i SwCloth.obj
 0001:000a0e10       ?swap@?$Array@U?$Vec4T@G@cloth@nv@@VNonTrackingAllocator@23@@shdfnd@physx@@QEAAXAEAV123@@Z 00000001800a1e10 f i SwCloth.obj
 0001:000a0ea0       ?teleport@?$ClothImpl@VSwCloth@cloth@nv@@@cloth@nv@@UEAAXAEBVPxVec3@physx@@@Z 00000001800a1ea0 f i SwCloth.obj
 0001:000a0f10       ?teleportToLocation@?$ClothImpl@VSwCloth@cloth@nv@@@cloth@nv@@UEAAXAEBVPxVec3@physx@@AEBVPxQuat@5@@Z 00000001800a1f10 f i SwCloth.obj
 0001:000a0fc0       ?wakeUp@?$ClothImpl@VSwCloth@cloth@nv@@@cloth@nv@@UEAAXXZ 00000001800a1fc0 f i SwCloth.obj
 0001:000a0fe0       ??0SwClothData@cloth@nv@@QEAA@AEAVSwCloth@12@AEBVSwFabric@12@@Z 00000001800a1fe0 f   SwClothData.obj
 0001:000a1e60       ?reconcile@SwClothData@cloth@nv@@QEBAXAEAVSwCloth@23@@Z 00000001800a2e60 f   SwClothData.obj
 0001:000a1ee0       ?verify@SwClothData@cloth@nv@@QEBAXXZ 00000001800a2ee0 f   SwClothData.obj
 0001:000a2480       ?begin@?$Array@GVNonTrackingAllocator@cloth@nv@@@shdfnd@physx@@QEBAPEBGXZ 00000001800a3480 f i SwClothData.obj
 0001:000a24a0       ?begin@?$Array@USwTether@cloth@nv@@VNonTrackingAllocator@23@@shdfnd@physx@@QEBAPEBUSwTether@cloth@nv@@XZ 00000001800a34a0 f i SwClothData.obj
 0001:000a24c0       ?empty@?$Array@MV?$AlignedAllocator@$0CA@VNonTrackingAllocator@cloth@nv@@@shdfnd@physx@@@shdfnd@physx@@QEBA_NXZ 00000001800a34c0 f i SwClothData.obj
 0001:000a2520       ?front@?$Array@GVNonTrackingAllocator@cloth@nv@@@shdfnd@physx@@QEBAAEBGXZ 00000001800a3520 f i SwClothData.obj
 0001:000a25d0       ?front@?$Array@IVNonTrackingAllocator@cloth@nv@@@shdfnd@physx@@QEAAAEAIXZ 00000001800a35d0 f i SwClothData.obj
 0001:000a2680       ?front@?$Array@MV?$AlignedAllocator@$0CA@VNonTrackingAllocator@cloth@nv@@@shdfnd@physx@@@shdfnd@physx@@QEBAAEBMXZ 00000001800a3680 f i SwClothData.obj
 0001:000a2730       ?front@?$Array@UIndexPair@cloth@nv@@VNonTrackingAllocator@23@@shdfnd@physx@@QEAAAEAUIndexPair@cloth@nv@@XZ 00000001800a3730 f i SwClothData.obj
 0001:000a27e0       ?front@?$Array@UPhaseConfig@cloth@nv@@VNonTrackingAllocator@23@@shdfnd@physx@@QEAAAEAUPhaseConfig@cloth@nv@@XZ 00000001800a37e0 f i SwClothData.obj
 0001:000a2890       ?size@?$Array@GVNonTrackingAllocator@cloth@nv@@@shdfnd@physx@@QEBAIXZ 00000001800a3890 f i SwClothData.obj
 0001:000a28b0       ?size@?$Array@MV?$AlignedAllocator@$0CA@VNonTrackingAllocator@cloth@nv@@@shdfnd@physx@@@shdfnd@physx@@QEBAIXZ 00000001800a38b0 f i SwClothData.obj
 0001:000a28d0       ?size@?$Array@USwTether@cloth@nv@@VNonTrackingAllocator@23@@shdfnd@physx@@QEBAIXZ 00000001800a38d0 f i SwClothData.obj
 0001:000a2df0       ??$?IT__m128@@@cloth@nv@@YA?AT__m128@@AEBT2@AEBU?$ComplementExpr@T__m128@@@01@@Z 00000001800a3df0 f i SwCollision.obj
 0001:000a2e50       ??$?IT__m128i@@@cloth@nv@@YA?AT__m128i@@AEBT2@AEBU?$ComplementExpr@T__m128i@@@01@@Z 00000001800a3e50 f i SwCollision.obj
 0001:000a2eb0       ??$PX_UNUSED@PEBD@@YAXAEBQEBD@Z 00000001800a3eb0 f i SwCollision.obj
 0001:000a3850       ??$emptyBounds@T__m128@@@cloth@nv@@YA?AU?$BoundingBox@T__m128@@@01@XZ 00000001800a4850 f i SwCollision.obj
 0001:000a3910       ??$expandBounds@T__m128@@@cloth@nv@@YA?AU?$BoundingBox@T__m128@@@01@AEBU201@0@Z 00000001800a4910 f i SwCollision.obj
 0001:000a3a10       ??$expandBounds@T__m128@@@cloth@nv@@YA?AU?$BoundingBox@T__m128@@@01@AEBU201@PEBUSphereData@01@1@Z 00000001800a4a10 f i SwCollision.obj
 0001:000a4e70       ??$intersectBounds@T__m128@@@cloth@nv@@YA?AU?$BoundingBox@T__m128@@@01@AEBU201@0@Z 00000001800a5e70 f i SwCollision.obj
 0001:000a4f70       ??$loadBounds@T__m128@@@cloth@nv@@YA?AU?$BoundingBox@T__m128@@@01@PEBM@Z 00000001800a5f70 f i SwCollision.obj
 0001:000a5070       ??$recip@$00@cloth@nv@@YA?AT__m128@@AEBT2@@Z 00000001800a6070 f i SwCollision.obj
 0001:000a51e0       ??$splat@$00@cloth@nv@@YA?AT__m128i@@AEBT2@@Z 00000001800a61e0 f i SwCollision.obj
 0001:000a5230       ??$splat@$01@cloth@nv@@YA?AT__m128i@@AEBT2@@Z 00000001800a6230 f i SwCollision.obj
 0001:000a5280       ??$splat@$02@cloth@nv@@YA?AT__m128@@AEBT2@@Z 00000001800a6280 f i SwCollision.obj
 0001:000a52d0       ??$splat@$02@cloth@nv@@YA?AT__m128i@@AEBT2@@Z 00000001800a62d0 f i SwCollision.obj
 0001:000a5320       ??$splat@$0A@@cloth@nv@@YA?AT__m128i@@AEBT2@@Z 00000001800a6320 f i SwCollision.obj
 0001:000a53e0       ??$swap@UCollisionData@?$SwCollision@T__m128@@@cloth@nv@@@shdfnd@physx@@YAXAEAUCollisionData@?$SwCollision@T__m128@@@cloth@nv@@0@Z 00000001800a63e0 f i SwCollision.obj
 0001:000a5470       ??0?$ComplementExpr@T__m128@@@cloth@nv@@QEAA@AEBT__m128@@@Z 00000001800a6470 f i SwCollision.obj
 0001:000a54a0       ??0?$ComplementExpr@T__m128i@@@cloth@nv@@QEAA@AEBT__m128i@@@Z 00000001800a64a0 f i SwCollision.obj
 0001:000a54d0       ??0?$Gather@T__m128i@@@cloth@nv@@QEAA@AEBT__m128i@@@Z 00000001800a64d0 f i SwCollision.obj
 0001:000a5660       ??0?$LerpIterator@T__m128@@PEBT1@@cloth@nv@@QEAA@PEBT__m128@@0M@Z 00000001800a6660 f i SwCollision.obj
 0001:000a5700       ??0?$LerpIterator@T__m128@@V?$UnalignedIterator@T__m128@@$02@cloth@nv@@@cloth@nv@@QEAA@V?$UnalignedIterator@T__m128@@$02@12@0M@Z 00000001800a6700 f i SwCollision.obj
 0001:000a57a0       ??0?$SwCollision@T__m128@@@cloth@nv@@QEAA@AEAUSwClothData@12@AEAV?$StackAllocator@$0BA@@12@@Z 00000001800a67a0 f i SwCollision.obj
 0001:000a5940       ??0?$UnalignedIterator@T__m128@@$02@cloth@nv@@QEAA@PEBM@Z 00000001800a6940 f i SwCollision.obj
 0001:000a5970       ??0CollisionData@?$SwCollision@T__m128@@@cloth@nv@@QEAA@XZ 00000001800a6970 f i SwCollision.obj
 0001:000a59a0       ??0ImpulseAccumulator@?$SwCollision@T__m128@@@cloth@nv@@QEAA@XZ 00000001800a69a0 f i SwCollision.obj
 0001:000a5a80       ??0NvClothProfileScoped@cloth@nv@@QEAA@PEBD_N_K0HPEAVPxProfilerCallback@physx@@@Z 00000001800a6a80 f i SwCollision.obj
 0001:000a5b90       ??0Simd4fAlignedLoadFactory@cloth@nv@@QEAA@PEBM@Z 00000001800a6b90 f i SwCollision.obj
 0001:000a5bc0       ??0Simd4fOffsetLoadFactory@cloth@nv@@QEAA@PEBMI@Z 00000001800a6bc0 f i SwCollision.obj
 0001:000a5c00       ??0Simd4iOffsetLoadFactory@cloth@nv@@QEAA@PEBHI@Z 00000001800a6c00 f i SwCollision.obj
 0001:000a5c40       ??1?$SwCollision@T__m128@@@cloth@nv@@QEAA@XZ 00000001800a6c40 f i SwCollision.obj
 0001:000a5cb0       ??1NvClothProfileScoped@cloth@nv@@QEAA@XZ 00000001800a6cb0 f i SwCollision.obj
 0001:000a5d40       ??4ShapeMask@?$SwCollision@T__m128@@@cloth@nv@@QEAAAEAU0123@AEBU0123@@Z 00000001800a6d40 f i SwCollision.obj
 0001:000a5d90       ??6cloth@nv@@YA?AT__m128i@@AEBT2@H@Z 00000001800a6d90 f i SwCollision.obj
 0001:000a5df0       ??8cloth@nv@@YA?AT__m128@@AEBT2@0@Z 00000001800a6df0 f i SwCollision.obj
 0001:000a5e50       ??8cloth@nv@@YA?AT__m128i@@AEBT2@0@Z 00000001800a6e50 f i SwCollision.obj
 0001:000a5eb0       ??A?$LerpIterator@T__m128@@PEBT1@@cloth@nv@@QEBA?AT__m128@@_K@Z 00000001800a6eb0 f i SwCollision.obj
 0001:000a5f80       ??A?$LerpIterator@T__m128@@V?$UnalignedIterator@T__m128@@$02@cloth@nv@@@cloth@nv@@QEBA?AT__m128@@_K@Z 00000001800a6f80 f i SwCollision.obj
 0001:000a60c0       ??A?$UnalignedIterator@T__m128@@$02@cloth@nv@@QEBA?AT__m128@@_K@Z 00000001800a70c0 f i SwCollision.obj
 0001:000a6140       ??BSimd4fAlignedLoadFactory@cloth@nv@@QEBA?AT__m128@@XZ 00000001800a7140 f i SwCollision.obj
 0001:000a61a0       ??BSimd4fOffsetLoadFactory@cloth@nv@@QEBA?AT__m128@@XZ 00000001800a71a0 f i SwCollision.obj
 0001:000a6210       ??BSimd4iOffsetLoadFactory@cloth@nv@@QEBA?AT__m128i@@XZ 00000001800a7210 f i SwCollision.obj
 0001:000a6280       ??BSimd4iScalarFactory@cloth@nv@@QEBA?AT__m128i@@XZ 00000001800a7280 f i SwCollision.obj
 0001:000a62f0       ??BSimd4iZeroFactory@cloth@nv@@QEBA?AT__m128i@@XZ 00000001800a72f0 f i SwCollision.obj
 0001:000a6350       ??D?$LerpIterator@T__m128@@PEBT1@@cloth@nv@@QEBA?AT__m128@@XZ 00000001800a7350 f i SwCollision.obj
 0001:000a63a0       ??D?$LerpIterator@T__m128@@V?$UnalignedIterator@T__m128@@$02@cloth@nv@@@cloth@nv@@QEBA?AT__m128@@XZ 00000001800a73a0 f i SwCollision.obj
 0001:000a63f0       ??D?$UnalignedIterator@T__m128@@$02@cloth@nv@@QEBA?AT__m128@@XZ 00000001800a73f0 f i SwCollision.obj
 0001:000a6440       ??E?$LerpIterator@T__m128@@PEBT1@@cloth@nv@@QEAAAEAV012@XZ 00000001800a7440 f i SwCollision.obj
 0001:000a6490       ??E?$LerpIterator@T__m128@@V?$UnalignedIterator@T__m128@@$02@cloth@nv@@@cloth@nv@@QEAAAEAV012@XZ 00000001800a7490 f i SwCollision.obj
 0001:000a64f0       ??E?$UnalignedIterator@T__m128@@$02@cloth@nv@@QEAAAEAV012@XZ 00000001800a74f0 f i SwCollision.obj
 0001:000a6520       ??Gcloth@nv@@YA?AT__m128i@@AEBT2@0@Z 00000001800a7520 f i SwCollision.obj
 0001:000a6580       ??Icloth@nv@@YA?AT__m128i@@AEBT2@0@Z 00000001800a7580 f i SwCollision.obj
 0001:000a65e0       ??Mcloth@nv@@YA?AT__m128@@AEBT2@0@Z 00000001800a75e0 f i SwCollision.obj
 0001:000a6640       ??Ocloth@nv@@YA?AT__m128@@AEBT2@0@Z 00000001800a7640 f i SwCollision.obj
 0001:000a66a0       ??Ocloth@nv@@YA?AT__m128i@@AEBT2@0@Z 00000001800a76a0 f i SwCollision.obj
 0001:000a6700       ??Pcloth@nv@@YA?AT__m128@@AEBT2@0@Z 00000001800a7700 f i SwCollision.obj
 0001:000a6760       ??R?$Gather@T__m128i@@@cloth@nv@@QEBA?AT__m128i@@PEBT3@@Z 00000001800a7760 f i SwCollision.obj
 0001:000a6b40       ??R?$SwCollision@T__m128@@@cloth@nv@@QEAAXAEBU?$IterationState@T__m128@@@12@@Z 00000001800a7b40 f i SwCollision.obj
 0001:000a6eb0       ??Scloth@nv@@YA?AU?$ComplementExpr@T__m128@@@01@AEBT__m128@@@Z 00000001800a7eb0 f i SwCollision.obj
 0001:000a6f00       ??Scloth@nv@@YA?AU?$ComplementExpr@T__m128i@@@01@AEBT__m128i@@@Z 00000001800a7f00 f i SwCollision.obj
 0001:000a6f50       ??Tcloth@nv@@YA?AT__m128i@@AEBT2@0@Z 00000001800a7f50 f i SwCollision.obj
 0001:000a6fb0       ??Ucloth@nv@@YA?AT__m128@@AEBT2@0@Z 00000001800a7fb0 f i SwCollision.obj
 0001:000a7010       ??Ucloth@nv@@YA?AT__m128i@@AEBT2@0@Z 00000001800a8010 f i SwCollision.obj
 0001:000a7070       ??_4ShapeMask@?$SwCollision@T__m128@@@cloth@nv@@QEAAAEAU0123@AEBU0123@@Z 00000001800a8070 f i SwCollision.obj
 0001:000a7120       ?abs@cloth@nv@@YA?AT__m128@@AEBT3@@Z 00000001800a8120 f i SwCollision.obj
 0001:000a7190       ?add@ImpulseAccumulator@?$SwCollision@T__m128@@@cloth@nv@@QEAAXAEBT__m128@@0000@Z 00000001800a8190 f i SwCollision.obj
 0001:000a7760       ?addVelocity@ImpulseAccumulator@?$SwCollision@T__m128@@@cloth@nv@@QEAAXAEBT__m128@@000@Z 00000001800a8760 f i SwCollision.obj
 0001:000a7b80       ?allEqual@cloth@nv@@YAHAEBT__m128@@0@Z 00000001800a8b80 f i SwCollision.obj
 0001:000a7be0       ?allEqual@cloth@nv@@YAHAEBT__m128i@@0@Z 00000001800a8be0 f i SwCollision.obj
 0001:000a7c40       ?allGreaterEqual@cloth@nv@@YAHAEBT__m128@@0@Z 00000001800a8c40 f i SwCollision.obj
 0001:000a7ca0       ?allTrue@cloth@nv@@YAHAEBT__m128@@@Z 00000001800a8ca0 f i SwCollision.obj
 0001:000a7d00       ?allTrue@cloth@nv@@YAHAEBT__m128i@@@Z 00000001800a8d00 f i SwCollision.obj
 0001:000a7d70       ?allocate@?$StackAllocator@$0BA@@cloth@nv@@QEAAPEAX_K@Z 00000001800a8d70 f i SwCollision.obj
 0001:000a7f30       ?allocate@?$SwCollision@T__m128@@@cloth@nv@@AEAAXAEAUCollisionData@123@@Z 00000001800a8f30 f i SwCollision.obj
 0001:000a7ff0       ?anyEqual@cloth@nv@@YAHAEBT__m128i@@0AEAT3@@Z 00000001800a8ff0 f i SwCollision.obj
 0001:000a8070       ?anyGreater@cloth@nv@@YAHAEBT__m128@@0AEAT3@@Z 00000001800a9070 f i SwCollision.obj
 0001:000a80e0       ?anyTrue@cloth@nv@@YAHAEBT__m128@@@Z 00000001800a90e0 f i SwCollision.obj
 0001:000a8100       ?anyTrue@cloth@nv@@YAHAEBT__m128i@@@Z 00000001800a9100 f i SwCollision.obj
 0001:000a8150       ?array@cloth@nv@@YAAEAY03HAEAT__m128i@@@Z 00000001800a9150 f i SwCollision.obj
 0001:000a8160       ?buildAcceleration@?$SwCollision@T__m128@@@cloth@nv@@AEAA_NXZ 00000001800a9160 f i SwCollision.obj
 0001:000a8bc0       ?buildConeAcceleration@?$SwCollision@T__m128@@@cloth@nv@@AEAAXXZ 00000001800a9bc0 f i SwCollision.obj
 0001:000a8d30       ?buildSphereAcceleration@?$SwCollision@T__m128@@@cloth@nv@@AEAAXPEBUSphereData@23@@Z 00000001800a9d30 f i SwCollision.obj
 0001:000a9280       ?collideCones@?$SwCollision@T__m128@@@cloth@nv@@AEBA?AT__m128i@@PEBT__m128@@AEAUImpulseAccumulator@123@@Z 00000001800aa280 f i SwCollision.obj
 0001:000aa740       ?collideCones@?$SwCollision@T__m128@@@cloth@nv@@AEBA?AT__m128i@@PEBT__m128@@PEAT5@AEAUImpulseAccumulator@123@@Z 00000001800ab740 f i SwCollision.obj
 0001:000ade70       ?collideContinuousParticles@?$SwCollision@T__m128@@@cloth@nv@@AEAAXXZ 00000001800aee70 f i SwCollision.obj
 0001:000aecd0       ?collideConvexes@?$SwCollision@T__m128@@@cloth@nv@@AEAAXAEBU?$IterationState@T__m128@@@23@@Z 00000001800afcd0 f i SwCollision.obj
 0001:000af9e0       ?collideConvexes@?$SwCollision@T__m128@@@cloth@nv@@AEAAXPEBT__m128@@PEAT4@AEAUImpulseAccumulator@123@@Z 00000001800b09e0 f i SwCollision.obj
 0001:000b02e0       ?collideParticles@?$SwCollision@T__m128@@@cloth@nv@@AEAAXXZ 00000001800b12e0 f i SwCollision.obj
 0001:000b1180       ?collideSpheres@?$SwCollision@T__m128@@@cloth@nv@@AEBAXAEBT__m128i@@PEBT__m128@@AEAUImpulseAccumulator@123@@Z 00000001800b2180 f i SwCollision.obj
 0001:000b1810       ?collideSpheres@?$SwCollision@T__m128@@@cloth@nv@@AEBAXAEBT__m128i@@PEBT__m128@@PEAT5@AEAUImpulseAccumulator@123@@Z 00000001800b2810 f i SwCollision.obj
 0001:000b2d20       ?collideTriangles@?$SwCollision@T__m128@@@cloth@nv@@AEAAXAEBU?$IterationState@T__m128@@@23@@Z 00000001800b3d20 f i SwCollision.obj
 0001:000b34e0       ?collideTriangles@?$SwCollision@T__m128@@@cloth@nv@@AEAAXPEBUTriangleData@23@PEAT__m128@@AEAUImpulseAccumulator@123@@Z 00000001800b44e0 f i SwCollision.obj
 0001:000b48b0       ?collideVirtualParticles@?$SwCollision@T__m128@@@cloth@nv@@AEAAXXZ 00000001800b58b0 f i SwCollision.obj
 0001:000b9200       ?computeBounds@?$SwCollision@T__m128@@@cloth@nv@@AEAAXXZ 00000001800ba200 f i SwCollision.obj
 0001:000b95f0       ?cross3@cloth@nv@@YA?AT__m128@@AEBT3@0@Z 00000001800ba5f0 f i SwCollision.obj
 0001:000b9760       ?deallocate@?$StackAllocator@$0BA@@cloth@nv@@QEAAXPEAX@Z 00000001800ba760 f i SwCollision.obj
 0001:000b9840       ?deallocate@?$SwCollision@T__m128@@@cloth@nv@@AEAAXAEBUCollisionData@123@@Z 00000001800ba840 f i SwCollision.obj
 0001:000b98c0       ?estimatePersistentMemory@?$SwCollision@T__m128@@@cloth@nv@@SA_KAEBVSwCloth@23@@Z 00000001800ba8c0 f i SwCollision.obj
 0001:000b9970       ?estimateTemporaryMemory@?$SwCollision@T__m128@@@cloth@nv@@SA_KAEBVSwCloth@23@@Z 00000001800ba970 f i SwCollision.obj
 0001:000b9a40       ?findBitSet@cloth@nv@@YAII@Z 00000001800baa40 f i SwCollision.obj
 0001:000b9aa0       ?getCurrentAlpha@?$IterationState@T__m128@@@cloth@nv@@QEBAMXZ 00000001800baaa0 f i SwCollision.obj
 0001:000b9af0       ?getHeader@?$StackAllocator@$0BA@@cloth@nv@@AEBAPEAUHeader@123@PEAX@Z 00000001800baaf0 f i SwCollision.obj
 0001:000b9c80       ?getPreviousAlpha@?$IterationState@T__m128@@@cloth@nv@@QEBAMXZ 00000001800bac80 f i SwCollision.obj
 0001:000b9cf0       ?getShapeMask@?$SwCollision@T__m128@@@cloth@nv@@AEBA?AUShapeMask@123@PEBT__m128@@0@Z 00000001800bacf0 f i SwCollision.obj
 0001:000ba600       ?getShapeMask@?$SwCollision@T__m128@@@cloth@nv@@AEBA?AUShapeMask@123@PEBT__m128@@@Z 00000001800bb600 f i SwCollision.obj
 0001:000ba9a0       ?getShapeMask@?$SwCollision@T__m128@@@cloth@nv@@CA?AUShapeMask@123@AEBT__m128@@PEBT__m128i@@1@Z 00000001800bb9a0 f i SwCollision.obj
 0001:000baac0       ?horizontalOr@cloth@nv@@YA?AT__m128i@@AEBT3@@Z 00000001800bbac0 f i SwCollision.obj
 0001:000babb0       ?intFloor@cloth@nv@@YA?AT__m128i@@AEBT__m128@@@Z 00000001800bbbb0 f i SwCollision.obj
 0001:000bac60       ?loadAligned@cloth@nv@@YA?AUSimd4fAlignedLoadFactory@12@PEBM@Z 00000001800bbc60 f i SwCollision.obj
 0001:000bacb0       ?loadAligned@cloth@nv@@YA?AUSimd4fOffsetLoadFactory@12@PEBMI@Z 00000001800bbcb0 f i SwCollision.obj
 0001:000bad10       ?loadAligned@cloth@nv@@YA?AUSimd4iOffsetLoadFactory@12@PEBHI@Z 00000001800bbd10 f i SwCollision.obj
 0001:000bad70       ?mergeAcceleration@?$SwCollision@T__m128@@@cloth@nv@@CAXPEAI@Z 00000001800bbd70 f i SwCollision.obj
 0001:000bae10       ?select@cloth@nv@@YA?AT__m128i@@AEBT3@00@Z 00000001800bbe10 f i SwCollision.obj
 0001:000baeb0       ?simd4f@cloth@nv@@YA?AT__m128@@AEBT__m128i@@@Z 00000001800bbeb0 f i SwCollision.obj
 0001:000baf00       ?simd4i@cloth@nv@@YA?AT__m128i@@AEBT__m128@@@Z 00000001800bbf00 f i SwCollision.obj
 0001:000baf50       ?sqrt@cloth@nv@@YA?AT__m128@@AEBT3@@Z 00000001800bbf50 f i SwCollision.obj
 0001:000bafa0       ?store@cloth@nv@@YAXPEAMAEBT__m128@@@Z 00000001800bbfa0 f i SwCollision.obj
 0001:000bafd0       ?storeAligned@cloth@nv@@YAXPEAMAEBT__m128@@@Z 00000001800bbfd0 f i SwCollision.obj
 0001:000bb000       ?storeAligned@cloth@nv@@YAXPEAMIAEBT__m128@@@Z 00000001800bc000 f i SwCollision.obj
 0001:000bb040       ?subtract@ImpulseAccumulator@?$SwCollision@T__m128@@@cloth@nv@@QEAAXAEBT__m128@@0000@Z 00000001800bc040 f i SwCollision.obj
 0001:000bb610       ?transpose@cloth@nv@@YAXAEAT__m128@@000@Z 00000001800bc610 f i SwCollision.obj
 0001:000bb7e0       ??0SwTether@cloth@nv@@QEAA@GM@Z 00000001800bc7e0 f   SwFabric.obj
 0001:000bb820       ??0SwFabric@cloth@nv@@QEAA@AEAVSwFactory@12@IU?$Range@$$CBI@12@1U?$Range@$$CBM@12@21121I@Z 00000001800bc820 f   SwFabric.obj
 0001:000bc490       ??1SwFabric@cloth@nv@@UEAA@XZ 00000001800bd490 f   SwFabric.obj
 0001:000bc600       ?getFactory@SwFabric@cloth@nv@@UEBAAEAVFactory@23@XZ 00000001800bd600 f   SwFabric.obj
 0001:000bc620       ?getNumPhases@SwFabric@cloth@nv@@UEBAIXZ 00000001800bd620 f   SwFabric.obj
 0001:000bc660       ?getNumRestvalues@SwFabric@cloth@nv@@UEBAIXZ 00000001800bd660 f   SwFabric.obj
 0001:000bc680       ?getNumStiffnessValues@SwFabric@cloth@nv@@UEBAIXZ 00000001800bd680 f   SwFabric.obj
 0001:000bc6e0       ?getNumSets@SwFabric@cloth@nv@@UEBAIXZ 00000001800bd6e0 f   SwFabric.obj
 0001:000bc730       ?getNumIndices@SwFabric@cloth@nv@@UEBAIXZ 00000001800bd730 f   SwFabric.obj
 0001:000bc750       ?getNumParticles@SwFabric@cloth@nv@@UEBAIXZ 00000001800bd750 f   SwFabric.obj
 0001:000bc770       ?getNumTethers@SwFabric@cloth@nv@@UEBAIXZ 00000001800bd770 f   SwFabric.obj
 0001:000bc7b0       ?getNumTriangles@SwFabric@cloth@nv@@UEBAIXZ 00000001800bd7b0 f   SwFabric.obj
 0001:000bc800       ?scaleRestvalues@SwFabric@cloth@nv@@UEAAXM@Z 00000001800bd800 f   SwFabric.obj
 0001:000bc8a0       ?scaleTetherLengths@SwFabric@cloth@nv@@UEAAXM@Z 00000001800bd8a0 f   SwFabric.obj
 0001:000bcd10       ??$swap@PEAG@shdfnd@physx@@YAXAEAPEAG0@Z 00000001800bdd10 f i SwFabric.obj
 0001:000bcd80       ??$swap@PEAM@shdfnd@physx@@YAXAEAPEAM0@Z 00000001800bdd80 f i SwFabric.obj
 0001:000bcdf0       ??0?$AlignedAllocator@$0CA@VNonTrackingAllocator@cloth@nv@@@shdfnd@physx@@QEAA@AEBVNonTrackingAllocator@cloth@nv@@@Z 00000001800bddf0 f i SwFabric.obj
 0001:000bce10       ??0?$Array@GVNonTrackingAllocator@cloth@nv@@@shdfnd@physx@@QEAA@PEBG0AEBVNonTrackingAllocator@cloth@nv@@@Z 00000001800bde10 f i SwFabric.obj
 0001:000bcf10       ??0?$Array@MV?$AlignedAllocator@$0CA@VNonTrackingAllocator@cloth@nv@@@shdfnd@physx@@@shdfnd@physx@@QEAA@AEBV?$AlignedAllocator@$0CA@VNonTrackingAllocator@cloth@nv@@@12@@Z 00000001800bdf10 f i SwFabric.obj
 0001:000bcf60       ??0?$Array@MV?$AlignedAllocator@$0CA@VNonTrackingAllocator@cloth@nv@@@shdfnd@physx@@@shdfnd@physx@@QEAA@PEBM0AEBV?$AlignedAllocator@$0CA@VNonTrackingAllocator@cloth@nv@@@12@@Z 00000001800bdf60 f i SwFabric.obj
 0001:000bd060       ??0?$Array@USwTether@cloth@nv@@VNonTrackingAllocator@23@@shdfnd@physx@@QEAA@AEBVNonTrackingAllocator@cloth@nv@@@Z 00000001800be060 f i SwFabric.obj
 0001:000bd0b0       ??1?$Array@MV?$AlignedAllocator@$0CA@VNonTrackingAllocator@cloth@nv@@@shdfnd@physx@@@shdfnd@physx@@QEAA@XZ 00000001800be0b0 f i SwFabric.obj
 0001:000bd150       ??1?$Array@USwTether@cloth@nv@@VNonTrackingAllocator@23@@shdfnd@physx@@QEAA@XZ 00000001800be150 f i SwFabric.obj
 0001:000bd1f0       ??_ESwFabric@cloth@nv@@UEAAPEAXI@Z 00000001800be1f0 f i SwFabric.obj
 0001:000bd1f0       ??_GSwFabric@cloth@nv@@UEAAPEAXI@Z 00000001800be1f0 f i SwFabric.obj
 0001:000bd280       ?allocate@?$AlignedAllocator@$0CA@VNonTrackingAllocator@cloth@nv@@@shdfnd@physx@@QEAAPEAX_KPEBDH@Z 00000001800be280 f i SwFabric.obj
 0001:000bd370       ?allocate@?$Array@MV?$AlignedAllocator@$0CA@VNonTrackingAllocator@cloth@nv@@@shdfnd@physx@@@shdfnd@physx@@IEAAPEAMI@Z 00000001800be370 f i SwFabric.obj
 0001:000bd440       ?allocate@?$Array@PEAVSwFabric@cloth@nv@@VNonTrackingAllocator@23@@shdfnd@physx@@IEAAPEAPEAVSwFabric@cloth@nv@@I@Z 00000001800be440 f i SwFabric.obj
 0001:000bd510       ?allocate@?$Array@USwTether@cloth@nv@@VNonTrackingAllocator@23@@shdfnd@physx@@IEAAPEAUSwTether@cloth@nv@@I@Z 00000001800be510 f i SwFabric.obj
 0001:000bd5e0       ?begin@?$Array@MV?$AlignedAllocator@$0CA@VNonTrackingAllocator@cloth@nv@@@shdfnd@physx@@@shdfnd@physx@@QEAAPEAMXZ 00000001800be5e0 f i SwFabric.obj
 0001:000bd600       ?capacity@?$Array@MV?$AlignedAllocator@$0CA@VNonTrackingAllocator@cloth@nv@@@shdfnd@physx@@@shdfnd@physx@@QEBAIXZ 00000001800be600 f i SwFabric.obj
 0001:000bd620       ?capacity@?$Array@PEAVSwFabric@cloth@nv@@VNonTrackingAllocator@23@@shdfnd@physx@@QEBAIXZ 00000001800be620 f i SwFabric.obj
 0001:000bd640       ?capacity@?$Array@USwTether@cloth@nv@@VNonTrackingAllocator@23@@shdfnd@physx@@QEBAIXZ 00000001800be640 f i SwFabric.obj
 0001:000bd660       ?capacityIncrement@?$Array@GVNonTrackingAllocator@cloth@nv@@@shdfnd@physx@@IEBAIXZ 00000001800be660 f i SwFabric.obj
 0001:000bd6d0       ?capacityIncrement@?$Array@MV?$AlignedAllocator@$0CA@VNonTrackingAllocator@cloth@nv@@@shdfnd@physx@@@shdfnd@physx@@IEBAIXZ 00000001800be6d0 f i SwFabric.obj
 0001:000bd740       ?capacityIncrement@?$Array@PEAVSwFabric@cloth@nv@@VNonTrackingAllocator@23@@shdfnd@physx@@IEBAIXZ 00000001800be740 f i SwFabric.obj
 0001:000bd7b0       ?capacityIncrement@?$Array@USwTether@cloth@nv@@VNonTrackingAllocator@23@@shdfnd@physx@@IEBAIXZ 00000001800be7b0 f i SwFabric.obj
 0001:000bd820       ?copy@?$Array@MV?$AlignedAllocator@$0CA@VNonTrackingAllocator@cloth@nv@@@shdfnd@physx@@@shdfnd@physx@@KAXPEAM0PEBM@Z 00000001800be820 f i SwFabric.obj
 0001:000bd900       ?copy@?$Array@PEAVSwFabric@cloth@nv@@VNonTrackingAllocator@23@@shdfnd@physx@@KAXPEAPEAVSwFabric@cloth@nv@@0PEBQEAV456@@Z 00000001800be900 f i SwFabric.obj
 0001:000bd9e0       ?copy@?$Array@USwTether@cloth@nv@@VNonTrackingAllocator@23@@shdfnd@physx@@KAXPEAUSwTether@cloth@nv@@0PEBU456@@Z 00000001800be9e0 f i SwFabric.obj
 0001:000bdac0       ?deallocate@?$AlignedAllocator@$0CA@VNonTrackingAllocator@cloth@nv@@@shdfnd@physx@@QEAAXPEAX@Z 00000001800beac0 f i SwFabric.obj
 0001:000bdb40       ?deallocate@?$Array@MV?$AlignedAllocator@$0CA@VNonTrackingAllocator@cloth@nv@@@shdfnd@physx@@@shdfnd@physx@@IEAAXPEAX@Z 00000001800beb40 f i SwFabric.obj
 0001:000bdb90       ?deallocate@?$Array@PEAVSwFabric@cloth@nv@@VNonTrackingAllocator@23@@shdfnd@physx@@IEAAXPEAX@Z 00000001800beb90 f i SwFabric.obj
 0001:000bdbe0       ?deallocate@?$Array@USwTether@cloth@nv@@VNonTrackingAllocator@23@@shdfnd@physx@@IEAAXPEAX@Z 00000001800bebe0 f i SwFabric.obj
 0001:000bdc30       ?destroy@?$Array@MV?$AlignedAllocator@$0CA@VNonTrackingAllocator@cloth@nv@@@shdfnd@physx@@@shdfnd@physx@@KAXPEAM0@Z 00000001800bec30 f i SwFabric.obj
 0001:000bdc70       ?destroy@?$Array@PEAVSwFabric@cloth@nv@@VNonTrackingAllocator@23@@shdfnd@physx@@KAXPEAPEAVSwFabric@cloth@nv@@0@Z 00000001800bec70 f i SwFabric.obj
 0001:000bdcb0       ?destroy@?$Array@USwTether@cloth@nv@@VNonTrackingAllocator@23@@shdfnd@physx@@KAXPEAUSwTether@cloth@nv@@0@Z 00000001800becb0 f i SwFabric.obj
 0001:000bdcf0       ?end@?$Array@MV?$AlignedAllocator@$0CA@VNonTrackingAllocator@cloth@nv@@@shdfnd@physx@@@shdfnd@physx@@QEAAPEAMXZ 00000001800becf0 f i SwFabric.obj
 0001:000bdd20       ?find@?$Array@PEAVSwFabric@cloth@nv@@VNonTrackingAllocator@23@@shdfnd@physx@@QEAAPEAPEAVSwFabric@cloth@nv@@AEBQEAV456@@Z 00000001800bed20 f i SwFabric.obj
 0001:000bddb0       ?grow@?$Array@USwTether@cloth@nv@@VNonTrackingAllocator@23@@shdfnd@physx@@IEAAXI@Z 00000001800bedb0 f i SwFabric.obj
 0001:000bde70       ?growAndPushBack@?$Array@GVNonTrackingAllocator@cloth@nv@@@shdfnd@physx@@IEAAAEAGAEBG@Z 00000001800bee70 f i SwFabric.obj
 0001:000be090       ?growAndPushBack@?$Array@MV?$AlignedAllocator@$0CA@VNonTrackingAllocator@cloth@nv@@@shdfnd@physx@@@shdfnd@physx@@IEAAAEAMAEBM@Z 00000001800bf090 f i SwFabric.obj
 0001:000be2c0       ?growAndPushBack@?$Array@PEAVSwFabric@cloth@nv@@VNonTrackingAllocator@23@@shdfnd@physx@@IEAAAEAPEAVSwFabric@cloth@nv@@AEBQEAV456@@Z 00000001800bf2c0 f i SwFabric.obj
 0001:000be4e0       ?growAndPushBack@?$Array@USwTether@cloth@nv@@VNonTrackingAllocator@23@@shdfnd@physx@@IEAAAEAUSwTether@cloth@nv@@AEBU456@@Z 00000001800bf4e0 f i SwFabric.obj
 0001:000be700       ?isInUserMemory@?$Array@MV?$AlignedAllocator@$0CA@VNonTrackingAllocator@cloth@nv@@@shdfnd@physx@@@shdfnd@physx@@QEBAIXZ 00000001800bf700 f i SwFabric.obj
 0001:000be720       ?isInUserMemory@?$Array@PEAVSwFabric@cloth@nv@@VNonTrackingAllocator@23@@shdfnd@physx@@QEBAIXZ 00000001800bf720 f i SwFabric.obj
 0001:000be740       ?isInUserMemory@?$Array@USwTether@cloth@nv@@VNonTrackingAllocator@23@@shdfnd@physx@@QEBAIXZ 00000001800bf740 f i SwFabric.obj
 0001:000be760       ?pushBack@?$Array@GVNonTrackingAllocator@cloth@nv@@@shdfnd@physx@@QEAAAEAGAEBG@Z 00000001800bf760 f i SwFabric.obj
 0001:000be870       ?pushBack@?$Array@MV?$AlignedAllocator@$0CA@VNonTrackingAllocator@cloth@nv@@@shdfnd@physx@@@shdfnd@physx@@QEAAAEAMAEBM@Z 00000001800bf870 f i SwFabric.obj
 0001:000be980       ?pushBack@?$Array@PEAVSwFabric@cloth@nv@@VNonTrackingAllocator@23@@shdfnd@physx@@QEAAAEAPEAVSwFabric@cloth@nv@@AEBQEAV456@@Z 00000001800bf980 f i SwFabric.obj
 0001:000bea90       ?pushBack@?$Array@USwTether@cloth@nv@@VNonTrackingAllocator@23@@shdfnd@physx@@QEAAAEAUSwTether@cloth@nv@@AEBU456@@Z 00000001800bfa90 f i SwFabric.obj
 0001:000beba0       ?recreate@?$Array@USwTether@cloth@nv@@VNonTrackingAllocator@23@@shdfnd@physx@@IEAAXI@Z 00000001800bfba0 f i SwFabric.obj
 0001:000bed10       ?replaceWithLast@?$Array@PEAVSwFabric@cloth@nv@@VNonTrackingAllocator@23@@shdfnd@physx@@QEAAXI@Z 00000001800bfd10 f i SwFabric.obj
 0001:000bee00       ?replaceWithLast@?$Array@PEAVSwFabric@cloth@nv@@VNonTrackingAllocator@23@@shdfnd@physx@@QEAAXPEAPEAVSwFabric@cloth@nv@@@Z 00000001800bfe00 f i SwFabric.obj
 0001:000bee60       ?reserve@?$Array@USwTether@cloth@nv@@VNonTrackingAllocator@23@@shdfnd@physx@@QEAAXI@Z 00000001800bfe60 f i SwFabric.obj
 0001:000beec0       ?swap@?$Array@GVNonTrackingAllocator@cloth@nv@@@shdfnd@physx@@QEAAXAEAV123@@Z 00000001800bfec0 f i SwFabric.obj
 0001:000bef50       ?swap@?$Array@MV?$AlignedAllocator@$0CA@VNonTrackingAllocator@cloth@nv@@@shdfnd@physx@@@shdfnd@physx@@QEAAXAEAV123@@Z 00000001800bff50 f i SwFabric.obj
 0001:000befe0       ??0SwFactory@cloth@nv@@QEAA@XZ 00000001800bffe0 f   SwFactory.obj
 0001:000bf050       ??1SwFactory@cloth@nv@@UEAA@XZ 00000001800c0050 f   SwFactory.obj
 0001:000bf110       ?createFabric@SwFactory@cloth@nv@@UEAAPEAVFabric@23@IU?$Range@$$CBI@23@0U?$Range@$$CBM@23@10010@Z 00000001800c0110 f   SwFactory.obj
 0001:000bf2f0       ?createCloth@SwFactory@cloth@nv@@UEAAPEAVCloth@23@U?$Range@$$CBVPxVec4@physx@@@23@AEAVFabric@23@@Z 00000001800c02f0 f   SwFactory.obj
 0001:000bf3a0       ?createSolver@SwFactory@cloth@nv@@UEAAPEAVSolver@23@XZ 00000001800c03a0 f   SwFactory.obj
 0001:000bf420       ?clone@SwFactory@cloth@nv@@UEAAPEAVCloth@23@AEBV423@@Z 00000001800c0420 f   SwFactory.obj
 0001:000bf4f0       ?extractFabricData@SwFactory@cloth@nv@@UEBAXAEBVFabric@23@U?$Range@I@23@1U?$Range@M@23@21121@Z 00000001800c04f0 f   SwFactory.obj
 0001:000bfe90       ?extractCollisionData@SwFactory@cloth@nv@@UEBAXAEBVCloth@23@U?$Range@VPxVec4@physx@@@23@U?$Range@I@23@12U?$Range@VPxVec3@physx@@@23@@Z 00000001800c0e90 f   SwFactory.obj
 0001:000c04d0       ?extractMotionConstraints@SwFactory@cloth@nv@@UEBAXAEBVCloth@23@U?$Range@VPxVec4@physx@@@23@@Z 00000001800c14d0 f   SwFactory.obj
 0001:000c06a0       ?extractSeparationConstraints@SwFactory@cloth@nv@@UEBAXAEBVCloth@23@U?$Range@VPxVec4@physx@@@23@@Z 00000001800c16a0 f   SwFactory.obj
 0001:000c0870       ?extractParticleAccelerations@SwFactory@cloth@nv@@UEBAXAEBVCloth@23@U?$Range@VPxVec4@physx@@@23@@Z 00000001800c1870 f   SwFactory.obj
 0001:000c0a10       ?extractVirtualParticles@SwFactory@cloth@nv@@UEBAXAEBVCloth@23@U?$Range@$$BY03I@23@U?$Range@VPxVec3@physx@@@23@@Z 00000001800c1a10 f   SwFactory.obj
 0001:000c0e60       ?extractSelfCollisionIndices@SwFactory@cloth@nv@@UEBAXAEBVCloth@23@U?$Range@I@23@@Z 00000001800c1e60 f   SwFactory.obj
 0001:000c0f70       ?extractRestPositions@SwFactory@cloth@nv@@UEBAXAEBVCloth@23@U?$Range@VPxVec4@physx@@@23@@Z 00000001800c1f70 f   SwFactory.obj
 0001:000c18a0       ??$?RAEBGAEBG@?$less@X@std@@QEBA_NAEBG0@Z 00000001800c28a0 f i SwFactory.obj
 0001:000c1910       ??$_Debug_lt@AEBGAEBG@std@@YA_NAEBG0PEB_WI@Z 00000001800c2910 f i SwFactory.obj
 0001:000c19a0       ??$_Debug_lt_pred@U?$less@X@std@@AEBGAEBG@std@@YA_N$$QEAU?$less@X@0@AEBG1PEB_WI@Z 00000001800c29a0 f i SwFactory.obj
 0001:000c1a70       ??$forward@AEBG@std@@YAAEBGAEBG@Z 00000001800c2a70 f i SwFactory.obj
 0001:000c1a80       ??$max@G@std@@YAAEBGAEBG0@Z 00000001800c2a80 f i SwFactory.obj
 0001:000c1b10       ??0?$Array@PEAVSwFabric@cloth@nv@@VNonTrackingAllocator@23@@shdfnd@physx@@QEAA@AEBVNonTrackingAllocator@cloth@nv@@@Z 00000001800c2b10 f i SwFactory.obj
 0001:000c1b60       ??1?$Array@PEAVSwFabric@cloth@nv@@VNonTrackingAllocator@23@@shdfnd@physx@@QEAA@XZ 00000001800c2b60 f i SwFactory.obj
 0001:000c1c00       ??A?$Array@GVNonTrackingAllocator@cloth@nv@@@shdfnd@physx@@QEBAAEBGI@Z 00000001800c2c00 f i SwFactory.obj
 0001:000c1cc0       ??A?$Array@IVNonTrackingAllocator@cloth@nv@@@shdfnd@physx@@QEBAAEBII@Z 00000001800c2cc0 f i SwFactory.obj
 0001:000c1d80       ??A?$Array@USwTether@cloth@nv@@VNonTrackingAllocator@23@@shdfnd@physx@@QEBAAEBUSwTether@cloth@nv@@I@Z 00000001800c2d80 f i SwFactory.obj
 0001:000c1e40       ??_ESwFactory@cloth@nv@@UEAAPEAXI@Z 00000001800c2e40 f i SwFactory.obj
 0001:000c1e40       ??_GSwFactory@cloth@nv@@UEAAPEAXI@Z 00000001800c2e40 f i SwFactory.obj
 0001:000c1ed0       ?begin@?$Array@MV?$AlignedAllocator@$0CA@VNonTrackingAllocator@cloth@nv@@@shdfnd@physx@@@shdfnd@physx@@QEBAPEBMXZ 00000001800c2ed0 f i SwFactory.obj
 0001:000c1ef0       ?empty@?$Range@$$BY03I@cloth@nv@@QEBA_NXZ 00000001800c2ef0 f i SwFactory.obj
 0001:000c1f50       ?front@?$Array@UIndexPair@cloth@nv@@VNonTrackingAllocator@23@@shdfnd@physx@@QEBAAEBUIndexPair@cloth@nv@@XZ 00000001800c2f50 f i SwFactory.obj
 0001:000c2000       ?front@?$Array@VPxVec3@physx@@VNonTrackingAllocator@cloth@nv@@@shdfnd@physx@@QEBAAEBVPxVec3@3@XZ 00000001800c3000 f i SwFactory.obj
 0001:000c20b0       ?getPlatform@SwFactory@cloth@nv@@UEBA?AW4Platform@23@XZ 00000001800c30b0 f i SwFactory.obj
 0001:000c20c0       ?size@?$Array@PEAVSwFabric@cloth@nv@@VNonTrackingAllocator@23@@shdfnd@physx@@QEBAIXZ 00000001800c30c0 f i SwFactory.obj
 0001:000c2be0       ??$?RAEBQEAIAEBQEAI@?$less@X@std@@QEBA_NAEBQEAI0@Z 00000001800c3be0 f i SwInterCollision.obj
 0001:000c2c50       ??$_Debug_lt@AEBQEAIAEBQEAI@std@@YA_NAEBQEAI0PEB_WI@Z 00000001800c3c50 f i SwInterCollision.obj
 0001:000c2ce0       ??$_Debug_lt_pred@U?$less@X@std@@AEBQEAIAEBQEAI@std@@YA_N$$QEAU?$less@X@0@AEBQEAI1PEB_WI@Z 00000001800c3ce0 f i SwInterCollision.obj
 0001:000c4150       ??$expandBounds@T__m128@@@cloth@nv@@YA?AU?$BoundingBox@T__m128@@@01@AEBU201@PEBT__m128@@1@Z 00000001800c5150 f i SwInterCollision.obj
 0001:000c4290       ??$forward@AEBQEAI@std@@YAAEBQEAIAEBQEAI@Z 00000001800c5290 f i SwInterCollision.obj
 0001:000c42a0       ??$isEmptyBounds@T__m128@@@cloth@nv@@YA_NAEBU?$BoundingBox@T__m128@@@01@@Z 00000001800c52a0 f i SwInterCollision.obj
 0001:000c4430       ??$max@PEAI@std@@YAAEBQEAIAEBQEAI0@Z 00000001800c5430 f i SwInterCollision.obj
 0001:000c44c0       ??$median3@I$$CBU?$ClothSorter@T__m128@@@?A0xf0e0f986@@@internal@shdfnd@physx@@YAXPEAIHHAEBU?$ClothSorter@T__m128@@@?A0xf0e0f986@@@Z 00000001800c54c0 f i SwInterCollision.obj
 0001:000c4680       ??$partition@I$$CBU?$ClothSorter@T__m128@@@?A0xf0e0f986@@@internal@shdfnd@physx@@YAHPEAIHHAEBU?$ClothSorter@T__m128@@@?A0xf0e0f986@@@Z 00000001800c5680 f i SwInterCollision.obj
 0001:000c4af0       ??$rsqrt@$00@cloth@nv@@YA?AT__m128@@AEBT2@@Z 00000001800c5af0 f i SwInterCollision.obj
 0001:000c4d10       ??$smallSort@I$$CBU?$ClothSorter@T__m128@@@?A0xf0e0f986@@@internal@shdfnd@physx@@YAXPEAIHHAEBU?$ClothSorter@T__m128@@@?A0xf0e0f986@@@Z 00000001800c5d10 f i SwInterCollision.obj
 0001:000c4e30       ??$sort@IU?$ClothSorter@T__m128@@@?A0xf0e0f986@@VNonTrackingAllocator@cloth@nv@@@shdfnd@physx@@YAXPEAIIAEBU?$ClothSorter@T__m128@@@?A0xf0e0f986@@AEBVNonTrackingAllocator@cloth@nv@@I@Z 00000001800c5e30 f i SwInterCollision.obj
 0001:000c55a0       ??0?$SwInterCollision@T__m128@@@cloth@nv@@QEAA@PEBUSwInterCollisionData@12@IMMIP6A_NPEAX1@ZAEAV?$StackAllocator@$0BA@@12@@Z 00000001800c65a0 f i SwInterCollision.obj
 0001:000c5880       ??0PxBounds3@physx@@QEAA@AEBVPxVec3@1@0@Z 00000001800c6880 f i SwInterCollision.obj
 0001:000c5900       ??0PxMat33@physx@@QEAA@AEBVPxQuat@1@@Z 00000001800c6900 f i SwInterCollision.obj
 0001:000c5c70       ??0PxMat44@physx@@QEAA@AEBVPxMat33@1@AEBVPxVec3@1@@Z 00000001800c6c70 f i SwInterCollision.obj
 0001:000c5d40       ??0PxMat44@physx@@QEAA@AEBVPxTransform@1@@Z 00000001800c6d40 f i SwInterCollision.obj
 0001:000c5e50       ??0PxTransform@physx@@QEAA@AEBVPxVec3@1@AEBVPxQuat@1@@Z 00000001800c6e50 f i SwInterCollision.obj
 0001:000c5f40       ??1?$SwInterCollision@T__m128@@@cloth@nv@@QEAA@XZ 00000001800c6f40 f i SwInterCollision.obj
 0001:000c5f50       ??4PxMat44@physx@@QEAAAEAV01@AEBV01@@Z 00000001800c6f50 f i SwInterCollision.obj
 0001:000c6010       ??DPxTransform@physx@@QEBA?AV01@AEBV01@@Z 00000001800c7010 f i SwInterCollision.obj
 0001:000c60e0       ??GPxVec3@physx@@QEBA?AV01@XZ 00000001800c70e0 f i SwInterCollision.obj
 0001:000c6180       ??HPxVec3@physx@@QEBA?AV01@AEBV01@@Z 00000001800c7180 f i SwInterCollision.obj
 0001:000c63f0       ??R?$SwInterCollision@T__m128@@@cloth@nv@@QEAAXXZ 00000001800c73f0 f i SwInterCollision.obj
 0001:000c7420       ?PxAbs@physx@@YAMM@Z       00000001800c8420 f i SwInterCollision.obj
 0001:000c7460       ?PxIsFinite@physx@@YA_NM@Z 00000001800c8460 f i SwInterCollision.obj
 0001:000c74a0       ?abs@intrinsics@physx@@YAMM@Z 00000001800c84a0 f i SwInterCollision.obj
 0001:000c74e0       ?allGreater@cloth@nv@@YAHAEBT__m128@@0@Z 00000001800c84e0 f i SwInterCollision.obj
 0001:000c7540       ?anyGreater@cloth@nv@@YAHAEBT__m128@@0@Z 00000001800c8540 f i SwInterCollision.obj
 0001:000c75a0       ?array@cloth@nv@@YAAEAY03$$CBHAEBT__m128i@@@Z 00000001800c85a0 f i SwInterCollision.obj
 0001:000c75b0       ?basisExtent@PxBounds3@physx@@SA?AV12@AEBVPxVec3@2@AEBVPxMat33@2@0@Z 00000001800c85b0 f i SwInterCollision.obj
 0001:000c78a0       ?centerExtents@PxBounds3@physx@@SA?AV12@AEBVPxVec3@2@0@Z 00000001800c88a0 f i SwInterCollision.obj
 0001:000c7940       ?collideParticle@?$SwInterCollision@T__m128@@@cloth@nv@@AEAAXI@Z 00000001800c8940 f i SwInterCollision.obj
 0001:000c7f00       ?collideParticles@?$SwInterCollision@T__m128@@@cloth@nv@@AEAAXPEBII0II@Z 00000001800c8f00 f i SwInterCollision.obj
 0001:000c8920       ?estimateTemporaryMemory@?$SwInterCollision@T__m128@@@cloth@nv@@SA_KPEAUSwInterCollisionData@23@I@Z 00000001800c9920 f i SwInterCollision.obj
 0001:000c8a30       ?getBufferSize@?$SwInterCollision@T__m128@@@cloth@nv@@CA_KI@Z 00000001800c9a30 f i SwInterCollision.obj
 0001:000c8af0       ?getCenter@PxBounds3@physx@@QEBA?AVPxVec3@2@XZ 00000001800c9af0 f i SwInterCollision.obj
 0001:000c8be0       ?getDimensions@PxBounds3@physx@@QEBA?AVPxVec3@2@XZ 00000001800c9be0 f i SwInterCollision.obj
 0001:000c8cb0       ?getExtents@PxBounds3@physx@@QEBA?AVPxVec3@2@XZ 00000001800c9cb0 f i SwInterCollision.obj
 0001:000c8d90       ?getInverse@PxTransform@physx@@QEBA?AV12@XZ 00000001800c9d90 f i SwInterCollision.obj
 0001:000c8ec0       ?getParticle@?$SwInterCollision@T__m128@@@cloth@nv@@AEAAAEAT__m128@@I@Z 00000001800c9ec0 f i SwInterCollision.obj
 0001:000c9030       ?isEmpty@PxBounds3@physx@@QEBA_NXZ 00000001800ca030 f i SwInterCollision.obj
 0001:000c9110       ?isFinite@PxBounds3@physx@@QEBA_NXZ 00000001800ca110 f i SwInterCollision.obj
 0001:000c9190       ?isFinite@PxQuat@physx@@QEBA_NXZ 00000001800ca190 f i SwInterCollision.obj
 0001:000c9250       ?isFinite@PxTransform@physx@@QEBA_NXZ 00000001800ca250 f i SwInterCollision.obj
 0001:000c92d0       ?isFinite@PxVec3@physx@@QEBA_NXZ 00000001800ca2d0 f i SwInterCollision.obj
 0001:000c9370       ?isFinite@intrinsics@physx@@YA_NM@Z 00000001800ca370 f i SwInterCollision.obj
 0001:000c93d0       ?isSane@PxQuat@physx@@QEBA_NXZ 00000001800ca3d0 f i SwInterCollision.obj
 0001:000c9470       ?isSane@PxTransform@physx@@QEBA_NXZ 00000001800ca470 f i SwInterCollision.obj
 0001:000c94f0       ?isValid@PxBounds3@physx@@QEBA_NXZ 00000001800ca4f0 f i SwInterCollision.obj
 0001:000c9630       ?magnitude@PxQuat@physx@@QEBAMXZ 00000001800ca630 f i SwInterCollision.obj
 0001:000c9670       ?rotate@PxQuat@physx@@QEBA?BVPxVec3@2@AEBV32@@Z 00000001800ca670 f i SwInterCollision.obj
 0001:000c98e0       ?rotateInv@PxQuat@physx@@QEBA?BVPxVec3@2@AEBV32@@Z 00000001800ca8e0 f i SwInterCollision.obj
 0001:000c9b50       ?transform@PxTransform@physx@@QEBA?AV12@AEBV12@@Z 00000001800cab50 f i SwInterCollision.obj
 0001:000c9d40       ?transform@PxTransform@physx@@QEBA?AVPxVec3@2@AEBV32@@Z 00000001800cad40 f i SwInterCollision.obj
 0001:000c9e40       ?transformFast@PxBounds3@physx@@SA?AV12@AEBVPxTransform@2@AEBV12@@Z 00000001800cae40 f i SwInterCollision.obj
 0001:000caca0       ??$collideParticles@$00@?$SwSelfCollision@T__m128@@@cloth@nv@@AEAAXAEAT__m128@@0AEBT3@1@Z 00000001800cbca0 f i SwSelfCollision.obj
 0001:000cb150       ??$collideParticles@$00@?$SwSelfCollision@T__m128@@@cloth@nv@@AEAAXPEBIGPEBGI@Z 00000001800cc150 f i SwSelfCollision.obj
 0001:000cbb10       ??$collideParticles@$0A@@?$SwSelfCollision@T__m128@@@cloth@nv@@AEAAXAEAT__m128@@0AEBT3@1@Z 00000001800ccb10 f i SwSelfCollision.obj
 0001:000cbfc0       ??$collideParticles@$0A@@?$SwSelfCollision@T__m128@@@cloth@nv@@AEAAXPEBIGPEBGI@Z 00000001800ccfc0 f i SwSelfCollision.obj
 0001:000ccaa0       ??0?$SwSelfCollision@T__m128@@@cloth@nv@@QEAA@AEAUSwClothData@12@AEAV?$StackAllocator@$0BA@@12@@Z 00000001800cdaa0 f i SwSelfCollision.obj
 0001:000ccc20       ??1?$SwSelfCollision@T__m128@@@cloth@nv@@QEAA@XZ 00000001800cdc20 f i SwSelfCollision.obj
 0001:000ccc30       ??R?$SwSelfCollision@T__m128@@@cloth@nv@@QEAAXXZ 00000001800cdc30 f i SwSelfCollision.obj
 0001:000cd630       ?estimateTemporaryMemory@?$SwSelfCollision@T__m128@@@cloth@nv@@SA_KAEBVSwCloth@23@@Z 00000001800ce630 f i SwSelfCollision.obj
 0001:000cd700       ?getBufferSize@?$SwSelfCollision@T__m128@@@cloth@nv@@CA_KI@Z 00000001800ce700 f i SwSelfCollision.obj
 0001:000cd850       ??0SimulatedCloth@SwSolver@cloth@nv@@QEAA@AEAVSwCloth@23@PEAV123@@Z 00000001800ce850 f   SwSolver.obj
 0001:000cd8b0       ?Destroy@SimulatedCloth@SwSolver@cloth@nv@@QEAAXXZ 00000001800ce8b0 f   SwSolver.obj
 0001:000cda40       ?Simulate@SimulatedCloth@SwSolver@cloth@nv@@QEAAXXZ 00000001800cea40 f   SwSolver.obj
 0001:000cdc70       ??0SwSolver@cloth@nv@@QEAA@XZ 00000001800cec70 f   SwSolver.obj
 0001:000cdd70       ??1SwSolver@cloth@nv@@UEAA@XZ 00000001800ced70 f   SwSolver.obj
 0001:000cde80       ?addCloth@SwSolver@cloth@nv@@UEAAXPEAVCloth@23@@Z 00000001800cee80 f   SwSolver.obj
 0001:000cded0       ?addCloths@SwSolver@cloth@nv@@UEAAXU?$Range@PEAVCloth@cloth@nv@@@23@@Z 00000001800ceed0 f   SwSolver.obj
 0001:000cdf60       ?removeCloth@SwSolver@cloth@nv@@UEAAXPEAVCloth@23@@Z 00000001800cef60 f   SwSolver.obj
 0001:000ce0b0       ?getNumCloths@SwSolver@cloth@nv@@UEBAHXZ 00000001800cf0b0 f   SwSolver.obj
 0001:000ce0f0       ?getClothList@SwSolver@cloth@nv@@UEBAPEBQEAVCloth@23@XZ 00000001800cf0f0 f   SwSolver.obj
 0001:000ce150       ?beginSimulation@SwSolver@cloth@nv@@UEAA_NM@Z 00000001800cf150 f   SwSolver.obj
 0001:000ce1c0       ?simulateChunk@SwSolver@cloth@nv@@UEAAXH@Z 00000001800cf1c0 f   SwSolver.obj
 0001:000ce290       ?endSimulation@SwSolver@cloth@nv@@UEAAXXZ 00000001800cf290 f   SwSolver.obj
 0001:000ce330       ?getSimulationChunkCount@SwSolver@cloth@nv@@UEBAHXZ 00000001800cf330 f   SwSolver.obj
 0001:000ce370       ?addClothAppend@SwSolver@cloth@nv@@AEAAXPEAVCloth@23@@Z 00000001800cf370 f   SwSolver.obj
 0001:000ce490       ?beginFrame@SwSolver@cloth@nv@@AEBAXXZ 00000001800cf490 f   SwSolver.obj
 0001:000ce510       ?endFrame@SwSolver@cloth@nv@@AEBAXXZ 00000001800cf510 f   SwSolver.obj
 0001:000ce580       ?interCollision@SwSolver@cloth@nv@@AEAAXXZ 00000001800cf580 f   SwSolver.obj
 0001:000ceec0       ??$?0VSwCloth@cloth@nv@@@IterationStateFactory@cloth@nv@@QEAA@AEAVSwCloth@12@M@Z 00000001800cfec0 f i SwSolver.obj
 0001:000cf420       ??$median3@USimulatedCloth@SwSolver@cloth@nv@@Q6A_NAEBU1234@0@Z@internal@shdfnd@physx@@YAXPEAUSimulatedCloth@SwSolver@cloth@nv@@HHAEBQ6A_NAEBU3456@1@Z@Z 00000001800d0420 f i SwSolver.obj
 0001:000cf650       ??$partition@USimulatedCloth@SwSolver@cloth@nv@@Q6A_NAEBU1234@0@Z@internal@shdfnd@physx@@YAHPEAUSimulatedCloth@SwSolver@cloth@nv@@HHAEBQ6A_NAEBU3456@1@Z@Z 00000001800d0650 f i SwSolver.obj
 0001:000cf900       ??$smallSort@USimulatedCloth@SwSolver@cloth@nv@@Q6A_NAEBU1234@0@Z@internal@shdfnd@physx@@YAXPEAUSimulatedCloth@SwSolver@cloth@nv@@HHAEBQ6A_NAEBU3456@1@Z@Z 00000001800d0900 f i SwSolver.obj
 0001:000cfa40       ??$sort@USimulatedCloth@SwSolver@cloth@nv@@P6A_NAEBU1234@0@ZVNonTrackingAllocator@34@@shdfnd@physx@@YAXPEAUSimulatedCloth@SwSolver@cloth@nv@@IAEBQ6A_NAEBU2345@1@ZAEBVNonTrackingAllocator@45@I@Z 00000001800d0a40 f i SwSolver.obj
 0001:000cffc0       ??$swap@USimulatedCloth@SwSolver@cloth@nv@@@shdfnd@physx@@YAXAEAUSimulatedCloth@SwSolver@cloth@nv@@0@Z 00000001800d0fc0 f i SwSolver.obj
 0001:000d0070       ??$swap@VPxVec3@physx@@VNonTrackingAllocator@cloth@nv@@@shdfnd@physx@@YAXAEAV?$Array@VPxVec3@physx@@VNonTrackingAllocator@cloth@nv@@@01@0@Z 00000001800d1070 f i SwSolver.obj
 0001:000d00c0       ??0?$Array@PEAVSwCloth@cloth@nv@@VNonTrackingAllocator@23@@shdfnd@physx@@QEAA@AEBVNonTrackingAllocator@cloth@nv@@@Z 00000001800d10c0 f i SwSolver.obj
 0001:000d0110       ??0?$Array@USimulatedCloth@SwSolver@cloth@nv@@VNonTrackingAllocator@34@@shdfnd@physx@@QEAA@AEBVNonTrackingAllocator@cloth@nv@@@Z 00000001800d1110 f i SwSolver.obj
 0001:000d0160       ??0SIMDGuard@shdfnd@physx@@QEAA@XZ 00000001800d1160 f i SwSolver.obj
 0001:000d01c0       ??1?$Array@PEAVSwCloth@cloth@nv@@VNonTrackingAllocator@23@@shdfnd@physx@@QEAA@XZ 00000001800d11c0 f i SwSolver.obj
 0001:000d0260       ??1?$Array@USimulatedCloth@SwSolver@cloth@nv@@VNonTrackingAllocator@34@@shdfnd@physx@@QEAA@XZ 00000001800d1260 f i SwSolver.obj
 0001:000d0300       ??1?$SwSolverKernel@T__m128@@@cloth@nv@@QEAA@XZ 00000001800d1300 f i SwSolver.obj
 0001:000d0360       ??1SIMDGuard@shdfnd@physx@@QEAA@XZ 00000001800d1360 f i SwSolver.obj
 0001:000d03b0       ??A?$Array@PEAVSwCloth@cloth@nv@@VNonTrackingAllocator@23@@shdfnd@physx@@QEBAAEBQEAVSwCloth@cloth@nv@@I@Z 00000001800d13b0 f i SwSolver.obj
 0001:000d0470       ??A?$Array@USimulatedCloth@SwSolver@cloth@nv@@VNonTrackingAllocator@34@@shdfnd@physx@@QEAAAEAUSimulatedCloth@SwSolver@cloth@nv@@I@Z 00000001800d1470 f i SwSolver.obj
 0001:000d0530       ??_GSwSolver@cloth@nv@@UEAAPEAXI@Z 00000001800d1530 f i SwSolver.obj
 0001:000d0530       ??_ESwSolver@cloth@nv@@UEAAPEAXI@Z 00000001800d1530 f i SwSolver.obj
 0001:000d05c0       ?allocate@?$Array@PEAVSwCloth@cloth@nv@@VNonTrackingAllocator@23@@shdfnd@physx@@IEAAPEAPEAVSwCloth@cloth@nv@@I@Z 00000001800d15c0 f i SwSolver.obj
 0001:000d0690       ?allocate@?$Array@USimulatedCloth@SwSolver@cloth@nv@@VNonTrackingAllocator@34@@shdfnd@physx@@IEAAPEAUSimulatedCloth@SwSolver@cloth@nv@@I@Z 00000001800d1690 f i SwSolver.obj
 0001:000d0760       ?begin@?$Array@USimulatedCloth@SwSolver@cloth@nv@@VNonTrackingAllocator@34@@shdfnd@physx@@QEAAPEAUSimulatedCloth@SwSolver@cloth@nv@@XZ 00000001800d1760 f i SwSolver.obj
 0001:000d0780       ?capacity@?$Array@PEAVSwCloth@cloth@nv@@VNonTrackingAllocator@23@@shdfnd@physx@@QEBAIXZ 00000001800d1780 f i SwSolver.obj
 0001:000d07a0       ?capacity@?$Array@USimulatedCloth@SwSolver@cloth@nv@@VNonTrackingAllocator@34@@shdfnd@physx@@QEBAIXZ 00000001800d17a0 f i SwSolver.obj
 0001:000d07c0       ?capacityIncrement@?$Array@PEAVSwCloth@cloth@nv@@VNonTrackingAllocator@23@@shdfnd@physx@@IEBAIXZ 00000001800d17c0 f i SwSolver.obj
 0001:000d0830       ?capacityIncrement@?$Array@USimulatedCloth@SwSolver@cloth@nv@@VNonTrackingAllocator@34@@shdfnd@physx@@IEBAIXZ 00000001800d1830 f i SwSolver.obj
 0001:000d08a0       ?copy@?$Array@PEAVSwCloth@cloth@nv@@VNonTrackingAllocator@23@@shdfnd@physx@@KAXPEAPEAVSwCloth@cloth@nv@@0PEBQEAV456@@Z 00000001800d18a0 f i SwSolver.obj
 0001:000d0980       ?copy@?$Array@USimulatedCloth@SwSolver@cloth@nv@@VNonTrackingAllocator@34@@shdfnd@physx@@KAXPEAUSimulatedCloth@SwSolver@cloth@nv@@0PEBU4567@@Z 00000001800d1980 f i SwSolver.obj
 0001:000d0a60       ?deallocate@?$Array@PEAVSwCloth@cloth@nv@@VNonTrackingAllocator@23@@shdfnd@physx@@IEAAXPEAX@Z 00000001800d1a60 f i SwSolver.obj
 0001:000d0ab0       ?deallocate@?$Array@USimulatedCloth@SwSolver@cloth@nv@@VNonTrackingAllocator@34@@shdfnd@physx@@IEAAXPEAX@Z 00000001800d1ab0 f i SwSolver.obj
 0001:000d0b00       ?destroy@?$Array@PEAVSwCloth@cloth@nv@@VNonTrackingAllocator@23@@shdfnd@physx@@KAXPEAPEAVSwCloth@cloth@nv@@0@Z 00000001800d1b00 f i SwSolver.obj
 0001:000d0b40       ?destroy@?$Array@USimulatedCloth@SwSolver@cloth@nv@@VNonTrackingAllocator@34@@shdfnd@physx@@KAXPEAUSimulatedCloth@SwSolver@cloth@nv@@0@Z 00000001800d1b40 f i SwSolver.obj
 0001:000d0b80       ?empty@?$Array@USimulatedCloth@SwSolver@cloth@nv@@VNonTrackingAllocator@34@@shdfnd@physx@@QEBA_NXZ 00000001800d1b80 f i SwSolver.obj
 0001:000d0be0       ?end@?$Array@PEAVSwCloth@cloth@nv@@VNonTrackingAllocator@23@@shdfnd@physx@@QEAAPEAPEAVSwCloth@cloth@nv@@XZ 00000001800d1be0 f i SwSolver.obj
 0001:000d0c10       ?end@?$Array@USimulatedCloth@SwSolver@cloth@nv@@VNonTrackingAllocator@34@@shdfnd@physx@@QEAAPEAUSimulatedCloth@SwSolver@cloth@nv@@XZ 00000001800d1c10 f i SwSolver.obj
 0001:000d0c40       ?find@?$Array@PEAVSwCloth@cloth@nv@@VNonTrackingAllocator@23@@shdfnd@physx@@QEAAPEAPEAVSwCloth@cloth@nv@@AEBQEAV456@@Z 00000001800d1c40 f i SwSolver.obj
 0001:000d0cd0       ?getInterCollisionDistance@SwSolver@cloth@nv@@UEBAMXZ 00000001800d1cd0 f i SwSolver.obj
 0001:000d0d10       ?getInterCollisionNbIterations@SwSolver@cloth@nv@@UEBAIXZ 00000001800d1d10 f i SwSolver.obj
 0001:000d0d30       ?getInterCollisionStiffness@SwSolver@cloth@nv@@UEBAMXZ 00000001800d1d30 f i SwSolver.obj
 0001:000d0d70       ?growAndPushBack@?$Array@PEAVSwCloth@cloth@nv@@VNonTrackingAllocator@23@@shdfnd@physx@@IEAAAEAPEAVSwCloth@cloth@nv@@AEBQEAV456@@Z 00000001800d1d70 f i SwSolver.obj
 0001:000d0f90       ?growAndPushBack@?$Array@USimulatedCloth@SwSolver@cloth@nv@@VNonTrackingAllocator@34@@shdfnd@physx@@IEAAAEAUSimulatedCloth@SwSolver@cloth@nv@@AEBU4567@@Z 00000001800d1f90 f i SwSolver.obj
 0001:000d1210       ?hasError@SwSolver@cloth@nv@@UEBA_NXZ 00000001800d2210 f i SwSolver.obj
 0001:000d1220       ?isInUserMemory@?$Array@PEAVSwCloth@cloth@nv@@VNonTrackingAllocator@23@@shdfnd@physx@@QEBAIXZ 00000001800d2220 f i SwSolver.obj
 0001:000d1240       ?isInUserMemory@?$Array@USimulatedCloth@SwSolver@cloth@nv@@VNonTrackingAllocator@34@@shdfnd@physx@@QEBAIXZ 00000001800d2240 f i SwSolver.obj
 0001:000d1260       ?pushBack@?$Array@PEAVSwCloth@cloth@nv@@VNonTrackingAllocator@23@@shdfnd@physx@@QEAAAEAPEAVSwCloth@cloth@nv@@AEBQEAV456@@Z 00000001800d2260 f i SwSolver.obj
 0001:000d1370       ?pushBack@?$Array@USimulatedCloth@SwSolver@cloth@nv@@VNonTrackingAllocator@34@@shdfnd@physx@@QEAAAEAUSimulatedCloth@SwSolver@cloth@nv@@AEBU4567@@Z 00000001800d2370 f i SwSolver.obj
 0001:000d1480       ?replaceWithLast@?$Array@PEAVSwCloth@cloth@nv@@VNonTrackingAllocator@23@@shdfnd@physx@@QEAAXI@Z 00000001800d2480 f i SwSolver.obj
 0001:000d1570       ?replaceWithLast@?$Array@PEAVSwCloth@cloth@nv@@VNonTrackingAllocator@23@@shdfnd@physx@@QEAAXPEAPEAVSwCloth@cloth@nv@@@Z 00000001800d2570 f i SwSolver.obj
 0001:000d15d0       ?replaceWithLast@?$Array@USimulatedCloth@SwSolver@cloth@nv@@VNonTrackingAllocator@34@@shdfnd@physx@@QEAAXI@Z 00000001800d25d0 f i SwSolver.obj
 0001:000d16d0       ?replaceWithLast@?$Array@USimulatedCloth@SwSolver@cloth@nv@@VNonTrackingAllocator@34@@shdfnd@physx@@QEAAXPEAUSimulatedCloth@SwSolver@cloth@nv@@@Z 00000001800d26d0 f i SwSolver.obj
 0001:000d1740       ?setInterCollisionDistance@SwSolver@cloth@nv@@UEAAXM@Z 00000001800d2740 f i SwSolver.obj
 0001:000d1770       ?setInterCollisionFilter@SwSolver@cloth@nv@@UEAAXP6A_NPEAX0@Z@Z 00000001800d2770 f i SwSolver.obj
 0001:000d17a0       ?setInterCollisionNbIterations@SwSolver@cloth@nv@@UEAAXI@Z 00000001800d27a0 f i SwSolver.obj
 0001:000d17c0       ?setInterCollisionStiffness@SwSolver@cloth@nv@@UEAAXM@Z 00000001800d27c0 f i SwSolver.obj
 0001:000d17f0       ?size@?$Array@PEAVSwCloth@cloth@nv@@VNonTrackingAllocator@23@@shdfnd@physx@@QEBAIXZ 00000001800d27f0 f i SwSolver.obj
 0001:000d1810       ?size@?$Array@USimulatedCloth@SwSolver@cloth@nv@@VNonTrackingAllocator@34@@shdfnd@physx@@QEBAIXZ 00000001800d2810 f i SwSolver.obj
 0001:000d1830       ?swap@?$Array@VPxVec3@physx@@VNonTrackingAllocator@cloth@nv@@@shdfnd@physx@@QEAAXAEAV123@@Z 00000001800d2830 f i SwSolver.obj
 0001:000d19c0       ??$PX_UNUSED@PEIBM@@YAXAEBQEIBM@Z 00000001800d29c0 f i SwSolverKernel.obj
 0001:000d19d0       ??$PX_UNUSED@T__m128@@@@YAXAEBT__m128@@@Z 00000001800d29d0 f i SwSolverKernel.obj
 0001:000d6080       ??$create@T__m128@@VSwCloth@cloth@nv@@@IterationStateFactory@cloth@nv@@QEBA?AU?$IterationState@T__m128@@@12@AEBVSwCloth@12@@Z 00000001800d7080 f i SwSolverKernel.obj
 0001:000d8780       ??$integrateParticles@V?$ConstantIterator@T__m128@@@cloth@nv@@@?$SwSolverKernel@T__m128@@@cloth@nv@@AEAAXAEAV?$ConstantIterator@T__m128@@@12@AEBT__m128@@@Z 00000001800d9780 f i SwSolverKernel.obj
 0001:000d88e0       ??$integrateParticles@V?$ScaleBiasIterator@T__m128@@PEBT1@@cloth@nv@@@?$SwSolverKernel@T__m128@@@cloth@nv@@AEAAXAEAV?$ScaleBiasIterator@T__m128@@PEBT1@@12@AEBT__m128@@@Z 00000001800d98e0 f i SwSolverKernel.obj
 0001:000daf40       ??$transform@T__m128@@@cloth@nv@@YA?AT__m128@@AEAY02$$CBT2@AEBT2@1@Z 00000001800dbf40 f i SwSolverKernel.obj
 0001:000db0e0       ??0?$ConstantIterator@T__m128@@@cloth@nv@@QEAA@AEBT__m128@@@Z 00000001800dc0e0 f i SwSolverKernel.obj
 0001:000db110       ??0?$ScaleBiasIterator@T__m128@@PEBT1@@cloth@nv@@QEAA@PEBT__m128@@AEBT3@1@Z 00000001800dc110 f i SwSolverKernel.obj
 0001:000db170       ??0?$SwSolverKernel@T__m128@@@cloth@nv@@QEAA@AEBVSwCloth@12@AEAUSwClothData@12@AEAV?$StackAllocator@$0BA@@12@AEAUIterationStateFactory@12@@Z 00000001800dc170 f i SwSolverKernel.obj
 0001:000db270       ??D?$ConstantIterator@T__m128@@@cloth@nv@@QEBA?AT__m128@@XZ 00000001800dc270 f i SwSolverKernel.obj
 0001:000db2a0       ??D?$ScaleBiasIterator@T__m128@@PEBT1@@cloth@nv@@QEBA?AT__m128@@XZ 00000001800dc2a0 f i SwSolverKernel.obj
 0001:000db330       ??E?$ConstantIterator@T__m128@@@cloth@nv@@QEAAAEAV012@XZ 00000001800dc330 f i SwSolverKernel.obj
 0001:000db340       ??E?$ScaleBiasIterator@T__m128@@PEBT1@@cloth@nv@@QEAAAEAV012@XZ 00000001800dc340 f i SwSolverKernel.obj
 0001:000db370       ??Kcloth@nv@@YA?AT__m128@@AEBT2@0@Z 00000001800dc370 f i SwSolverKernel.obj
 0001:000db3d0       ??R?$SwSolverKernel@T__m128@@@cloth@nv@@QEAAXXZ 00000001800dc3d0 f i SwSolverKernel.obj
 0001:000db410       ?anyGreaterEqual@cloth@nv@@YAHAEBT__m128@@0@Z 00000001800dc410 f i SwSolverKernel.obj
 0001:000db470       ?applyWind@?$SwSolverKernel@T__m128@@@cloth@nv@@AEAAXXZ 00000001800dc470 f i SwSolverKernel.obj
 0001:000db7f0       ?collideParticles@?$SwSolverKernel@T__m128@@@cloth@nv@@AEAAXXZ 00000001800dc7f0 f i SwSolverKernel.obj
 0001:000db8c0       ?constrainMotion@?$SwSolverKernel@T__m128@@@cloth@nv@@AEAAXXZ 00000001800dc8c0 f i SwSolverKernel.obj
 0001:000dbc00       ?constrainSeparation@?$SwSolverKernel@T__m128@@@cloth@nv@@AEAAXXZ 00000001800dcc00 f i SwSolverKernel.obj
 0001:000dbe40       ?constrainTether@?$SwSolverKernel@T__m128@@@cloth@nv@@AEAAXXZ 00000001800dce40 f i SwSolverKernel.obj
 0001:000dc5e0       ?estimateTemporaryMemory@?$SwSolverKernel@T__m128@@@cloth@nv@@SA_KAEBVSwCloth@23@@Z 00000001800dd5e0 f i SwSolverKernel.obj
 0001:000dc6e0       ?integrateParticles@?$SwSolverKernel@T__m128@@@cloth@nv@@AEAAXXZ 00000001800dd6e0 f i SwSolverKernel.obj
 0001:000dc900       ?iterateCloth@?$SwSolverKernel@T__m128@@@cloth@nv@@AEAAXXZ 00000001800dd900 f i SwSolverKernel.obj
 0001:000dc9a0       ?selfCollideParticles@?$SwSolverKernel@T__m128@@@cloth@nv@@AEAAXXZ 00000001800dd9a0 f i SwSolverKernel.obj
 0001:000dca60       ?simulateCloth@?$SwSolverKernel@T__m128@@@cloth@nv@@AEAAXXZ 00000001800dda60 f i SwSolverKernel.obj
 0001:000dcad0       ?solveFabric@?$SwSolverKernel@T__m128@@@cloth@nv@@AEAAXXZ 00000001800ddad0 f i SwSolverKernel.obj
 0001:000dd300       ?updateSleepState@?$SwSolverKernel@T__m128@@@cloth@nv@@AEAAXXZ 00000001800de300 f i SwSolverKernel.obj
 0001:000dd630       ??0TripletScheduler@cloth@nv@@QEAA@U?$Range@$$BY03$$CBI@12@@Z 00000001800de630 f   TripletScheduler.obj
 0001:000dd6f0       ?simd@TripletScheduler@cloth@nv@@QEAAXII@Z 00000001800de6f0 f   TripletScheduler.obj
 0001:000ddb90       ?warp@TripletScheduler@cloth@nv@@QEAAXII@Z 00000001800deb90 f   TripletScheduler.obj
 0001:000de490       ??0TripletSchedulerTestInterface@cloth@nv@@QEAA@U?$Range@$$BY03$$CBI@12@@Z 00000001800df490 f   TripletScheduler.obj
 0001:000de520       ??1TripletSchedulerTestInterface@cloth@nv@@QEAA@XZ 00000001800df520 f   TripletScheduler.obj
 0001:000de590       ?simd@TripletSchedulerTestInterface@cloth@nv@@QEAAXII@Z 00000001800df590 f   TripletScheduler.obj
 0001:000de5e0       ?warp@TripletSchedulerTestInterface@cloth@nv@@QEAAXII@Z 00000001800df5e0 f   TripletScheduler.obj
 0001:000de630       ?GetTriplets@TripletSchedulerTestInterface@cloth@nv@@QEAA?AU?$Range@$$CBI@23@XZ 00000001800df630 f   TripletScheduler.obj
 0001:000de6c0       ?GetSetSizes@TripletSchedulerTestInterface@cloth@nv@@QEAA?AU?$Range@$$CBI@23@XZ 00000001800df6c0 f   TripletScheduler.obj
 0001:000de760       NvClothCreateTripletScheduler 00000001800df760 f   TripletScheduler.obj
 0001:000de7e0       NvClothDestroyTripletScheduler 00000001800df7e0 f   TripletScheduler.obj
 0001:000def00       ??$?AH@?$Vec4T@I@cloth@nv@@QEAAAEAIH@Z 00000001800dff00 f i TripletScheduler.obj
 0001:000def20       ??$?AI@?$Vec4T@I@cloth@nv@@QEAAAEAII@Z 00000001800dff20 f i TripletScheduler.obj
 0001:000def40       ??$PX_UNUSED@I@@YAXAEBI@Z  00000001800dff40 f i TripletScheduler.obj
 0001:000def50       ??$iter_swap@PEAU?$Vec4T@I@cloth@nv@@PEAU123@@std@@YAXPEAU?$Vec4T@I@cloth@nv@@0@Z 00000001800dff50 f i TripletScheduler.obj
 0001:000defa0       ??$move@AEAU?$Vec4T@I@cloth@nv@@@std@@YA$$QEAU?$Vec4T@I@cloth@nv@@AEAU123@@Z 00000001800dffa0 f i TripletScheduler.obj
 0001:000df070       ??$swap@PEAU?$Vec4T@I@cloth@nv@@@shdfnd@physx@@YAXAEAPEAU?$Vec4T@I@cloth@nv@@0@Z 00000001800e0070 f i TripletScheduler.obj
 0001:000df0e0       ??$swap@U?$Vec4T@I@cloth@nv@@X@std@@YAXAEAU?$Vec4T@I@cloth@nv@@0@Z 00000001800e00e0 f i TripletScheduler.obj
 0001:000df190       ??0?$Array@U?$Vec4T@I@cloth@nv@@VNonTrackingAllocator@23@@shdfnd@physx@@QEAA@PEBU?$Vec4T@I@cloth@nv@@0AEBVNonTrackingAllocator@45@@Z 00000001800e0190 f i TripletScheduler.obj
 0001:000df290       ??0?$Array@UTripletSet@?A0xcc9b02dc@@VNonTrackingAllocator@cloth@nv@@@shdfnd@physx@@QEAA@IAEBUTripletSet@?A0xcc9b02dc@@AEBVNonTrackingAllocator@cloth@nv@@@Z 00000001800e0290 f i TripletScheduler.obj
 0001:000df320       ??0?$Vec4T@G@cloth@nv@@QEAA@GGGG@Z 00000001800e0320 f i TripletScheduler.obj
 0001:000df7f0       ??1?$Array@UTripletSet@?A0xcc9b02dc@@VNonTrackingAllocator@cloth@nv@@@shdfnd@physx@@QEAA@XZ 00000001800e07f0 f i TripletScheduler.obj
 0001:000df8f0       ??A?$Array@U?$Vec4T@I@cloth@nv@@VNonTrackingAllocator@23@@shdfnd@physx@@QEAAAEAU?$Vec4T@I@cloth@nv@@I@Z 00000001800e08f0 f i TripletScheduler.obj
 0001:000df9b0       ??A?$Array@UTripletSet@?A0xcc9b02dc@@VNonTrackingAllocator@cloth@nv@@@shdfnd@physx@@QEAAAEAUTripletSet@?A0xcc9b02dc@@I@Z 00000001800e09b0 f i TripletScheduler.obj
 0001:000dfa70       ??_GTripletScheduler@cloth@nv@@QEAAPEAXI@Z 00000001800e0a70 f i TripletScheduler.obj
 0001:000dfae0       ??_GTripletSchedulerTestInterface@cloth@nv@@QEAAPEAXI@Z 00000001800e0ae0 f i TripletScheduler.obj
 0001:000dfb50       ?allocate@?$Array@UTripletSet@?A0xcc9b02dc@@VNonTrackingAllocator@cloth@nv@@@shdfnd@physx@@IEAAPEAUTripletSet@?A0xcc9b02dc@@I@Z 00000001800e0b50 f i TripletScheduler.obj
 0001:000dfc20       ?back@?$Array@IVNonTrackingAllocator@cloth@nv@@@shdfnd@physx@@QEAAAEAIXZ 00000001800e0c20 f i TripletScheduler.obj
 0001:000dfce0       ?begin@?$Range@$$BY03$$CBI@cloth@nv@@QEBAPEAY03$$CBIXZ 00000001800e0ce0 f i TripletScheduler.obj
 0001:000dfd00       ?capacity@?$Array@UTripletSet@?A0xcc9b02dc@@VNonTrackingAllocator@cloth@nv@@@shdfnd@physx@@QEBAIXZ 00000001800e0d00 f i TripletScheduler.obj
 0001:000dfd20       ?capacityIncrement@?$Array@UTripletSet@?A0xcc9b02dc@@VNonTrackingAllocator@cloth@nv@@@shdfnd@physx@@IEBAIXZ 00000001800e0d20 f i TripletScheduler.obj
 0001:000dfd90       ?copy@?$Array@UTripletSet@?A0xcc9b02dc@@VNonTrackingAllocator@cloth@nv@@@shdfnd@physx@@KAXPEAUTripletSet@?A0xcc9b02dc@@0PEBU45@@Z 00000001800e0d90 f i TripletScheduler.obj
 0001:000dfe70       ?create@?$Array@UTripletSet@?A0xcc9b02dc@@VNonTrackingAllocator@cloth@nv@@@shdfnd@physx@@KAXPEAUTripletSet@?A0xcc9b02dc@@0AEBU45@@Z 00000001800e0e70 f i TripletScheduler.obj
 0001:000dff30       ?deallocate@?$Array@UTripletSet@?A0xcc9b02dc@@VNonTrackingAllocator@cloth@nv@@@shdfnd@physx@@IEAAXPEAX@Z 00000001800e0f30 f i TripletScheduler.obj
 0001:000dff80       ?destroy@?$Array@UTripletSet@?A0xcc9b02dc@@VNonTrackingAllocator@cloth@nv@@@shdfnd@physx@@KAXPEAUTripletSet@?A0xcc9b02dc@@0@Z 00000001800e0f80 f i TripletScheduler.obj
 0001:000dffc0       ?end@?$Array@U?$Vec4T@I@cloth@nv@@VNonTrackingAllocator@23@@shdfnd@physx@@QEBAPEBU?$Vec4T@I@cloth@nv@@XZ 00000001800e0fc0 f i TripletScheduler.obj
 0001:000dfff0       ?end@?$Range@$$BY03$$CBI@cloth@nv@@QEBAPEAY03$$CBIXZ 00000001800e0ff0 f i TripletScheduler.obj
 0001:000e0120       ?grow@?$Array@UTripletSet@?A0xcc9b02dc@@VNonTrackingAllocator@cloth@nv@@@shdfnd@physx@@IEAAXI@Z 00000001800e1120 f i TripletScheduler.obj
 0001:000e01e0       ?growAndPushBack@?$Array@UTripletSet@?A0xcc9b02dc@@VNonTrackingAllocator@cloth@nv@@@shdfnd@physx@@IEAAAEAUTripletSet@?A0xcc9b02dc@@AEBU45@@Z 00000001800e11e0 f i TripletScheduler.obj
 0001:000e0460       ?isInUserMemory@?$Array@UTripletSet@?A0xcc9b02dc@@VNonTrackingAllocator@cloth@nv@@@shdfnd@physx@@QEBAIXZ 00000001800e1460 f i TripletScheduler.obj
 0001:000e0480       ?pushBack@?$Array@UTripletSet@?A0xcc9b02dc@@VNonTrackingAllocator@cloth@nv@@@shdfnd@physx@@QEAAAEAUTripletSet@?A0xcc9b02dc@@AEBU45@@Z 00000001800e1480 f i TripletScheduler.obj
 0001:000e0590       ?recreate@?$Array@UTripletSet@?A0xcc9b02dc@@VNonTrackingAllocator@cloth@nv@@@shdfnd@physx@@IEAAXI@Z 00000001800e1590 f i TripletScheduler.obj
 0001:000e0710       ?reserve@?$Array@UTripletSet@?A0xcc9b02dc@@VNonTrackingAllocator@cloth@nv@@@shdfnd@physx@@QEAAXI@Z 00000001800e1710 f i TripletScheduler.obj
 0001:000e0770       ?resize@?$Array@UTripletSet@?A0xcc9b02dc@@VNonTrackingAllocator@cloth@nv@@@shdfnd@physx@@QEAAXIAEBUTripletSet@?A0xcc9b02dc@@@Z 00000001800e1770 f i TripletScheduler.obj
 0001:000e0840       ?swap@?$Array@U?$Vec4T@I@cloth@nv@@VNonTrackingAllocator@23@@shdfnd@physx@@QEAAXAEAV123@@Z 00000001800e1840 f i TripletScheduler.obj
 0001:000e08d0       NvClothCreateFabricCooker  00000001800e18d0 f   ClothFabricCooker.obj
 0001:000e0940       NvClothCookFabricFromMesh  00000001800e1940 f   ClothFabricCooker.obj
 0001:000e0c50       ?cook@FabricCookerImpl@cloth@nv@@UEAA_NAEBVClothMeshDesc@23@VPxVec3@physx@@_N@Z 00000001800e1c50 f   ClothFabricCooker.obj
 0001:000e2c90       ?getDescriptor@FabricCookerImpl@cloth@nv@@UEBA?AVClothFabricDesc@23@XZ 00000001800e3c90 f   ClothFabricCooker.obj
 0001:000e2f70       ?getCookedData@FabricCookerImpl@cloth@nv@@UEBA?AUCookedData@23@XZ 00000001800e3f70 f   ClothFabricCooker.obj
 0001:000e31d0       ?save@FabricCookerImpl@cloth@nv@@UEBAXAEAVPxOutputStream@physx@@_N@Z 00000001800e41d0 f   ClothFabricCooker.obj
 0001:000e3f50       ??$?4VNonTrackingAllocator@cloth@nv@@@?$Array@IVNonTrackingAllocator@cloth@nv@@@shdfnd@physx@@QEAAAEAV012@AEBV012@@Z 00000001800e4f50 f i ClothFabricCooker.obj
 0001:000e4010       ??$?4VNonTrackingAllocator@cloth@nv@@@?$Array@MVNonTrackingAllocator@cloth@nv@@@shdfnd@physx@@QEAAAEAV012@AEBV012@@Z 00000001800e5010 f i ClothFabricCooker.obj
 0001:000e4280       ??$PxMakeIterator@G@physx@@YA?AV?$PxStrideIterator@$$CBG@0@PEBGI@Z 00000001800e5280 f i ClothFabricCooker.obj
 0001:000e42e0       ??$PxMakeIterator@I@physx@@YA?AV?$PxStrideIterator@$$CBI@0@PEBII@Z 00000001800e52e0 f i ClothFabricCooker.obj
 0001:000e4340       ??$PxMax@I@physx@@YAIII@Z  00000001800e5340 f i ClothFabricCooker.obj
 0001:000e43a0       ??$PxMin@I@physx@@YAIII@Z  00000001800e53a0 f i ClothFabricCooker.obj
 0001:000e5b30       ??$hash@II@shdfnd@physx@@YAIAEBV?$Pair@II@01@@Z 00000001800e6b30 f i ClothFabricCooker.obj
 0001:000e5bc0       ??$median3@I$$CBUConstraintSorter@?A0x257d6abb@cloth@nv@@@internal@shdfnd@physx@@YAXPEAIHHAEBUConstraintSorter@?A0x257d6abb@cloth@nv@@@Z 00000001800e6bc0 f i ClothFabricCooker.obj
 0001:000e5d80       ??$partition@I$$CBUConstraintSorter@?A0x257d6abb@cloth@nv@@@internal@shdfnd@physx@@YAHPEAIHHAEBUConstraintSorter@?A0x257d6abb@cloth@nv@@@Z 00000001800e6d80 f i ClothFabricCooker.obj
 0001:000e63a0       ??$smallSort@I$$CBUConstraintSorter@?A0x257d6abb@cloth@nv@@@internal@shdfnd@physx@@YAXPEAIHHAEBUConstraintSorter@?A0x257d6abb@cloth@nv@@@Z 00000001800e73a0 f i ClothFabricCooker.obj
 0001:000e64c0       ??$sort@IUConstraintSorter@?A0x257d6abb@cloth@nv@@VNonTrackingAllocator@34@@shdfnd@physx@@YAXPEAIIAEBUConstraintSorter@?A0x257d6abb@cloth@nv@@AEBVNonTrackingAllocator@45@I@Z 00000001800e74c0 f i ClothFabricCooker.obj
 0001:000e6990       ??$swap@UConstraintGraphColorCount@?A0x257d6abb@cloth@nv@@@shdfnd@physx@@YAXAEAUConstraintGraphColorCount@?A0x257d6abb@cloth@nv@@0@Z 00000001800e7990 f i ClothFabricCooker.obj
 0001:000e6a10       ??0?$Array@MVNonTrackingAllocator@cloth@nv@@@shdfnd@physx@@QEAA@AEBVNonTrackingAllocator@cloth@nv@@@Z 00000001800e7a10 f i ClothFabricCooker.obj
 0001:000e6a60       ??0?$Array@UClothFabricPhase@cloth@nv@@VNonTrackingAllocator@23@@shdfnd@physx@@QEAA@AEBVNonTrackingAllocator@cloth@nv@@@Z 00000001800e7a60 f i ClothFabricCooker.obj
 0001:000e6ab0       ??0?$Array@UConstraintGraphColorCount@?A0x257d6abb@cloth@nv@@VNonTrackingAllocator@34@@shdfnd@physx@@QEAA@AEBVNonTrackingAllocator@cloth@nv@@@Z 00000001800e7ab0 f i ClothFabricCooker.obj
 0001:000e6b00       ??0?$Array@V?$Pair@V?$Pair@II@shdfnd@physx@@W4Enum@ClothFabricPhaseType@cloth@nv@@@shdfnd@physx@@VNonTrackingAllocator@cloth@nv@@@shdfnd@physx@@QEAA@AEBVNonTrackingAllocator@cloth@nv@@@Z 00000001800e7b00 f i ClothFabricCooker.obj
 0001:000e6b50       ??0?$Array@W4Enum@ClothFabricPhaseType@cloth@nv@@VNonTrackingAllocator@34@@shdfnd@physx@@QEAA@AEBVNonTrackingAllocator@cloth@nv@@@Z 00000001800e7b50 f i ClothFabricCooker.obj
 0001:000e6ba0       ??0?$HashBase@V?$Pair@$$CBV?$Pair@II@shdfnd@physx@@UEdge@?A0x257d6abb@cloth@nv@@@shdfnd@physx@@V?$Pair@II@23@U?$Hash@V?$Pair@II@shdfnd@physx@@@23@UGetKey@?$HashMapBase@V?$Pair@II@shdfnd@physx@@UEdge@?A0x257d6abb@cloth@nv@@U?$Hash@V?$Pair@II@shdfnd@physx@@@23@VNonTrackingAllocator@67@@internal@23@VNonTrackingAllocator@cloth@nv@@$00@internal@shdfnd@physx@@QEAA@IM@Z 00000001800e7ba0 f i ClothFabricCooker.obj
 0001:000e6c10       ??0?$HashMap@V?$Pair@II@shdfnd@physx@@UEdge@?A0x257d6abb@cloth@nv@@U?$Hash@V?$Pair@II@shdfnd@physx@@@23@VNonTrackingAllocator@67@@shdfnd@physx@@QEAA@IM@Z 00000001800e7c10 f i ClothFabricCooker.obj
 0001:000e6c70       ??0?$HashMapBase@V?$Pair@II@shdfnd@physx@@UEdge@?A0x257d6abb@cloth@nv@@U?$Hash@V?$Pair@II@shdfnd@physx@@@23@VNonTrackingAllocator@67@@internal@shdfnd@physx@@QEAA@IM@Z 00000001800e7c70 f i ClothFabricCooker.obj
 0001:000e6cd0       ??0?$Pair@$$CBV?$Pair@II@shdfnd@physx@@UEdge@?A0x257d6abb@cloth@nv@@@shdfnd@physx@@QEAA@AEBV012@@Z 00000001800e7cd0 f i ClothFabricCooker.obj
 0001:000e6d50       ??0?$Pair@$$CBV?$Pair@II@shdfnd@physx@@UEdge@?A0x257d6abb@cloth@nv@@@shdfnd@physx@@QEAA@AEBV?$Pair@II@12@AEBUEdge@?A0x257d6abb@cloth@nv@@@Z 00000001800e7d50 f i ClothFabricCooker.obj
 0001:000e6dd0       ??0?$Pair@II@shdfnd@physx@@QEAA@AEBI0@Z 00000001800e7dd0 f i ClothFabricCooker.obj
 0001:000e6e20       ??0?$Pair@II@shdfnd@physx@@QEAA@AEBV012@@Z 00000001800e7e20 f i ClothFabricCooker.obj
 0001:000e6e60       ??0?$Pair@V?$Pair@II@shdfnd@physx@@W4Enum@ClothFabricPhaseType@cloth@nv@@@shdfnd@physx@@QEAA@AEBV012@@Z 00000001800e7e60 f i ClothFabricCooker.obj
 0001:000e6ed0       ??0?$Pair@V?$Pair@II@shdfnd@physx@@W4Enum@ClothFabricPhaseType@cloth@nv@@@shdfnd@physx@@QEAA@AEBV?$Pair@II@12@AEBW4Enum@ClothFabricPhaseType@cloth@nv@@@Z 00000001800e7ed0 f i ClothFabricCooker.obj
 0001:000e6f40       ??0?$PxStrideIterator@$$CBG@physx@@QEAA@PEBGI@Z 00000001800e7f40 f i ClothFabricCooker.obj
 0001:000e7020       ??0?$PxStrideIterator@$$CBI@physx@@QEAA@PEBII@Z 00000001800e8020 f i ClothFabricCooker.obj
 0001:000e7100       ??0?$PxStrideIterator@$$CBM@physx@@QEAA@PEBMI@Z 00000001800e8100 f i ClothFabricCooker.obj
 0001:000e71e0       ??0?$PxStrideIterator@$$CBVPxVec3@physx@@@physx@@QEAA@PEBVPxVec3@1@I@Z 00000001800e81e0 f i ClothFabricCooker.obj
 0001:000e72c0       ??0?$Range@$$CBH@cloth@nv@@QEAA@PEBH0@Z 00000001800e82c0 f i ClothFabricCooker.obj
 0001:000e7300       ??0?$Range@$$CBH@cloth@nv@@QEAA@XZ 00000001800e8300 f i ClothFabricCooker.obj
 0001:000e7330       ??0?$Range@$$CBI@cloth@nv@@QEAA@XZ 00000001800e8330 f i ClothFabricCooker.obj
 0001:000e7360       ??0?$Range@$$CBM@cloth@nv@@QEAA@PEBM0@Z 00000001800e8360 f i ClothFabricCooker.obj
 0001:000e73a0       ??0?$Range@$$CBM@cloth@nv@@QEAA@XZ 00000001800e83a0 f i ClothFabricCooker.obj
 0001:000e73d0       ??0ClothFabricCooker@cloth@nv@@QEAA@AEBV012@@Z 00000001800e83d0 f i ClothFabricCooker.obj
 0001:000e7450       ??0ClothFabricCooker@cloth@nv@@QEAA@XZ 00000001800e8450 f i ClothFabricCooker.obj
 0001:000e7480       ??0ClothFabricDesc@cloth@nv@@QEAA@XZ 00000001800e8480 f i ClothFabricCooker.obj
 0001:000e74c0       ??0ClothFabricPhase@cloth@nv@@QEAA@W4Enum@ClothFabricPhaseType@12@I@Z 00000001800e84c0 f i ClothFabricCooker.obj
 0001:000e7570       ??0CookedData@cloth@nv@@QEAA@XZ 00000001800e8570 f i ClothFabricCooker.obj
 0001:000e76b0       ??0FabricCookerImpl@cloth@nv@@QEAA@XZ 00000001800e86b0 f i ClothFabricCooker.obj
 0001:000e7880       ??0Iter@?$HashBase@V?$Pair@$$CBV?$Pair@II@shdfnd@physx@@UEdge@?A0x257d6abb@cloth@nv@@@shdfnd@physx@@V?$Pair@II@23@U?$Hash@V?$Pair@II@shdfnd@physx@@@23@UGetKey@?$HashMapBase@V?$Pair@II@shdfnd@physx@@UEdge@?A0x257d6abb@cloth@nv@@U?$Hash@V?$Pair@II@shdfnd@physx@@@23@VNonTrackingAllocator@67@@internal@23@VNonTrackingAllocator@cloth@nv@@$00@internal@shdfnd@physx@@QEAA@AEAV1234@@Z 00000001800e8880 f i ClothFabricCooker.obj
 0001:000e7950       ??1?$Array@UClothFabricPhase@cloth@nv@@VNonTrackingAllocator@23@@shdfnd@physx@@QEAA@XZ 00000001800e8950 f i ClothFabricCooker.obj
 0001:000e79f0       ??1?$Array@UConstraintGraphColorCount@?A0x257d6abb@cloth@nv@@VNonTrackingAllocator@34@@shdfnd@physx@@QEAA@XZ 00000001800e89f0 f i ClothFabricCooker.obj
 0001:000e7a90       ??1?$Array@V?$Pair@V?$Pair@II@shdfnd@physx@@W4Enum@ClothFabricPhaseType@cloth@nv@@@shdfnd@physx@@VNonTrackingAllocator@cloth@nv@@@shdfnd@physx@@QEAA@XZ 00000001800e8a90 f i ClothFabricCooker.obj
 0001:000e7b30       ??1?$Array@W4Enum@ClothFabricPhaseType@cloth@nv@@VNonTrackingAllocator@34@@shdfnd@physx@@QEAA@XZ 00000001800e8b30 f i ClothFabricCooker.obj
 0001:000e7bd0       ??1?$HashBase@V?$Pair@$$CBV?$Pair@II@shdfnd@physx@@UEdge@?A0x257d6abb@cloth@nv@@@shdfnd@physx@@V?$Pair@II@23@U?$Hash@V?$Pair@II@shdfnd@physx@@@23@UGetKey@?$HashMapBase@V?$Pair@II@shdfnd@physx@@UEdge@?A0x257d6abb@cloth@nv@@U?$Hash@V?$Pair@II@shdfnd@physx@@@23@VNonTrackingAllocator@67@@internal@23@VNonTrackingAllocator@cloth@nv@@$00@internal@shdfnd@physx@@QEAA@XZ 00000001800e8bd0 f i ClothFabricCooker.obj
 0001:000e7c30       ??1?$HashMap@V?$Pair@II@shdfnd@physx@@UEdge@?A0x257d6abb@cloth@nv@@U?$Hash@V?$Pair@II@shdfnd@physx@@@23@VNonTrackingAllocator@67@@shdfnd@physx@@QEAA@XZ 00000001800e8c30 f i ClothFabricCooker.obj
 0001:000e7c70       ??1?$HashMapBase@V?$Pair@II@shdfnd@physx@@UEdge@?A0x257d6abb@cloth@nv@@U?$Hash@V?$Pair@II@shdfnd@physx@@@23@VNonTrackingAllocator@67@@internal@shdfnd@physx@@QEAA@XZ 00000001800e8c70 f i ClothFabricCooker.obj
 0001:000e7cb0       ??1ClothFabricCooker@cloth@nv@@UEAA@XZ 00000001800e8cb0 f i ClothFabricCooker.obj
 0001:000e7cd0       ??1FabricCookerImpl@cloth@nv@@UEAA@XZ 00000001800e8cd0 f i ClothFabricCooker.obj
 0001:000e7df0       ??4?$Array@IVNonTrackingAllocator@cloth@nv@@@shdfnd@physx@@QEAAAEAV012@AEBV012@@Z 00000001800e8df0 f i ClothFabricCooker.obj
 0001:000e7e40       ??4?$Array@MVNonTrackingAllocator@cloth@nv@@@shdfnd@physx@@QEAAAEAV012@AEBV012@@Z 00000001800e8e40 f i ClothFabricCooker.obj
 0001:000e7e90       ??4ClothFabricCooker@cloth@nv@@QEAAAEAV012@AEBV012@@Z 00000001800e8e90 f i ClothFabricCooker.obj
 0001:000e7eb0       ??8?$Pair@II@shdfnd@physx@@QEBA_NAEBV012@@Z 00000001800e8eb0 f i ClothFabricCooker.obj
 0001:000e7f30       ??A?$Array@HVNonTrackingAllocator@cloth@nv@@@shdfnd@physx@@QEAAAEAHI@Z 00000001800e8f30 f i ClothFabricCooker.obj
 0001:000e7ff0       ??A?$Array@UClothFabricPhase@cloth@nv@@VNonTrackingAllocator@23@@shdfnd@physx@@QEAAAEAUClothFabricPhase@cloth@nv@@I@Z 00000001800e8ff0 f i ClothFabricCooker.obj
 0001:000e80b0       ??A?$Array@V?$Pair@V?$Pair@II@shdfnd@physx@@W4Enum@ClothFabricPhaseType@cloth@nv@@@shdfnd@physx@@VNonTrackingAllocator@cloth@nv@@@shdfnd@physx@@QEAAAEAV?$Pair@V?$Pair@II@shdfnd@physx@@W4Enum@ClothFabricPhaseType@cloth@nv@@@12@I@Z 00000001800e90b0 f i ClothFabricCooker.obj
 0001:000e8170       ??A?$Array@W4Enum@ClothFabricPhaseType@cloth@nv@@VNonTrackingAllocator@34@@shdfnd@physx@@QEAAAEAW4Enum@ClothFabricPhaseType@cloth@nv@@I@Z 00000001800e9170 f i ClothFabricCooker.obj
 0001:000e8230       ??A?$Array@W4Enum@ClothFabricPhaseType@cloth@nv@@VNonTrackingAllocator@34@@shdfnd@physx@@QEBAAEBW4Enum@ClothFabricPhaseType@cloth@nv@@I@Z 00000001800e9230 f i ClothFabricCooker.obj
 0001:000e82f0       ??A?$HashMapBase@V?$Pair@II@shdfnd@physx@@UEdge@?A0x257d6abb@cloth@nv@@U?$Hash@V?$Pair@II@shdfnd@physx@@@23@VNonTrackingAllocator@67@@internal@shdfnd@physx@@QEAAAEAUEdge@?A0x257d6abb@cloth@nv@@AEBV?$Pair@II@23@@Z 00000001800e92f0 f i ClothFabricCooker.obj
 0001:000e83e0       ??A?$PxStrideIterator@$$CBM@physx@@QEBAAEBMI@Z 00000001800e93e0 f i ClothFabricCooker.obj
 0001:000e8440       ??A?$Range@$$CBH@cloth@nv@@QEBAAEBHI@Z 00000001800e9440 f i ClothFabricCooker.obj
 0001:000e8500       ??CIter@?$HashBase@V?$Pair@$$CBV?$Pair@II@shdfnd@physx@@UEdge@?A0x257d6abb@cloth@nv@@@shdfnd@physx@@V?$Pair@II@23@U?$Hash@V?$Pair@II@shdfnd@physx@@@23@UGetKey@?$HashMapBase@V?$Pair@II@shdfnd@physx@@UEdge@?A0x257d6abb@cloth@nv@@U?$Hash@V?$Pair@II@shdfnd@physx@@@23@VNonTrackingAllocator@67@@internal@23@VNonTrackingAllocator@cloth@nv@@$00@internal@shdfnd@physx@@QEAAPEAV?$Pair@$$CBV?$Pair@II@shdfnd@physx@@UEdge@?A0x257d6abb@cloth@nv@@@34@XZ 00000001800e9500 f i ClothFabricCooker.obj
 0001:000e8560       ??D?$PxStrideIterator@$$CBM@physx@@QEBAAEBMXZ 00000001800e9560 f i ClothFabricCooker.obj
 0001:000e8580       ??D?$PxStrideIterator@$$CBVPxVec3@physx@@@physx@@QEBAAEBVPxVec3@1@XZ 00000001800e9580 f i ClothFabricCooker.obj
 0001:000e85a0       ??E?$PxStrideIterator@$$CBG@physx@@QEAAAEAV01@XZ 00000001800e95a0 f i ClothFabricCooker.obj
 0001:000e8600       ??E?$PxStrideIterator@$$CBI@physx@@QEAAAEAV01@XZ 00000001800e9600 f i ClothFabricCooker.obj
 0001:000e8660       ??E?$PxStrideIterator@$$CBM@physx@@QEAA?AV01@H@Z 00000001800e9660 f i ClothFabricCooker.obj
 0001:000e8720       ??E?$PxStrideIterator@$$CBVPxVec3@physx@@@physx@@QEAA?AV01@H@Z 00000001800e9720 f i ClothFabricCooker.obj
 0001:000e87e0       ??EIter@?$HashBase@V?$Pair@$$CBV?$Pair@II@shdfnd@physx@@UEdge@?A0x257d6abb@cloth@nv@@@shdfnd@physx@@V?$Pair@II@23@U?$Hash@V?$Pair@II@shdfnd@physx@@@23@UGetKey@?$HashMapBase@V?$Pair@II@shdfnd@physx@@UEdge@?A0x257d6abb@cloth@nv@@U?$Hash@V?$Pair@II@shdfnd@physx@@@23@VNonTrackingAllocator@67@@internal@23@VNonTrackingAllocator@cloth@nv@@$00@internal@shdfnd@physx@@QEAA?AV01234@XZ 00000001800e97e0 f i ClothFabricCooker.obj
 0001:000e88c0       ??R?$Hash@V?$Pair@II@shdfnd@physx@@@shdfnd@physx@@QEBAIAEBV?$Pair@II@12@@Z 00000001800e98c0 f i ClothFabricCooker.obj
 0001:000e8a10       ??RGetKey@?$HashMapBase@V?$Pair@II@shdfnd@physx@@UEdge@?A0x257d6abb@cloth@nv@@U?$Hash@V?$Pair@II@shdfnd@physx@@@23@VNonTrackingAllocator@67@@internal@shdfnd@physx@@QEAAAEBV?$Pair@II@34@AEBV?$Pair@$$CBV?$Pair@II@shdfnd@physx@@UEdge@?A0x257d6abb@cloth@nv@@@34@@Z 00000001800e9a10 f i ClothFabricCooker.obj
 0001:000e8a30       ??_EClothFabricCooker@cloth@nv@@UEAAPEAXI@Z 00000001800e9a30 f i ClothFabricCooker.obj
 0001:000e8b60       ??_GClothFabricCooker@cloth@nv@@UEAAPEAXI@Z 00000001800e9b60 f i ClothFabricCooker.obj
 0001:000e8bf0       ??_GFabricCookerImpl@cloth@nv@@UEAAPEAXI@Z 00000001800e9bf0 f i ClothFabricCooker.obj
 0001:000e8bf0       ??_EFabricCookerImpl@cloth@nv@@UEAAPEAXI@Z 00000001800e9bf0 f i ClothFabricCooker.obj
 0001:000e8c80       ??_I@YAXPEAX_K1P6AX0@Z@Z   00000001800e9c80 f i ClothFabricCooker.obj
 0001:000e8d50       ??_VUserAllocated@cloth@nv@@SAXPEAX@Z 00000001800e9d50 f i ClothFabricCooker.obj
 0001:000e8db0       ?PxRecipSqrt@physx@@YAMM@Z 00000001800e9db0 f i ClothFabricCooker.obj
 0001:000e8df0       ?__global_array_delete@@YAXPEAX@Z 00000001800e9df0 f i ClothFabricCooker.obj
 0001:000e8e30       ?__global_array_delete@@YAXPEAX_K@Z 00000001800e9e30 f i ClothFabricCooker.obj
 0001:000e8e80       ?__global_delete@@YAXPEAX@Z 00000001800e9e80 f i ClothFabricCooker.obj
 0001:000e8ec0       ?__global_delete@@YAXPEAX_K@Z 00000001800e9ec0 f i ClothFabricCooker.obj
 0001:000e8f10       ?advance@Iter@?$HashBase@V?$Pair@$$CBV?$Pair@II@shdfnd@physx@@UEdge@?A0x257d6abb@cloth@nv@@@shdfnd@physx@@V?$Pair@II@23@U?$Hash@V?$Pair@II@shdfnd@physx@@@23@UGetKey@?$HashMapBase@V?$Pair@II@shdfnd@physx@@UEdge@?A0x257d6abb@cloth@nv@@U?$Hash@V?$Pair@II@shdfnd@physx@@@23@VNonTrackingAllocator@67@@internal@23@VNonTrackingAllocator@cloth@nv@@$00@internal@shdfnd@physx@@AEAAXXZ 00000001800e9f10 f i ClothFabricCooker.obj
 0001:000e8f80       ?allocate@?$Array@HVNonTrackingAllocator@cloth@nv@@@shdfnd@physx@@IEAAPEAHI@Z 00000001800e9f80 f i ClothFabricCooker.obj
 0001:000e9050       ?allocate@?$Array@UClothFabricPhase@cloth@nv@@VNonTrackingAllocator@23@@shdfnd@physx@@IEAAPEAUClothFabricPhase@cloth@nv@@I@Z 00000001800ea050 f i ClothFabricCooker.obj
 0001:000e9120       ?allocate@?$Array@UConstraintGraphColorCount@?A0x257d6abb@cloth@nv@@VNonTrackingAllocator@34@@shdfnd@physx@@IEAAPEAUConstraintGraphColorCount@?A0x257d6abb@cloth@nv@@I@Z 00000001800ea120 f i ClothFabricCooker.obj
 0001:000e91f0       ?allocate@?$Array@V?$Pair@V?$Pair@II@shdfnd@physx@@W4Enum@ClothFabricPhaseType@cloth@nv@@@shdfnd@physx@@VNonTrackingAllocator@cloth@nv@@@shdfnd@physx@@IEAAPEAV?$Pair@V?$Pair@II@shdfnd@physx@@W4Enum@ClothFabricPhaseType@cloth@nv@@@23@I@Z 00000001800ea1f0 f i ClothFabricCooker.obj
 0001:000e92c0       ?allocate@?$Array@W4Enum@ClothFabricPhaseType@cloth@nv@@VNonTrackingAllocator@34@@shdfnd@physx@@IEAAPEAW4Enum@ClothFabricPhaseType@cloth@nv@@I@Z 00000001800ea2c0 f i ClothFabricCooker.obj
 0001:000e9390       ?begin@?$Array@MVNonTrackingAllocator@cloth@nv@@@shdfnd@physx@@QEBAPEBMXZ 00000001800ea390 f i ClothFabricCooker.obj
 0001:000e93b0       ?begin@?$Array@UClothFabricPhase@cloth@nv@@VNonTrackingAllocator@23@@shdfnd@physx@@QEAAPEAUClothFabricPhase@cloth@nv@@XZ 00000001800ea3b0 f i ClothFabricCooker.obj
 0001:000e93d0       ?begin@?$Array@UConstraintGraphColorCount@?A0x257d6abb@cloth@nv@@VNonTrackingAllocator@34@@shdfnd@physx@@QEAAPEAUConstraintGraphColorCount@?A0x257d6abb@cloth@nv@@XZ 00000001800ea3d0 f i ClothFabricCooker.obj
 0001:000e93f0       ?begin@?$Array@W4Enum@ClothFabricPhaseType@cloth@nv@@VNonTrackingAllocator@34@@shdfnd@physx@@QEBAPEBW4Enum@ClothFabricPhaseType@cloth@nv@@XZ 00000001800ea3f0 f i ClothFabricCooker.obj
 0001:000e9410       ?byteAdd@?$PxStrideIterator@$$CBG@physx@@CAPEBGPEBGI@Z 00000001800ea410 f i ClothFabricCooker.obj
 0001:000e9440       ?byteAdd@?$PxStrideIterator@$$CBI@physx@@CAPEBIPEBII@Z 00000001800ea440 f i ClothFabricCooker.obj
 0001:000e9470       ?byteAdd@?$PxStrideIterator@$$CBM@physx@@CAPEBMPEBMI@Z 00000001800ea470 f i ClothFabricCooker.obj
 0001:000e94a0       ?byteAdd@?$PxStrideIterator@$$CBVPxVec3@physx@@@physx@@CAPEBVPxVec3@2@PEBV32@I@Z 00000001800ea4a0 f i ClothFabricCooker.obj
 0001:000e94d0       ?capacity@?$Array@HVNonTrackingAllocator@cloth@nv@@@shdfnd@physx@@QEBAIXZ 00000001800ea4d0 f i ClothFabricCooker.obj
 0001:000e94f0       ?capacity@?$Array@UClothFabricPhase@cloth@nv@@VNonTrackingAllocator@23@@shdfnd@physx@@QEBAIXZ 00000001800ea4f0 f i ClothFabricCooker.obj
 0001:000e9510       ?capacity@?$Array@UConstraintGraphColorCount@?A0x257d6abb@cloth@nv@@VNonTrackingAllocator@34@@shdfnd@physx@@QEBAIXZ 00000001800ea510 f i ClothFabricCooker.obj
 0001:000e9530       ?capacity@?$Array@V?$Pair@V?$Pair@II@shdfnd@physx@@W4Enum@ClothFabricPhaseType@cloth@nv@@@shdfnd@physx@@VNonTrackingAllocator@cloth@nv@@@shdfnd@physx@@QEBAIXZ 00000001800ea530 f i ClothFabricCooker.obj
 0001:000e9550       ?capacity@?$Array@W4Enum@ClothFabricPhaseType@cloth@nv@@VNonTrackingAllocator@34@@shdfnd@physx@@QEBAIXZ 00000001800ea550 f i ClothFabricCooker.obj
 0001:000e9570       ?capacityIncrement@?$Array@UConstraintGraphColorCount@?A0x257d6abb@cloth@nv@@VNonTrackingAllocator@34@@shdfnd@physx@@IEBAIXZ 00000001800ea570 f i ClothFabricCooker.obj
 0001:000e95e0       ?capacityIncrement@?$Array@V?$Pair@V?$Pair@II@shdfnd@physx@@W4Enum@ClothFabricPhaseType@cloth@nv@@@shdfnd@physx@@VNonTrackingAllocator@cloth@nv@@@shdfnd@physx@@IEBAIXZ 00000001800ea5e0 f i ClothFabricCooker.obj
 0001:000e9650       ?capacityIncrement@?$Array@W4Enum@ClothFabricPhaseType@cloth@nv@@VNonTrackingAllocator@34@@shdfnd@physx@@IEBAIXZ 00000001800ea650 f i ClothFabricCooker.obj
 0001:000e96c0       ?check@Iter@?$HashBase@V?$Pair@$$CBV?$Pair@II@shdfnd@physx@@UEdge@?A0x257d6abb@cloth@nv@@@shdfnd@physx@@V?$Pair@II@23@U?$Hash@V?$Pair@II@shdfnd@physx@@@23@UGetKey@?$HashMapBase@V?$Pair@II@shdfnd@physx@@UEdge@?A0x257d6abb@cloth@nv@@U?$Hash@V?$Pair@II@shdfnd@physx@@@23@VNonTrackingAllocator@67@@internal@23@VNonTrackingAllocator@cloth@nv@@$00@internal@shdfnd@physx@@QEBAXXZ 00000001800ea6c0 f i ClothFabricCooker.obj
 0001:000e9970       ?clear@?$Array@IVNonTrackingAllocator@cloth@nv@@@shdfnd@physx@@QEAAXXZ 00000001800ea970 f i ClothFabricCooker.obj
 0001:000e99e0       ?clear@?$Array@MVNonTrackingAllocator@cloth@nv@@@shdfnd@physx@@QEAAXXZ 00000001800ea9e0 f i ClothFabricCooker.obj
 0001:000e9a50       ?clear@?$Array@UConstraintGraphColorCount@?A0x257d6abb@cloth@nv@@VNonTrackingAllocator@34@@shdfnd@physx@@QEAAXXZ 00000001800eaa50 f i ClothFabricCooker.obj
 0001:000e9ac0       ?copy@?$Array@HVNonTrackingAllocator@cloth@nv@@@shdfnd@physx@@KAXPEAH0PEBH@Z 00000001800eaac0 f i ClothFabricCooker.obj
 0001:000e9b90       ?copy@?$Array@UClothFabricPhase@cloth@nv@@VNonTrackingAllocator@23@@shdfnd@physx@@KAXPEAUClothFabricPhase@cloth@nv@@0PEBU456@@Z 00000001800eab90 f i ClothFabricCooker.obj
 0001:000e9c70       ?copy@?$Array@UConstraintGraphColorCount@?A0x257d6abb@cloth@nv@@VNonTrackingAllocator@34@@shdfnd@physx@@KAXPEAUConstraintGraphColorCount@?A0x257d6abb@cloth@nv@@0PEBU4567@@Z 00000001800eac70 f i ClothFabricCooker.obj
 0001:000e9d50       ?copy@?$Array@V?$Pair@V?$Pair@II@shdfnd@physx@@W4Enum@ClothFabricPhaseType@cloth@nv@@@shdfnd@physx@@VNonTrackingAllocator@cloth@nv@@@shdfnd@physx@@KAXPEAV?$Pair@V?$Pair@II@shdfnd@physx@@W4Enum@ClothFabricPhaseType@cloth@nv@@@23@0PEBV423@@Z 00000001800ead50 f i ClothFabricCooker.obj
 0001:000e9e20       ?copy@?$Array@W4Enum@ClothFabricPhaseType@cloth@nv@@VNonTrackingAllocator@34@@shdfnd@physx@@KAXPEAW4Enum@ClothFabricPhaseType@cloth@nv@@0PEBW44567@@Z 00000001800eae20 f i ClothFabricCooker.obj
 0001:000e9ef0       ?create@?$Array@HVNonTrackingAllocator@cloth@nv@@@shdfnd@physx@@KAXPEAH0AEBH@Z 00000001800eaef0 f i ClothFabricCooker.obj
 0001:000e9fa0       ?create@?$Array@UClothFabricPhase@cloth@nv@@VNonTrackingAllocator@23@@shdfnd@physx@@KAXPEAUClothFabricPhase@cloth@nv@@0AEBU456@@Z 00000001800eafa0 f i ClothFabricCooker.obj
 0001:000ea050       ?create@?$HashBase@V?$Pair@$$CBV?$Pair@II@shdfnd@physx@@UEdge@?A0x257d6abb@cloth@nv@@@shdfnd@physx@@V?$Pair@II@23@U?$Hash@V?$Pair@II@shdfnd@physx@@@23@UGetKey@?$HashMapBase@V?$Pair@II@shdfnd@physx@@UEdge@?A0x257d6abb@cloth@nv@@U?$Hash@V?$Pair@II@shdfnd@physx@@@23@VNonTrackingAllocator@67@@internal@23@VNonTrackingAllocator@cloth@nv@@$00@internal@shdfnd@physx@@QEAAPEAV?$Pair@$$CBV?$Pair@II@shdfnd@physx@@UEdge@?A0x257d6abb@cloth@nv@@@34@AEBV?$Pair@II@34@AEA_N@Z 00000001800eb050 f i ClothFabricCooker.obj
 0001:000ea280       ?cross@PxVec3@physx@@QEBA?AV12@AEBV12@@Z 00000001800eb280 f i ClothFabricCooker.obj
 0001:000ea390       ?deallocate@?$Array@HVNonTrackingAllocator@cloth@nv@@@shdfnd@physx@@IEAAXPEAX@Z 00000001800eb390 f i ClothFabricCooker.obj
 0001:000ea3e0       ?deallocate@?$Array@UClothFabricPhase@cloth@nv@@VNonTrackingAllocator@23@@shdfnd@physx@@IEAAXPEAX@Z 00000001800eb3e0 f i ClothFabricCooker.obj
 0001:000ea430       ?deallocate@?$Array@UConstraintGraphColorCount@?A0x257d6abb@cloth@nv@@VNonTrackingAllocator@34@@shdfnd@physx@@IEAAXPEAX@Z 00000001800eb430 f i ClothFabricCooker.obj
 0001:000ea480       ?deallocate@?$Array@V?$Pair@V?$Pair@II@shdfnd@physx@@W4Enum@ClothFabricPhaseType@cloth@nv@@@shdfnd@physx@@VNonTrackingAllocator@cloth@nv@@@shdfnd@physx@@IEAAXPEAX@Z 00000001800eb480 f i ClothFabricCooker.obj
 0001:000ea4d0       ?deallocate@?$Array@W4Enum@ClothFabricPhaseType@cloth@nv@@VNonTrackingAllocator@34@@shdfnd@physx@@IEAAXPEAX@Z 00000001800eb4d0 f i ClothFabricCooker.obj
 0001:000ea520       ?destroy@?$Array@HVNonTrackingAllocator@cloth@nv@@@shdfnd@physx@@KAXPEAH0@Z 00000001800eb520 f i ClothFabricCooker.obj
 0001:000ea560       ?destroy@?$Array@UClothFabricPhase@cloth@nv@@VNonTrackingAllocator@23@@shdfnd@physx@@KAXPEAUClothFabricPhase@cloth@nv@@0@Z 00000001800eb560 f i ClothFabricCooker.obj
 0001:000ea5a0       ?destroy@?$Array@UConstraintGraphColorCount@?A0x257d6abb@cloth@nv@@VNonTrackingAllocator@34@@shdfnd@physx@@KAXPEAUConstraintGraphColorCount@?A0x257d6abb@cloth@nv@@0@Z 00000001800eb5a0 f i ClothFabricCooker.obj
 0001:000ea5e0       ?destroy@?$Array@V?$Pair@V?$Pair@II@shdfnd@physx@@W4Enum@ClothFabricPhaseType@cloth@nv@@@shdfnd@physx@@VNonTrackingAllocator@cloth@nv@@@shdfnd@physx@@KAXPEAV?$Pair@V?$Pair@II@shdfnd@physx@@W4Enum@ClothFabricPhaseType@cloth@nv@@@23@0@Z 00000001800eb5e0 f i ClothFabricCooker.obj
 0001:000ea620       ?destroy@?$Array@W4Enum@ClothFabricPhaseType@cloth@nv@@VNonTrackingAllocator@34@@shdfnd@physx@@KAXPEAW4Enum@ClothFabricPhaseType@cloth@nv@@0@Z 00000001800eb620 f i ClothFabricCooker.obj
 0001:000ea660       ?destroy@?$HashBase@V?$Pair@$$CBV?$Pair@II@shdfnd@physx@@UEdge@?A0x257d6abb@cloth@nv@@@shdfnd@physx@@V?$Pair@II@23@U?$Hash@V?$Pair@II@shdfnd@physx@@@23@UGetKey@?$HashMapBase@V?$Pair@II@shdfnd@physx@@UEdge@?A0x257d6abb@cloth@nv@@U?$Hash@V?$Pair@II@shdfnd@physx@@@23@VNonTrackingAllocator@67@@internal@23@VNonTrackingAllocator@cloth@nv@@$00@internal@shdfnd@physx@@AEAAXXZ 00000001800eb660 f i ClothFabricCooker.obj
 0001:000ea700       ?done@Iter@?$HashBase@V?$Pair@$$CBV?$Pair@II@shdfnd@physx@@UEdge@?A0x257d6abb@cloth@nv@@@shdfnd@physx@@V?$Pair@II@23@U?$Hash@V?$Pair@II@shdfnd@physx@@@23@UGetKey@?$HashMapBase@V?$Pair@II@shdfnd@physx@@UEdge@?A0x257d6abb@cloth@nv@@U?$Hash@V?$Pair@II@shdfnd@physx@@@23@VNonTrackingAllocator@67@@internal@23@VNonTrackingAllocator@cloth@nv@@$00@internal@shdfnd@physx@@QEBA_NXZ 00000001800eb700 f i ClothFabricCooker.obj
 0001:000ea770       ?dot@PxVec3@physx@@QEBAMAEBV12@@Z 00000001800eb770 f i ClothFabricCooker.obj
 0001:000ea800       ?empty@?$Array@UConstraintGraphColorCount@?A0x257d6abb@cloth@nv@@VNonTrackingAllocator@34@@shdfnd@physx@@QEBA_NXZ 00000001800eb800 f i ClothFabricCooker.obj
 0001:000ea860       ?end@?$Array@MVNonTrackingAllocator@cloth@nv@@@shdfnd@physx@@QEBAPEBMXZ 00000001800eb860 f i ClothFabricCooker.obj
 0001:000ea890       ?end@?$Array@UConstraintGraphColorCount@?A0x257d6abb@cloth@nv@@VNonTrackingAllocator@34@@shdfnd@physx@@QEAAPEAUConstraintGraphColorCount@?A0x257d6abb@cloth@nv@@XZ 00000001800eb890 f i ClothFabricCooker.obj
 0001:000ea8c0       ?end@?$Array@W4Enum@ClothFabricPhaseType@cloth@nv@@VNonTrackingAllocator@34@@shdfnd@physx@@QEBAPEBW4Enum@ClothFabricPhaseType@cloth@nv@@XZ 00000001800eb8c0 f i ClothFabricCooker.obj
 0001:000ea8f0       ?equal@?$Hash@V?$Pair@II@shdfnd@physx@@@shdfnd@physx@@QEBA_NAEBV?$Pair@II@23@0@Z 00000001800eb8f0 f i ClothFabricCooker.obj
 0001:000ea940       ?freeListAdd@?$HashBase@V?$Pair@$$CBV?$Pair@II@shdfnd@physx@@UEdge@?A0x257d6abb@cloth@nv@@@shdfnd@physx@@V?$Pair@II@23@U?$Hash@V?$Pair@II@shdfnd@physx@@@23@UGetKey@?$HashMapBase@V?$Pair@II@shdfnd@physx@@UEdge@?A0x257d6abb@cloth@nv@@U?$Hash@V?$Pair@II@shdfnd@physx@@@23@VNonTrackingAllocator@67@@internal@23@VNonTrackingAllocator@cloth@nv@@$00@internal@shdfnd@physx@@AEAAXII@Z 00000001800eb940 f i ClothFabricCooker.obj
 0001:000eaa90       ?freeListEmpty@?$HashBase@V?$Pair@$$CBV?$Pair@II@shdfnd@physx@@UEdge@?A0x257d6abb@cloth@nv@@@shdfnd@physx@@V?$Pair@II@23@U?$Hash@V?$Pair@II@shdfnd@physx@@@23@UGetKey@?$HashMapBase@V?$Pair@II@shdfnd@physx@@UEdge@?A0x257d6abb@cloth@nv@@U?$Hash@V?$Pair@II@shdfnd@physx@@@23@VNonTrackingAllocator@67@@internal@23@VNonTrackingAllocator@cloth@nv@@$00@internal@shdfnd@physx@@AEBA_NXZ 00000001800eba90 f i ClothFabricCooker.obj
 0001:000eab30       ?freeListGetNext@?$HashBase@V?$Pair@$$CBV?$Pair@II@shdfnd@physx@@UEdge@?A0x257d6abb@cloth@nv@@@shdfnd@physx@@V?$Pair@II@23@U?$Hash@V?$Pair@II@shdfnd@physx@@@23@UGetKey@?$HashMapBase@V?$Pair@II@shdfnd@physx@@UEdge@?A0x257d6abb@cloth@nv@@U?$Hash@V?$Pair@II@shdfnd@physx@@@23@VNonTrackingAllocator@67@@internal@23@VNonTrackingAllocator@cloth@nv@@$00@internal@shdfnd@physx@@AEAAIXZ 00000001800ebb30 f i ClothFabricCooker.obj
 0001:000eacc0       ?getIterator@?$HashMap@V?$Pair@II@shdfnd@physx@@UEdge@?A0x257d6abb@cloth@nv@@U?$Hash@V?$Pair@II@shdfnd@physx@@@23@VNonTrackingAllocator@67@@shdfnd@physx@@QEAA?AVIter@?$HashBase@V?$Pair@$$CBV?$Pair@II@shdfnd@physx@@UEdge@?A0x257d6abb@cloth@nv@@@shdfnd@physx@@V?$Pair@II@23@U?$Hash@V?$Pair@II@shdfnd@physx@@@23@UGetKey@?$HashMapBase@V?$Pair@II@shdfnd@physx@@UEdge@?A0x257d6abb@cloth@nv@@U?$Hash@V?$Pair@II@shdfnd@physx@@@23@VNonTrackingAllocator@67@@internal@23@VNonTrackingAllocator@cloth@nv@@$00@internal@23@XZ 00000001800ebcc0 f i ClothFabricCooker.obj
 0001:000ead10       ?getNormalized@PxVec3@physx@@QEBA?AV12@XZ 00000001800ebd10 f i ClothFabricCooker.obj
 0001:000eade0       ?grow@?$Array@HVNonTrackingAllocator@cloth@nv@@@shdfnd@physx@@IEAAXI@Z 00000001800ebde0 f i ClothFabricCooker.obj
 0001:000eaea0       ?grow@?$Array@UClothFabricPhase@cloth@nv@@VNonTrackingAllocator@23@@shdfnd@physx@@IEAAXI@Z 00000001800ebea0 f i ClothFabricCooker.obj
 0001:000eaf60       ?grow@?$Array@UConstraintGraphColorCount@?A0x257d6abb@cloth@nv@@VNonTrackingAllocator@34@@shdfnd@physx@@IEAAXI@Z 00000001800ebf60 f i ClothFabricCooker.obj
 0001:000eb020       ?grow@?$Array@V?$Pair@V?$Pair@II@shdfnd@physx@@W4Enum@ClothFabricPhaseType@cloth@nv@@@shdfnd@physx@@VNonTrackingAllocator@cloth@nv@@@shdfnd@physx@@IEAAXI@Z 00000001800ec020 f i ClothFabricCooker.obj
 0001:000eb0e0       ?grow@?$HashBase@V?$Pair@$$CBV?$Pair@II@shdfnd@physx@@UEdge@?A0x257d6abb@cloth@nv@@@shdfnd@physx@@V?$Pair@II@23@U?$Hash@V?$Pair@II@shdfnd@physx@@@23@UGetKey@?$HashMapBase@V?$Pair@II@shdfnd@physx@@UEdge@?A0x257d6abb@cloth@nv@@U?$Hash@V?$Pair@II@shdfnd@physx@@@23@VNonTrackingAllocator@67@@internal@23@VNonTrackingAllocator@cloth@nv@@$00@internal@shdfnd@physx@@AEAAXXZ 00000001800ec0e0 f i ClothFabricCooker.obj
 0001:000eb1e0       ?growAndPushBack@?$Array@UConstraintGraphColorCount@?A0x257d6abb@cloth@nv@@VNonTrackingAllocator@34@@shdfnd@physx@@IEAAAEAUConstraintGraphColorCount@?A0x257d6abb@cloth@nv@@AEBU4567@@Z 00000001800ec1e0 f i ClothFabricCooker.obj
 0001:000eb400       ?growAndPushBack@?$Array@V?$Pair@V?$Pair@II@shdfnd@physx@@W4Enum@ClothFabricPhaseType@cloth@nv@@@shdfnd@physx@@VNonTrackingAllocator@cloth@nv@@@shdfnd@physx@@IEAAAEAV?$Pair@V?$Pair@II@shdfnd@physx@@W4Enum@ClothFabricPhaseType@cloth@nv@@@23@AEBV423@@Z 00000001800ec400 f i ClothFabricCooker.obj
 0001:000eb630       ?growAndPushBack@?$Array@W4Enum@ClothFabricPhaseType@cloth@nv@@VNonTrackingAllocator@34@@shdfnd@physx@@IEAAAEAW4Enum@ClothFabricPhaseType@cloth@nv@@AEBW44567@@Z 00000001800ec630 f i ClothFabricCooker.obj
 0001:000eb850       ?hash@?$HashBase@V?$Pair@$$CBV?$Pair@II@shdfnd@physx@@UEdge@?A0x257d6abb@cloth@nv@@@shdfnd@physx@@V?$Pair@II@23@U?$Hash@V?$Pair@II@shdfnd@physx@@@23@UGetKey@?$HashMapBase@V?$Pair@II@shdfnd@physx@@UEdge@?A0x257d6abb@cloth@nv@@U?$Hash@V?$Pair@II@shdfnd@physx@@@23@VNonTrackingAllocator@67@@internal@23@VNonTrackingAllocator@cloth@nv@@$00@internal@shdfnd@physx@@AEBAIAEBV?$Pair@II@34@@Z 00000001800ec850 f i ClothFabricCooker.obj
 0001:000eb8b0       ?hash@?$HashBase@V?$Pair@$$CBV?$Pair@II@shdfnd@physx@@UEdge@?A0x257d6abb@cloth@nv@@@shdfnd@physx@@V?$Pair@II@23@U?$Hash@V?$Pair@II@shdfnd@physx@@@23@UGetKey@?$HashMapBase@V?$Pair@II@shdfnd@physx@@UEdge@?A0x257d6abb@cloth@nv@@U?$Hash@V?$Pair@II@shdfnd@physx@@@23@VNonTrackingAllocator@67@@internal@23@VNonTrackingAllocator@cloth@nv@@$00@internal@shdfnd@physx@@AEBAIAEBV?$Pair@II@34@I@Z 00000001800ec8b0 f i ClothFabricCooker.obj
 0001:000eb910       ?hash@shdfnd@physx@@YAII@Z 00000001800ec910 f i ClothFabricCooker.obj
 0001:000eb9c0       ?init@?$HashBase@V?$Pair@$$CBV?$Pair@II@shdfnd@physx@@UEdge@?A0x257d6abb@cloth@nv@@@shdfnd@physx@@V?$Pair@II@23@U?$Hash@V?$Pair@II@shdfnd@physx@@@23@UGetKey@?$HashMapBase@V?$Pair@II@shdfnd@physx@@UEdge@?A0x257d6abb@cloth@nv@@U?$Hash@V?$Pair@II@shdfnd@physx@@@23@VNonTrackingAllocator@67@@internal@23@VNonTrackingAllocator@cloth@nv@@$00@internal@shdfnd@physx@@AEAAXIM@Z 00000001800ec9c0 f i ClothFabricCooker.obj
 0001:000ebac0       ?isInUserMemory@?$Array@HVNonTrackingAllocator@cloth@nv@@@shdfnd@physx@@QEBAIXZ 00000001800ecac0 f i ClothFabricCooker.obj
 0001:000ebae0       ?isInUserMemory@?$Array@UClothFabricPhase@cloth@nv@@VNonTrackingAllocator@23@@shdfnd@physx@@QEBAIXZ 00000001800ecae0 f i ClothFabricCooker.obj
 0001:000ebb00       ?isInUserMemory@?$Array@UConstraintGraphColorCount@?A0x257d6abb@cloth@nv@@VNonTrackingAllocator@34@@shdfnd@physx@@QEBAIXZ 00000001800ecb00 f i ClothFabricCooker.obj
 0001:000ebb20       ?isInUserMemory@?$Array@V?$Pair@V?$Pair@II@shdfnd@physx@@W4Enum@ClothFabricPhaseType@cloth@nv@@@shdfnd@physx@@VNonTrackingAllocator@cloth@nv@@@shdfnd@physx@@QEBAIXZ 00000001800ecb20 f i ClothFabricCooker.obj
 0001:000ebb40       ?isInUserMemory@?$Array@W4Enum@ClothFabricPhaseType@cloth@nv@@VNonTrackingAllocator@34@@shdfnd@physx@@QEBAIXZ 00000001800ecb40 f i ClothFabricCooker.obj
 0001:000ebb60       ?isPowerOfTwo@shdfnd@physx@@YA_NI@Z 00000001800ecb60 f i ClothFabricCooker.obj
 0001:000ebbd0       ?isValid@ClothMeshDesc@cloth@nv@@QEBA_NXZ 00000001800ecbd0 f i ClothFabricCooker.obj
 0001:000ebdf0       ?memSet@intrinsics@physx@@YAPEAXPEAXHI@Z 00000001800ecdf0 f i ClothFabricCooker.obj
 0001:000ebe50       ?nextPowerOfTwo@shdfnd@physx@@YAII@Z 00000001800ece50 f i ClothFabricCooker.obj
 0001:000ebee0       ?popBack@?$Array@UConstraintGraphColorCount@?A0x257d6abb@cloth@nv@@VNonTrackingAllocator@34@@shdfnd@physx@@QEAA?AUConstraintGraphColorCount@?A0x257d6abb@cloth@nv@@XZ 00000001800ecee0 f i ClothFabricCooker.obj
 0001:000ebff0       ?ptr@?$PxStrideIterator@$$CBG@physx@@QEBAPEBGXZ 00000001800ecff0 f i ClothFabricCooker.obj
 0001:000ec010       ?ptr@?$PxStrideIterator@$$CBI@physx@@QEBAPEBIXZ 00000001800ed010 f i ClothFabricCooker.obj
 0001:000ec030       ?ptr@?$PxStrideIterator@$$CBM@physx@@QEBAPEBMXZ 00000001800ed030 f i ClothFabricCooker.obj
 0001:000ec050       ?pushBack@?$Array@UConstraintGraphColorCount@?A0x257d6abb@cloth@nv@@VNonTrackingAllocator@34@@shdfnd@physx@@QEAAAEAUConstraintGraphColorCount@?A0x257d6abb@cloth@nv@@AEBU4567@@Z 00000001800ed050 f i ClothFabricCooker.obj
 0001:000ec160       ?pushBack@?$Array@V?$Pair@V?$Pair@II@shdfnd@physx@@W4Enum@ClothFabricPhaseType@cloth@nv@@@shdfnd@physx@@VNonTrackingAllocator@cloth@nv@@@shdfnd@physx@@QEAAAEAV?$Pair@V?$Pair@II@shdfnd@physx@@W4Enum@ClothFabricPhaseType@cloth@nv@@@23@AEBV423@@Z 00000001800ed160 f i ClothFabricCooker.obj
 0001:000ec260       ?pushBack@?$Array@W4Enum@ClothFabricPhaseType@cloth@nv@@VNonTrackingAllocator@34@@shdfnd@physx@@QEAAAEAW4Enum@ClothFabricPhaseType@cloth@nv@@AEBW44567@@Z 00000001800ed260 f i ClothFabricCooker.obj
 0001:000ec370       ?recipSqrt@intrinsics@physx@@YAMM@Z 00000001800ed370 f i ClothFabricCooker.obj
 0001:000ec3c0       ?recreate@?$Array@HVNonTrackingAllocator@cloth@nv@@@shdfnd@physx@@IEAAXI@Z 00000001800ed3c0 f i ClothFabricCooker.obj
 0001:000ec530       ?recreate@?$Array@UClothFabricPhase@cloth@nv@@VNonTrackingAllocator@23@@shdfnd@physx@@IEAAXI@Z 00000001800ed530 f i ClothFabricCooker.obj
 0001:000ec6a0       ?recreate@?$Array@UConstraintGraphColorCount@?A0x257d6abb@cloth@nv@@VNonTrackingAllocator@34@@shdfnd@physx@@IEAAXI@Z 00000001800ed6a0 f i ClothFabricCooker.obj
 0001:000ec810       ?recreate@?$Array@V?$Pair@V?$Pair@II@shdfnd@physx@@W4Enum@ClothFabricPhaseType@cloth@nv@@@shdfnd@physx@@VNonTrackingAllocator@cloth@nv@@@shdfnd@physx@@IEAAXI@Z 00000001800ed810 f i ClothFabricCooker.obj
 0001:000ec990       ?reserve@?$Array@HVNonTrackingAllocator@cloth@nv@@@shdfnd@physx@@QEAAXI@Z 00000001800ed990 f i ClothFabricCooker.obj
 0001:000ec9f0       ?reserve@?$Array@UClothFabricPhase@cloth@nv@@VNonTrackingAllocator@23@@shdfnd@physx@@QEAAXI@Z 00000001800ed9f0 f i ClothFabricCooker.obj
 0001:000eca50       ?reserve@?$Array@UConstraintGraphColorCount@?A0x257d6abb@cloth@nv@@VNonTrackingAllocator@34@@shdfnd@physx@@QEAAXI@Z 00000001800eda50 f i ClothFabricCooker.obj
 0001:000ecab0       ?reserve@?$Array@V?$Pair@V?$Pair@II@shdfnd@physx@@W4Enum@ClothFabricPhaseType@cloth@nv@@@shdfnd@physx@@VNonTrackingAllocator@cloth@nv@@@shdfnd@physx@@QEAAXI@Z 00000001800edab0 f i ClothFabricCooker.obj
 0001:000ecb10       ?reserve@?$HashBase@V?$Pair@$$CBV?$Pair@II@shdfnd@physx@@UEdge@?A0x257d6abb@cloth@nv@@@shdfnd@physx@@V?$Pair@II@23@U?$Hash@V?$Pair@II@shdfnd@physx@@@23@UGetKey@?$HashMapBase@V?$Pair@II@shdfnd@physx@@UEdge@?A0x257d6abb@cloth@nv@@U?$Hash@V?$Pair@II@shdfnd@physx@@@23@VNonTrackingAllocator@67@@internal@23@VNonTrackingAllocator@cloth@nv@@$00@internal@shdfnd@physx@@QEAAXI@Z 00000001800edb10 f i ClothFabricCooker.obj
 0001:000ecb70       ?reserveInternal@?$HashBase@V?$Pair@$$CBV?$Pair@II@shdfnd@physx@@UEdge@?A0x257d6abb@cloth@nv@@@shdfnd@physx@@V?$Pair@II@23@U?$Hash@V?$Pair@II@shdfnd@physx@@@23@UGetKey@?$HashMapBase@V?$Pair@II@shdfnd@physx@@UEdge@?A0x257d6abb@cloth@nv@@U?$Hash@V?$Pair@II@shdfnd@physx@@@23@VNonTrackingAllocator@67@@internal@23@VNonTrackingAllocator@cloth@nv@@$00@internal@shdfnd@physx@@AEAAXI@Z 00000001800edb70 f i ClothFabricCooker.obj
 0001:000ed280       ?resize@?$Array@HVNonTrackingAllocator@cloth@nv@@@shdfnd@physx@@QEAAXIAEBH@Z 00000001800ee280 f i ClothFabricCooker.obj
 0001:000ed350       ?resize@?$Array@UClothFabricPhase@cloth@nv@@VNonTrackingAllocator@23@@shdfnd@physx@@QEAAXIAEBUClothFabricPhase@cloth@nv@@@Z 00000001800ee350 f i ClothFabricCooker.obj
 0001:000ed420       ?setToDefault@ClothFabricDesc@cloth@nv@@QEAAXXZ 00000001800ee420 f i ClothFabricCooker.obj
 0001:000ed440       ?size@?$Array@V?$Pair@V?$Pair@II@shdfnd@physx@@W4Enum@ClothFabricPhaseType@cloth@nv@@@shdfnd@physx@@VNonTrackingAllocator@cloth@nv@@@shdfnd@physx@@QEBAIXZ 00000001800ee440 f i ClothFabricCooker.obj
 0001:000ed460       ?size@?$HashBase@V?$Pair@$$CBV?$Pair@II@shdfnd@physx@@UEdge@?A0x257d6abb@cloth@nv@@@shdfnd@physx@@V?$Pair@II@23@U?$Hash@V?$Pair@II@shdfnd@physx@@@23@UGetKey@?$HashMapBase@V?$Pair@II@shdfnd@physx@@UEdge@?A0x257d6abb@cloth@nv@@U?$Hash@V?$Pair@II@shdfnd@physx@@@23@VNonTrackingAllocator@67@@internal@23@VNonTrackingAllocator@cloth@nv@@$00@internal@shdfnd@physx@@QEBAIXZ 00000001800ee460 f i ClothFabricCooker.obj
 0001:000ed480       ?size@?$HashMapBase@V?$Pair@II@shdfnd@physx@@UEdge@?A0x257d6abb@cloth@nv@@U?$Hash@V?$Pair@II@shdfnd@physx@@@23@VNonTrackingAllocator@67@@internal@shdfnd@physx@@QEBAIXZ 00000001800ee480 f i ClothFabricCooker.obj
 0001:000ed4c0       ?size@?$Range@$$CBH@cloth@nv@@QEBAIXZ 00000001800ee4c0 f i ClothFabricCooker.obj
 0001:000ed4f0       ?skip@Iter@?$HashBase@V?$Pair@$$CBV?$Pair@II@shdfnd@physx@@UEdge@?A0x257d6abb@cloth@nv@@@shdfnd@physx@@V?$Pair@II@23@U?$Hash@V?$Pair@II@shdfnd@physx@@@23@UGetKey@?$HashMapBase@V?$Pair@II@shdfnd@physx@@UEdge@?A0x257d6abb@cloth@nv@@U?$Hash@V?$Pair@II@shdfnd@physx@@@23@VNonTrackingAllocator@67@@internal@23@VNonTrackingAllocator@cloth@nv@@$00@internal@shdfnd@physx@@AEAAXXZ 00000001800ee4f0 f i ClothFabricCooker.obj
 0001:000ed590       ?stride@?$PxStrideIterator@$$CBG@physx@@QEBAIXZ 00000001800ee590 f i ClothFabricCooker.obj
 0001:000ed5b0       ?stride@?$PxStrideIterator@$$CBI@physx@@QEBAIXZ 00000001800ee5b0 f i ClothFabricCooker.obj
 0001:000ed5d0       ?stride@?$PxStrideIterator@$$CBM@physx@@QEBAIXZ 00000001800ee5d0 f i ClothFabricCooker.obj
 0001:000ed5f0       ?stride@?$PxStrideIterator@$$CBVPxVec3@physx@@@physx@@QEBAIXZ 00000001800ee5f0 f i ClothFabricCooker.obj
 0001:000ed6a0       NvClothCreateGeodesicTetherCooker 00000001800ee6a0 f   ClothGeodesicTetherCooker.obj
 0001:000eda20       ?cook@ClothGeodesicTetherCooker@cloth@nv@@UEAA_NAEBVClothMeshDesc@23@@Z 00000001800eea20 f   ClothGeodesicTetherCooker.obj
 0001:000edaa0       ?getCookerStatus@ClothGeodesicTetherCooker@cloth@nv@@UEBAIXZ 00000001800eeaa0 f   ClothGeodesicTetherCooker.obj
 0001:000edac0       ?getNbTethersPerParticle@ClothGeodesicTetherCooker@cloth@nv@@UEBAIXZ 00000001800eeac0 f   ClothGeodesicTetherCooker.obj
 0001:000edb10       ?getTetherData@ClothGeodesicTetherCooker@cloth@nv@@UEBAXPEAIPEAM@Z 00000001800eeb10 f   ClothGeodesicTetherCooker.obj
 0001:000edbd0       ?createTetherData@ClothGeodesicTetherCooker@cloth@nv@@IEAAXAEBVClothMeshDesc@23@@Z 00000001800eebd0 f   ClothGeodesicTetherCooker.obj
 0001:000eefb0       ?computeVertexIntersection@ClothGeodesicTetherCooker@cloth@nv@@IEAAHIIAEAUPathIntersection@?A0x7a657ec0@23@@Z 00000001800effb0 f   ClothGeodesicTetherCooker.obj
 0001:000ef8c0       ?computeEdgeIntersection@ClothGeodesicTetherCooker@cloth@nv@@IEAAHIIMAEAUPathIntersection@?A0x7a657ec0@23@@Z 00000001800f08c0 f   ClothGeodesicTetherCooker.obj
 0001:000f0460       ?computeGeodesicDistance@ClothGeodesicTetherCooker@cloth@nv@@IEAAMIIAEAH@Z 00000001800f1460 f   ClothGeodesicTetherCooker.obj
 0001:000f0600       ?findTriNeighbors@ClothGeodesicTetherCooker@cloth@nv@@IEAAIXZ 00000001800f1600 f   ClothGeodesicTetherCooker.obj
 0001:000f0a10       ?findVertTriNeighbors@ClothGeodesicTetherCooker@cloth@nv@@IEAAXXZ 00000001800f1a10 f   ClothGeodesicTetherCooker.obj
 0001:000f3270       ??$median3@UMeshEdge@?A0x7a657ec0@cloth@nv@@$$CBU?$Less@UMeshEdge@?A0x7a657ec0@cloth@nv@@@shdfnd@physx@@@internal@shdfnd@physx@@YAXPEAUMeshEdge@?A0x7a657ec0@cloth@nv@@HHAEBU?$Less@UMeshEdge@?A0x7a657ec0@cloth@nv@@@12@@Z 00000001800f4270 f i ClothGeodesicTetherCooker.obj
 0001:000f34b0       ??$median3@UVertTriangle@?A0x7a657ec0@cloth@nv@@$$CBU?$Less@UVertTriangle@?A0x7a657ec0@cloth@nv@@@shdfnd@physx@@@internal@shdfnd@physx@@YAXPEAUVertTriangle@?A0x7a657ec0@cloth@nv@@HHAEBU?$Less@UVertTriangle@?A0x7a657ec0@cloth@nv@@@12@@Z 00000001800f44b0 f i ClothGeodesicTetherCooker.obj
 0001:000f3680       ??$partition@UMeshEdge@?A0x7a657ec0@cloth@nv@@$$CBU?$Less@UMeshEdge@?A0x7a657ec0@cloth@nv@@@shdfnd@physx@@@internal@shdfnd@physx@@YAHPEAUMeshEdge@?A0x7a657ec0@cloth@nv@@HHAEBU?$Less@UMeshEdge@?A0x7a657ec0@cloth@nv@@@12@@Z 00000001800f4680 f i ClothGeodesicTetherCooker.obj
 0001:000f3940       ??$partition@UVertTriangle@?A0x7a657ec0@cloth@nv@@$$CBU?$Less@UVertTriangle@?A0x7a657ec0@cloth@nv@@@shdfnd@physx@@@internal@shdfnd@physx@@YAHPEAUVertTriangle@?A0x7a657ec0@cloth@nv@@HHAEBU?$Less@UVertTriangle@?A0x7a657ec0@cloth@nv@@@12@@Z 00000001800f4940 f i ClothGeodesicTetherCooker.obj
 0001:000f3fe0       ??$smallSort@UMeshEdge@?A0x7a657ec0@cloth@nv@@$$CBU?$Less@UMeshEdge@?A0x7a657ec0@cloth@nv@@@shdfnd@physx@@@internal@shdfnd@physx@@YAXPEAUMeshEdge@?A0x7a657ec0@cloth@nv@@HHAEBU?$Less@UMeshEdge@?A0x7a657ec0@cloth@nv@@@12@@Z 00000001800f4fe0 f i ClothGeodesicTetherCooker.obj
 0001:000f4130       ??$smallSort@UVertTriangle@?A0x7a657ec0@cloth@nv@@$$CBU?$Less@UVertTriangle@?A0x7a657ec0@cloth@nv@@@shdfnd@physx@@@internal@shdfnd@physx@@YAXPEAUVertTriangle@?A0x7a657ec0@cloth@nv@@HHAEBU?$Less@UVertTriangle@?A0x7a657ec0@cloth@nv@@@12@@Z 00000001800f5130 f i ClothGeodesicTetherCooker.obj
 0001:000f4260       ??$sort@UMeshEdge@?A0x7a657ec0@cloth@nv@@U?$Less@UMeshEdge@?A0x7a657ec0@cloth@nv@@@shdfnd@physx@@VNonTrackingAllocator@34@@shdfnd@physx@@YAXPEAUMeshEdge@?A0x7a657ec0@cloth@nv@@IAEBU?$Less@UMeshEdge@?A0x7a657ec0@cloth@nv@@@01@AEBVNonTrackingAllocator@45@I@Z 00000001800f5260 f i ClothGeodesicTetherCooker.obj
 0001:000f4740       ??$sort@UVertTriangle@?A0x7a657ec0@cloth@nv@@U?$Less@UVertTriangle@?A0x7a657ec0@cloth@nv@@@shdfnd@physx@@VNonTrackingAllocator@34@@shdfnd@physx@@YAXPEAUVertTriangle@?A0x7a657ec0@cloth@nv@@IAEBU?$Less@UVertTriangle@?A0x7a657ec0@cloth@nv@@@01@AEBVNonTrackingAllocator@45@I@Z 00000001800f5740 f i ClothGeodesicTetherCooker.obj
 0001:000f4c20       ??$swap@H@shdfnd@physx@@YAXAEAH0@Z 00000001800f5c20 f i ClothGeodesicTetherCooker.obj
 0001:000f4c80       ??$swap@UMeshEdge@?A0x7a657ec0@cloth@nv@@@shdfnd@physx@@YAXAEAUMeshEdge@?A0x7a657ec0@cloth@nv@@0@Z 00000001800f5c80 f i ClothGeodesicTetherCooker.obj
 0001:000f4d10       ??$swap@UVertTriangle@?A0x7a657ec0@cloth@nv@@@shdfnd@physx@@YAXAEAUVertTriangle@?A0x7a657ec0@cloth@nv@@0@Z 00000001800f5d10 f i ClothGeodesicTetherCooker.obj
 0001:000f4d90       ??$swap@UVertexDistanceCount@?A0x7a657ec0@cloth@nv@@@shdfnd@physx@@YAXAEAUVertexDistanceCount@?A0x7a657ec0@cloth@nv@@0@Z 00000001800f5d90 f i ClothGeodesicTetherCooker.obj
 0001:000f4e20       ??0?$Array@EVNonTrackingAllocator@cloth@nv@@@shdfnd@physx@@QEAA@AEBVNonTrackingAllocator@cloth@nv@@@Z 00000001800f5e20 f i ClothGeodesicTetherCooker.obj
 0001:000f4e70       ??0?$Array@UMeshEdge@?A0x7a657ec0@cloth@nv@@VNonTrackingAllocator@34@@shdfnd@physx@@QEAA@AEBVNonTrackingAllocator@cloth@nv@@@Z 00000001800f5e70 f i ClothGeodesicTetherCooker.obj
 0001:000f4ec0       ??0?$Array@UVertTriangle@?A0x7a657ec0@cloth@nv@@VNonTrackingAllocator@34@@shdfnd@physx@@QEAA@AEBVNonTrackingAllocator@cloth@nv@@@Z 00000001800f5ec0 f i ClothGeodesicTetherCooker.obj
 0001:000f4f10       ??0?$Array@UVertexDistanceCount@?A0x7a657ec0@cloth@nv@@VNonTrackingAllocator@34@@shdfnd@physx@@QEAA@AEBVNonTrackingAllocator@cloth@nv@@@Z 00000001800f5f10 f i ClothGeodesicTetherCooker.obj
 0001:000f4f60       ??0ClothGeodesicTetherCooker@cloth@nv@@QEAA@XZ 00000001800f5f60 f i ClothGeodesicTetherCooker.obj
 0001:000f50e0       ??0ClothTetherCooker@cloth@nv@@QEAA@XZ 00000001800f60e0 f i ClothGeodesicTetherCooker.obj
 0001:000f52e0       ??1?$Array@EVNonTrackingAllocator@cloth@nv@@@shdfnd@physx@@QEAA@XZ 00000001800f62e0 f i ClothGeodesicTetherCooker.obj
 0001:000f5370       ??1?$Array@UMeshEdge@?A0x7a657ec0@cloth@nv@@VNonTrackingAllocator@34@@shdfnd@physx@@QEAA@XZ 00000001800f6370 f i ClothGeodesicTetherCooker.obj
 0001:000f5410       ??1?$Array@UVertTriangle@?A0x7a657ec0@cloth@nv@@VNonTrackingAllocator@34@@shdfnd@physx@@QEAA@XZ 00000001800f6410 f i ClothGeodesicTetherCooker.obj
 0001:000f54b0       ??1?$Array@UVertexDistanceCount@?A0x7a657ec0@cloth@nv@@VNonTrackingAllocator@34@@shdfnd@physx@@QEAA@XZ 00000001800f64b0 f i ClothGeodesicTetherCooker.obj
 0001:000f5550       ??1ClothGeodesicTetherCooker@cloth@nv@@UEAA@XZ 00000001800f6550 f i ClothGeodesicTetherCooker.obj
 0001:000f5640       ??1ClothTetherCooker@cloth@nv@@UEAA@XZ 00000001800f6640 f i ClothGeodesicTetherCooker.obj
 0001:000f56e0       ??A?$Array@EVNonTrackingAllocator@cloth@nv@@@shdfnd@physx@@QEAAAEAEI@Z 00000001800f66e0 f i ClothGeodesicTetherCooker.obj
 0001:000f57a0       ??A?$Array@UMeshEdge@?A0x7a657ec0@cloth@nv@@VNonTrackingAllocator@34@@shdfnd@physx@@QEAAAEAUMeshEdge@?A0x7a657ec0@cloth@nv@@I@Z 00000001800f67a0 f i ClothGeodesicTetherCooker.obj
 0001:000f5860       ??A?$Array@UVertTriangle@?A0x7a657ec0@cloth@nv@@VNonTrackingAllocator@34@@shdfnd@physx@@QEAAAEAUVertTriangle@?A0x7a657ec0@cloth@nv@@I@Z 00000001800f6860 f i ClothGeodesicTetherCooker.obj
 0001:000f5b10       ??R?$Less@UMeshEdge@?A0x7a657ec0@cloth@nv@@@shdfnd@physx@@QEBA_NAEBUMeshEdge@?A0x7a657ec0@cloth@nv@@0@Z 00000001800f6b10 f i ClothGeodesicTetherCooker.obj
 0001:000f5b60       ??R?$Less@UVertTriangle@?A0x7a657ec0@cloth@nv@@@shdfnd@physx@@QEBA_NAEBUVertTriangle@?A0x7a657ec0@cloth@nv@@0@Z 00000001800f6b60 f i ClothGeodesicTetherCooker.obj
 0001:000f5bb0       ??_EClothGeodesicTetherCooker@cloth@nv@@UEAAPEAXI@Z 00000001800f6bb0 f i ClothGeodesicTetherCooker.obj
 0001:000f5bb0       ??_GClothGeodesicTetherCooker@cloth@nv@@UEAAPEAXI@Z 00000001800f6bb0 f i ClothGeodesicTetherCooker.obj
 0001:000f5c40       ??_GClothTetherCooker@cloth@nv@@UEAAPEAXI@Z 00000001800f6c40 f i ClothGeodesicTetherCooker.obj
 0001:000f5c40       ??_EClothTetherCooker@cloth@nv@@UEAAPEAXI@Z 00000001800f6c40 f i ClothGeodesicTetherCooker.obj
 0001:000f5cd0       ?PxMemCopy@physx@@YAPEAXPEAXPEBXI@Z 00000001800f6cd0 f i ClothGeodesicTetherCooker.obj
 0001:000f5d30       ?allocate@?$Array@EVNonTrackingAllocator@cloth@nv@@@shdfnd@physx@@IEAAPEAEI@Z 00000001800f6d30 f i ClothGeodesicTetherCooker.obj
 0001:000f5df0       ?allocate@?$Array@UMeshEdge@?A0x7a657ec0@cloth@nv@@VNonTrackingAllocator@34@@shdfnd@physx@@IEAAPEAUMeshEdge@?A0x7a657ec0@cloth@nv@@I@Z 00000001800f6df0 f i ClothGeodesicTetherCooker.obj
 0001:000f5ec0       ?allocate@?$Array@UVertTriangle@?A0x7a657ec0@cloth@nv@@VNonTrackingAllocator@34@@shdfnd@physx@@IEAAPEAUVertTriangle@?A0x7a657ec0@cloth@nv@@I@Z 00000001800f6ec0 f i ClothGeodesicTetherCooker.obj
 0001:000f5f90       ?allocate@?$Array@UVertexDistanceCount@?A0x7a657ec0@cloth@nv@@VNonTrackingAllocator@34@@shdfnd@physx@@IEAAPEAUVertexDistanceCount@?A0x7a657ec0@cloth@nv@@I@Z 00000001800f6f90 f i ClothGeodesicTetherCooker.obj
 0001:000f6060       ?begin@?$Array@UMeshEdge@?A0x7a657ec0@cloth@nv@@VNonTrackingAllocator@34@@shdfnd@physx@@QEAAPEAUMeshEdge@?A0x7a657ec0@cloth@nv@@XZ 00000001800f7060 f i ClothGeodesicTetherCooker.obj
 0001:000f6080       ?begin@?$Array@UVertTriangle@?A0x7a657ec0@cloth@nv@@VNonTrackingAllocator@34@@shdfnd@physx@@QEAAPEAUVertTriangle@?A0x7a657ec0@cloth@nv@@XZ 00000001800f7080 f i ClothGeodesicTetherCooker.obj
 0001:000f60a0       ?begin@?$Array@UVertexDistanceCount@?A0x7a657ec0@cloth@nv@@VNonTrackingAllocator@34@@shdfnd@physx@@QEAAPEAUVertexDistanceCount@?A0x7a657ec0@cloth@nv@@XZ 00000001800f70a0 f i ClothGeodesicTetherCooker.obj
 0001:000f60c0       ?capacity@?$Array@EVNonTrackingAllocator@cloth@nv@@@shdfnd@physx@@QEBAIXZ 00000001800f70c0 f i ClothGeodesicTetherCooker.obj
 0001:000f60e0       ?capacity@?$Array@UMeshEdge@?A0x7a657ec0@cloth@nv@@VNonTrackingAllocator@34@@shdfnd@physx@@QEBAIXZ 00000001800f70e0 f i ClothGeodesicTetherCooker.obj
 0001:000f6100       ?capacity@?$Array@UVertTriangle@?A0x7a657ec0@cloth@nv@@VNonTrackingAllocator@34@@shdfnd@physx@@QEBAIXZ 00000001800f7100 f i ClothGeodesicTetherCooker.obj
 0001:000f6120       ?capacity@?$Array@UVertexDistanceCount@?A0x7a657ec0@cloth@nv@@VNonTrackingAllocator@34@@shdfnd@physx@@QEBAIXZ 00000001800f7120 f i ClothGeodesicTetherCooker.obj
 0001:000f6140       ?capacityIncrement@?$Array@UMeshEdge@?A0x7a657ec0@cloth@nv@@VNonTrackingAllocator@34@@shdfnd@physx@@IEBAIXZ 00000001800f7140 f i ClothGeodesicTetherCooker.obj
 0001:000f61b0       ?capacityIncrement@?$Array@UVertTriangle@?A0x7a657ec0@cloth@nv@@VNonTrackingAllocator@34@@shdfnd@physx@@IEBAIXZ 00000001800f71b0 f i ClothGeodesicTetherCooker.obj
 0001:000f6220       ?capacityIncrement@?$Array@UVertexDistanceCount@?A0x7a657ec0@cloth@nv@@VNonTrackingAllocator@34@@shdfnd@physx@@IEBAIXZ 00000001800f7220 f i ClothGeodesicTetherCooker.obj
 0001:000f6320       ?clear@?$Array@UVertexDistanceCount@?A0x7a657ec0@cloth@nv@@VNonTrackingAllocator@34@@shdfnd@physx@@QEAAXXZ 00000001800f7320 f i ClothGeodesicTetherCooker.obj
 0001:000f6390       ?copy@?$Array@EVNonTrackingAllocator@cloth@nv@@@shdfnd@physx@@KAXPEAE0PEBE@Z 00000001800f7390 f i ClothGeodesicTetherCooker.obj
 0001:000f6460       ?copy@?$Array@UMeshEdge@?A0x7a657ec0@cloth@nv@@VNonTrackingAllocator@34@@shdfnd@physx@@KAXPEAUMeshEdge@?A0x7a657ec0@cloth@nv@@0PEBU4567@@Z 00000001800f7460 f i ClothGeodesicTetherCooker.obj
 0001:000f6540       ?copy@?$Array@UVertTriangle@?A0x7a657ec0@cloth@nv@@VNonTrackingAllocator@34@@shdfnd@physx@@KAXPEAUVertTriangle@?A0x7a657ec0@cloth@nv@@0PEBU4567@@Z 00000001800f7540 f i ClothGeodesicTetherCooker.obj
 0001:000f6620       ?copy@?$Array@UVertexDistanceCount@?A0x7a657ec0@cloth@nv@@VNonTrackingAllocator@34@@shdfnd@physx@@KAXPEAUVertexDistanceCount@?A0x7a657ec0@cloth@nv@@0PEBU4567@@Z 00000001800f7620 f i ClothGeodesicTetherCooker.obj
 0001:000f6700       ?create@?$Array@EVNonTrackingAllocator@cloth@nv@@@shdfnd@physx@@KAXPEAE0AEBE@Z 00000001800f7700 f i ClothGeodesicTetherCooker.obj
 0001:000f67b0       ?deallocate@?$Array@EVNonTrackingAllocator@cloth@nv@@@shdfnd@physx@@IEAAXPEAX@Z 00000001800f77b0 f i ClothGeodesicTetherCooker.obj
 0001:000f6800       ?deallocate@?$Array@UMeshEdge@?A0x7a657ec0@cloth@nv@@VNonTrackingAllocator@34@@shdfnd@physx@@IEAAXPEAX@Z 00000001800f7800 f i ClothGeodesicTetherCooker.obj
 0001:000f6850       ?deallocate@?$Array@UVertTriangle@?A0x7a657ec0@cloth@nv@@VNonTrackingAllocator@34@@shdfnd@physx@@IEAAXPEAX@Z 00000001800f7850 f i ClothGeodesicTetherCooker.obj
 0001:000f68a0       ?deallocate@?$Array@UVertexDistanceCount@?A0x7a657ec0@cloth@nv@@VNonTrackingAllocator@34@@shdfnd@physx@@IEAAXPEAX@Z 00000001800f78a0 f i ClothGeodesicTetherCooker.obj
 0001:000f68f0       ?destroy@?$Array@EVNonTrackingAllocator@cloth@nv@@@shdfnd@physx@@KAXPEAE0@Z 00000001800f78f0 f i ClothGeodesicTetherCooker.obj
 0001:000f6930       ?destroy@?$Array@UMeshEdge@?A0x7a657ec0@cloth@nv@@VNonTrackingAllocator@34@@shdfnd@physx@@KAXPEAUMeshEdge@?A0x7a657ec0@cloth@nv@@0@Z 00000001800f7930 f i ClothGeodesicTetherCooker.obj
 0001:000f6970       ?destroy@?$Array@UVertTriangle@?A0x7a657ec0@cloth@nv@@VNonTrackingAllocator@34@@shdfnd@physx@@KAXPEAUVertTriangle@?A0x7a657ec0@cloth@nv@@0@Z 00000001800f7970 f i ClothGeodesicTetherCooker.obj
 0001:000f69b0       ?destroy@?$Array@UVertexDistanceCount@?A0x7a657ec0@cloth@nv@@VNonTrackingAllocator@34@@shdfnd@physx@@KAXPEAUVertexDistanceCount@?A0x7a657ec0@cloth@nv@@0@Z 00000001800f79b0 f i ClothGeodesicTetherCooker.obj
 0001:000f69f0       ?empty@?$Array@UVertexDistanceCount@?A0x7a657ec0@cloth@nv@@VNonTrackingAllocator@34@@shdfnd@physx@@QEBA_NXZ 00000001800f79f0 f i ClothGeodesicTetherCooker.obj
 0001:000f6a50       ?end@?$Array@UVertexDistanceCount@?A0x7a657ec0@cloth@nv@@VNonTrackingAllocator@34@@shdfnd@physx@@QEAAPEAUVertexDistanceCount@?A0x7a657ec0@cloth@nv@@XZ 00000001800f7a50 f i ClothGeodesicTetherCooker.obj
 0001:000f6a80       ?grow@?$Array@EVNonTrackingAllocator@cloth@nv@@@shdfnd@physx@@IEAAXI@Z 00000001800f7a80 f i ClothGeodesicTetherCooker.obj
 0001:000f6b40       ?grow@?$Array@UVertTriangle@?A0x7a657ec0@cloth@nv@@VNonTrackingAllocator@34@@shdfnd@physx@@IEAAXI@Z 00000001800f7b40 f i ClothGeodesicTetherCooker.obj
 0001:000f6c00       ?growAndPushBack@?$Array@UMeshEdge@?A0x7a657ec0@cloth@nv@@VNonTrackingAllocator@34@@shdfnd@physx@@IEAAAEAUMeshEdge@?A0x7a657ec0@cloth@nv@@AEBU4567@@Z 00000001800f7c00 f i ClothGeodesicTetherCooker.obj
 0001:000f6e80       ?growAndPushBack@?$Array@UVertTriangle@?A0x7a657ec0@cloth@nv@@VNonTrackingAllocator@34@@shdfnd@physx@@IEAAAEAUVertTriangle@?A0x7a657ec0@cloth@nv@@AEBU4567@@Z 00000001800f7e80 f i ClothGeodesicTetherCooker.obj
 0001:000f70a0       ?growAndPushBack@?$Array@UVertexDistanceCount@?A0x7a657ec0@cloth@nv@@VNonTrackingAllocator@34@@shdfnd@physx@@IEAAAEAUVertexDistanceCount@?A0x7a657ec0@cloth@nv@@AEBU4567@@Z 00000001800f80a0 f i ClothGeodesicTetherCooker.obj
 0001:000f7320       ?isInUserMemory@?$Array@EVNonTrackingAllocator@cloth@nv@@@shdfnd@physx@@QEBAIXZ 00000001800f8320 f i ClothGeodesicTetherCooker.obj
 0001:000f7340       ?isInUserMemory@?$Array@UMeshEdge@?A0x7a657ec0@cloth@nv@@VNonTrackingAllocator@34@@shdfnd@physx@@QEBAIXZ 00000001800f8340 f i ClothGeodesicTetherCooker.obj
 0001:000f7360       ?isInUserMemory@?$Array@UVertTriangle@?A0x7a657ec0@cloth@nv@@VNonTrackingAllocator@34@@shdfnd@physx@@QEBAIXZ 00000001800f8360 f i ClothGeodesicTetherCooker.obj
 0001:000f7380       ?isInUserMemory@?$Array@UVertexDistanceCount@?A0x7a657ec0@cloth@nv@@VNonTrackingAllocator@34@@shdfnd@physx@@QEBAIXZ 00000001800f8380 f i ClothGeodesicTetherCooker.obj
 0001:000f73a0       ?popBack@?$Array@UVertexDistanceCount@?A0x7a657ec0@cloth@nv@@VNonTrackingAllocator@34@@shdfnd@physx@@QEAA?AUVertexDistanceCount@?A0x7a657ec0@cloth@nv@@XZ 00000001800f83a0 f i ClothGeodesicTetherCooker.obj
 0001:000f74f0       ?pushBack@?$Array@UMeshEdge@?A0x7a657ec0@cloth@nv@@VNonTrackingAllocator@34@@shdfnd@physx@@QEAAAEAUMeshEdge@?A0x7a657ec0@cloth@nv@@AEBU4567@@Z 00000001800f84f0 f i ClothGeodesicTetherCooker.obj
 0001:000f7600       ?pushBack@?$Array@UVertTriangle@?A0x7a657ec0@cloth@nv@@VNonTrackingAllocator@34@@shdfnd@physx@@QEAAAEAUVertTriangle@?A0x7a657ec0@cloth@nv@@AEBU4567@@Z 00000001800f8600 f i ClothGeodesicTetherCooker.obj
 0001:000f7710       ?pushBack@?$Array@UVertexDistanceCount@?A0x7a657ec0@cloth@nv@@VNonTrackingAllocator@34@@shdfnd@physx@@QEAAAEAUVertexDistanceCount@?A0x7a657ec0@cloth@nv@@AEBU4567@@Z 00000001800f8710 f i ClothGeodesicTetherCooker.obj
 0001:000f7820       ?recreate@?$Array@EVNonTrackingAllocator@cloth@nv@@@shdfnd@physx@@IEAAXI@Z 00000001800f8820 f i ClothGeodesicTetherCooker.obj
 0001:000f7990       ?recreate@?$Array@UVertTriangle@?A0x7a657ec0@cloth@nv@@VNonTrackingAllocator@34@@shdfnd@physx@@IEAAXI@Z 00000001800f8990 f i ClothGeodesicTetherCooker.obj
 0001:000f7b00       ?reserve@?$Array@EVNonTrackingAllocator@cloth@nv@@@shdfnd@physx@@QEAAXI@Z 00000001800f8b00 f i ClothGeodesicTetherCooker.obj
 0001:000f7b60       ?reserve@?$Array@UVertTriangle@?A0x7a657ec0@cloth@nv@@VNonTrackingAllocator@34@@shdfnd@physx@@QEAAXI@Z 00000001800f8b60 f i ClothGeodesicTetherCooker.obj
 0001:000f7bc0       ?resize@?$Array@EVNonTrackingAllocator@cloth@nv@@@shdfnd@physx@@QEAAXIAEBE@Z 00000001800f8bc0 f i ClothGeodesicTetherCooker.obj
 0001:000f7c80       ?size@?$Array@UMeshEdge@?A0x7a657ec0@cloth@nv@@VNonTrackingAllocator@34@@shdfnd@physx@@QEBAIXZ 00000001800f8c80 f i ClothGeodesicTetherCooker.obj
 0001:000f7ca0       ?size@?$Array@UVertTriangle@?A0x7a657ec0@cloth@nv@@VNonTrackingAllocator@34@@shdfnd@physx@@QEBAIXZ 00000001800f8ca0 f i ClothGeodesicTetherCooker.obj
 0001:000f7cc0       ?size@?$Array@UVertexDistanceCount@?A0x7a657ec0@cloth@nv@@VNonTrackingAllocator@34@@shdfnd@physx@@QEBAIXZ 00000001800f8cc0 f i ClothGeodesicTetherCooker.obj
 0001:000f7ce0       NvClothCreateMeshQuadifier 00000001800f8ce0 f   ClothMeshQuadifier.obj
 0001:000f7d50       ?quadify@ClothMeshQuadifierImpl@cloth@nv@@UEAA_NAEBVClothMeshDesc@23@@Z 00000001800f8d50 f   ClothMeshQuadifier.obj
 0001:000f7fd0       ?getDescriptor@ClothMeshQuadifierImpl@cloth@nv@@UEBA?AVClothMeshDesc@23@XZ 00000001800f8fd0 f   ClothMeshQuadifier.obj
 0001:000fa300       ??$median3@I$$CBUSortHiddenEdges@?A0x8843b9f3@cloth@nv@@@internal@shdfnd@physx@@YAXPEAIHHAEBUSortHiddenEdges@?A0x8843b9f3@cloth@nv@@@Z 00000001800fb300 f i ClothMeshQuadifier.obj
 0001:000fa4c0       ??$median3@UUniqueEdge@?A0x8843b9f3@cloth@nv@@$$CBU1234@@internal@shdfnd@physx@@YAXPEAUUniqueEdge@?A0x8843b9f3@cloth@nv@@HHAEBU3456@@Z 00000001800fb4c0 f i ClothMeshQuadifier.obj
 0001:000fa700       ??$partition@I$$CBUSortHiddenEdges@?A0x8843b9f3@cloth@nv@@@internal@shdfnd@physx@@YAHPEAIHHAEBUSortHiddenEdges@?A0x8843b9f3@cloth@nv@@@Z 00000001800fb700 f i ClothMeshQuadifier.obj
 0001:000fa970       ??$partition@UUniqueEdge@?A0x8843b9f3@cloth@nv@@$$CBU1234@@internal@shdfnd@physx@@YAHPEAUUniqueEdge@?A0x8843b9f3@cloth@nv@@HHAEBU3456@@Z 00000001800fb970 f i ClothMeshQuadifier.obj
 0001:000face0       ??$smallSort@I$$CBUSortHiddenEdges@?A0x8843b9f3@cloth@nv@@@internal@shdfnd@physx@@YAXPEAIHHAEBUSortHiddenEdges@?A0x8843b9f3@cloth@nv@@@Z 00000001800fbce0 f i ClothMeshQuadifier.obj
 0001:000fae00       ??$smallSort@UUniqueEdge@?A0x8843b9f3@cloth@nv@@$$CBU1234@@internal@shdfnd@physx@@YAXPEAUUniqueEdge@?A0x8843b9f3@cloth@nv@@HHAEBU3456@@Z 00000001800fbe00 f i ClothMeshQuadifier.obj
 0001:000faf50       ??$sort@IUSortHiddenEdges@?A0x8843b9f3@cloth@nv@@VNonTrackingAllocator@34@@shdfnd@physx@@YAXPEAIIAEBUSortHiddenEdges@?A0x8843b9f3@cloth@nv@@AEBVNonTrackingAllocator@45@I@Z 00000001800fbf50 f i ClothMeshQuadifier.obj
 0001:000fb420       ??$sort@UUniqueEdge@?A0x8843b9f3@cloth@nv@@U1234@VNonTrackingAllocator@34@@shdfnd@physx@@YAXPEAUUniqueEdge@?A0x8843b9f3@cloth@nv@@IAEBU2345@AEBVNonTrackingAllocator@45@I@Z 00000001800fc420 f i ClothMeshQuadifier.obj
 0001:000fb900       ??$swap@UUniqueEdge@?A0x8843b9f3@cloth@nv@@@shdfnd@physx@@YAXAEAUUniqueEdge@?A0x8843b9f3@cloth@nv@@0@Z 00000001800fc900 f i ClothMeshQuadifier.obj
 0001:000fb990       ??0?$Array@UUniqueEdge@?A0x8843b9f3@cloth@nv@@VNonTrackingAllocator@34@@shdfnd@physx@@QEAA@AEBVNonTrackingAllocator@cloth@nv@@@Z 00000001800fc990 f i ClothMeshQuadifier.obj
 0001:000fb9e0       ??0BoundedData@cloth@nv@@QEAA@XZ 00000001800fc9e0 f i ClothMeshQuadifier.obj
 0001:000fba30       ??0ClothMeshDesc@cloth@nv@@QEAA@XZ 00000001800fca30 f i ClothMeshQuadifier.obj
 0001:000fbae0       ??0ClothMeshQuadifier@cloth@nv@@QEAA@XZ 00000001800fcae0 f i ClothMeshQuadifier.obj
 0001:000fbb10       ??0ClothMeshQuadifierImpl@cloth@nv@@QEAA@XZ 00000001800fcb10 f i ClothMeshQuadifier.obj
 0001:000fbc00       ??0StridedData@cloth@nv@@QEAA@XZ 00000001800fcc00 f i ClothMeshQuadifier.obj
 0001:000fbd70       ??1?$Array@UUniqueEdge@?A0x8843b9f3@cloth@nv@@VNonTrackingAllocator@34@@shdfnd@physx@@QEAA@XZ 00000001800fcd70 f i ClothMeshQuadifier.obj
 0001:000fbe10       ??1ClothMeshQuadifier@cloth@nv@@UEAA@XZ 00000001800fce10 f i ClothMeshQuadifier.obj
 0001:000fbe30       ??1ClothMeshQuadifierImpl@cloth@nv@@UEAA@XZ 00000001800fce30 f i ClothMeshQuadifier.obj
 0001:000fbf20       ??A?$Array@UUniqueEdge@?A0x8843b9f3@cloth@nv@@VNonTrackingAllocator@34@@shdfnd@physx@@QEAAAEAUUniqueEdge@?A0x8843b9f3@cloth@nv@@I@Z 00000001800fcf20 f i ClothMeshQuadifier.obj
 0001:000fbfe0       ??A?$Array@UUniqueEdge@?A0x8843b9f3@cloth@nv@@VNonTrackingAllocator@34@@shdfnd@physx@@QEBAAEBUUniqueEdge@?A0x8843b9f3@cloth@nv@@I@Z 00000001800fcfe0 f i ClothMeshQuadifier.obj
 0001:000fc240       ??_EClothMeshQuadifier@cloth@nv@@UEAAPEAXI@Z 00000001800fd240 f i ClothMeshQuadifier.obj
 0001:000fc240       ??_GClothMeshQuadifier@cloth@nv@@UEAAPEAXI@Z 00000001800fd240 f i ClothMeshQuadifier.obj
 0001:000fc2d0       ??_EClothMeshQuadifierImpl@cloth@nv@@UEAAPEAXI@Z 00000001800fd2d0 f i ClothMeshQuadifier.obj
 0001:000fc2d0       ??_GClothMeshQuadifierImpl@cloth@nv@@UEAAPEAXI@Z 00000001800fd2d0 f i ClothMeshQuadifier.obj
 0001:000fc360       ??_H@YAXPEAX_K1P6APEAX0@Z@Z 00000001800fd360 f i ClothMeshQuadifier.obj
 0001:000fc410       ?allocate@?$Array@UUniqueEdge@?A0x8843b9f3@cloth@nv@@VNonTrackingAllocator@34@@shdfnd@physx@@IEAAPEAUUniqueEdge@?A0x8843b9f3@cloth@nv@@I@Z 00000001800fd410 f i ClothMeshQuadifier.obj
 0001:000fc4e0       ?begin@?$Array@UUniqueEdge@?A0x8843b9f3@cloth@nv@@VNonTrackingAllocator@34@@shdfnd@physx@@QEAAPEAUUniqueEdge@?A0x8843b9f3@cloth@nv@@XZ 00000001800fd4e0 f i ClothMeshQuadifier.obj
 0001:000fc500       ?capacity@?$Array@UUniqueEdge@?A0x8843b9f3@cloth@nv@@VNonTrackingAllocator@34@@shdfnd@physx@@QEBAIXZ 00000001800fd500 f i ClothMeshQuadifier.obj
 0001:000fc520       ?capacityIncrement@?$Array@UUniqueEdge@?A0x8843b9f3@cloth@nv@@VNonTrackingAllocator@34@@shdfnd@physx@@IEBAIXZ 00000001800fd520 f i ClothMeshQuadifier.obj
 0001:000fc590       ?copy@?$Array@UUniqueEdge@?A0x8843b9f3@cloth@nv@@VNonTrackingAllocator@34@@shdfnd@physx@@KAXPEAUUniqueEdge@?A0x8843b9f3@cloth@nv@@0PEBU4567@@Z 00000001800fd590 f i ClothMeshQuadifier.obj
 0001:000fc670       ?create@?$Array@UUniqueEdge@?A0x8843b9f3@cloth@nv@@VNonTrackingAllocator@34@@shdfnd@physx@@KAXPEAUUniqueEdge@?A0x8843b9f3@cloth@nv@@0AEBU4567@@Z 00000001800fd670 f i ClothMeshQuadifier.obj
 0001:000fc730       ?deallocate@?$Array@UUniqueEdge@?A0x8843b9f3@cloth@nv@@VNonTrackingAllocator@34@@shdfnd@physx@@IEAAXPEAX@Z 00000001800fd730 f i ClothMeshQuadifier.obj
 0001:000fc780       ?degToRad@shdfnd@physx@@YAMM@Z 00000001800fd780 f i ClothMeshQuadifier.obj
 0001:000fc7c0       ?destroy@?$Array@UUniqueEdge@?A0x8843b9f3@cloth@nv@@VNonTrackingAllocator@34@@shdfnd@physx@@KAXPEAUUniqueEdge@?A0x8843b9f3@cloth@nv@@0@Z 00000001800fd7c0 f i ClothMeshQuadifier.obj
 0001:000fc800       ?grow@?$Array@UUniqueEdge@?A0x8843b9f3@cloth@nv@@VNonTrackingAllocator@34@@shdfnd@physx@@IEAAXI@Z 00000001800fd800 f i ClothMeshQuadifier.obj
 0001:000fc8c0       ?growAndPushBack@?$Array@UUniqueEdge@?A0x8843b9f3@cloth@nv@@VNonTrackingAllocator@34@@shdfnd@physx@@IEAAAEAUUniqueEdge@?A0x8843b9f3@cloth@nv@@AEBU4567@@Z 00000001800fd8c0 f i ClothMeshQuadifier.obj
 0001:000fcb40       ?isInUserMemory@?$Array@UUniqueEdge@?A0x8843b9f3@cloth@nv@@VNonTrackingAllocator@34@@shdfnd@physx@@QEBAIXZ 00000001800fdb40 f i ClothMeshQuadifier.obj
 0001:000fcb60       ?pushBack@?$Array@UUniqueEdge@?A0x8843b9f3@cloth@nv@@VNonTrackingAllocator@34@@shdfnd@physx@@QEAAAEAUUniqueEdge@?A0x8843b9f3@cloth@nv@@AEBU4567@@Z 00000001800fdb60 f i ClothMeshQuadifier.obj
 0001:000fcc70       ?recreate@?$Array@UUniqueEdge@?A0x8843b9f3@cloth@nv@@VNonTrackingAllocator@34@@shdfnd@physx@@IEAAXI@Z 00000001800fdc70 f i ClothMeshQuadifier.obj
 0001:000fcdf0       ?reserve@?$Array@UUniqueEdge@?A0x8843b9f3@cloth@nv@@VNonTrackingAllocator@34@@shdfnd@physx@@QEAAXI@Z 00000001800fddf0 f i ClothMeshQuadifier.obj
 0001:000fce50       ?resize@?$Array@UUniqueEdge@?A0x8843b9f3@cloth@nv@@VNonTrackingAllocator@34@@shdfnd@physx@@QEAAXIAEBUUniqueEdge@?A0x8843b9f3@cloth@nv@@@Z 00000001800fde50 f i ClothMeshQuadifier.obj
 0001:000fcf20       ?size@?$Array@UUniqueEdge@?A0x8843b9f3@cloth@nv@@VNonTrackingAllocator@34@@shdfnd@physx@@QEBAIXZ 00000001800fdf20 f i ClothMeshQuadifier.obj
 0001:000fcf40       NvClothCreateSimpleTetherCooker 00000001800fdf40 f   ClothSimpleTetherCooker.obj
 0001:000fcfb0       ?cook@ClothSimpleTetherCooker@cloth@nv@@UEAA_NAEBVClothMeshDesc@23@@Z 00000001800fdfb0 f   ClothSimpleTetherCooker.obj
 0001:000fd030       ?getCookerStatus@ClothSimpleTetherCooker@cloth@nv@@UEBAIXZ 00000001800fe030 f   ClothSimpleTetherCooker.obj
 0001:000fd050       ?getTetherData@ClothSimpleTetherCooker@cloth@nv@@UEBAXPEAIPEAM@Z 00000001800fe050 f   ClothSimpleTetherCooker.obj
 0001:000fd110       ?createTetherData@ClothSimpleTetherCooker@cloth@nv@@IEAAXAEBVClothMeshDesc@23@@Z 00000001800fe110 f   ClothSimpleTetherCooker.obj
 0001:000fd7b0       ??0ClothSimpleTetherCooker@cloth@nv@@QEAA@XZ 00000001800fe7b0 f i ClothSimpleTetherCooker.obj
 0001:000fd850       ??1ClothSimpleTetherCooker@cloth@nv@@UEAA@XZ 00000001800fe850 f i ClothSimpleTetherCooker.obj
 0001:000fd8c0       ??_GClothSimpleTetherCooker@cloth@nv@@UEAAPEAXI@Z 00000001800fe8c0 f i ClothSimpleTetherCooker.obj
 0001:000fd8c0       ??_EClothSimpleTetherCooker@cloth@nv@@UEAAPEAXI@Z 00000001800fe8c0 f i ClothSimpleTetherCooker.obj
 0001:000fd950       ?capacityIncrement@?$Array@MVNonTrackingAllocator@cloth@nv@@@shdfnd@physx@@IEBAIXZ 00000001800fe950 f i ClothSimpleTetherCooker.obj
 0001:000fd9c0       ?getNbTethersPerParticle@ClothSimpleTetherCooker@cloth@nv@@UEBAIXZ 00000001800fe9c0 f i ClothSimpleTetherCooker.obj
 0001:000fd9d0       ?growAndPushBack@?$Array@MVNonTrackingAllocator@cloth@nv@@@shdfnd@physx@@IEAAAEAMAEBM@Z 00000001800fe9d0 f i ClothSimpleTetherCooker.obj
 0001:000fdc00       ?pushBack@?$Array@MVNonTrackingAllocator@cloth@nv@@@shdfnd@physx@@QEAAAEAMAEBM@Z 00000001800fec00 f i ClothSimpleTetherCooker.obj
 0001:000fdd0b       __imp_load_?PxGetAssertHandler@physx@@YAAEAVPxAssertHandler@1@XZ 00000001800fed0b f   PxFoundationDEBUG_x64:PxFoundationDEBUG_x64.dll
 0001:000fdd17       __tailMerge_PxFoundationDEBUG_x64_dll 00000001800fed17 f i PxFoundationDEBUG_x64:PxFoundationDEBUG_x64.dll
 0001:000fdd90       ?PxGetAssertHandler@physx@@YAAEAVPxAssertHandler@1@XZ 00000001800fed90 f   PxFoundationDEBUG_x64:PxFoundationDEBUG_x64.dll
 0001:000fdd96       __imp_load_?atomicIncrement@shdfnd@physx@@YAHPECH@Z 00000001800fed96 f   PxFoundationDEBUG_x64:PxFoundationDEBUG_x64.dll
 0001:000fdda2       ?atomicIncrement@shdfnd@physx@@YAHPECH@Z 00000001800feda2 f   PxFoundationDEBUG_x64:PxFoundationDEBUG_x64.dll
 0001:000fdda8       __imp_load_?atomicDecrement@shdfnd@physx@@YAHPECH@Z 00000001800feda8 f   PxFoundationDEBUG_x64:PxFoundationDEBUG_x64.dll
 0001:000fddb4       ?atomicDecrement@shdfnd@physx@@YAHPECH@Z 00000001800fedb4 f   PxFoundationDEBUG_x64:PxFoundationDEBUG_x64.dll
 0001:000fddba       __imp_load_?allocate@TempAllocator@shdfnd@physx@@QEAAPEAX_KPEBDH@Z 00000001800fedba f   PxFoundationDEBUG_x64:PxFoundationDEBUG_x64.dll
 0001:000fddc6       ?allocate@TempAllocator@shdfnd@physx@@QEAAPEAX_KPEBDH@Z 00000001800fedc6 f   PxFoundationDEBUG_x64:PxFoundationDEBUG_x64.dll
 0001:000fddcc       __imp_load_?deallocate@TempAllocator@shdfnd@physx@@QEAAXPEAX@Z 00000001800fedcc f   PxFoundationDEBUG_x64:PxFoundationDEBUG_x64.dll
 0001:000fddd8       ?deallocate@TempAllocator@shdfnd@physx@@QEAAXPEAX@Z 00000001800fedd8 f   PxFoundationDEBUG_x64:PxFoundationDEBUG_x64.dll
 0001:000fddde       __imp_load_cuMemAlloc_v2   00000001800fedde f   cuda:nvcuda.dll
 0001:000fddea       __tailMerge_nvcuda_dll     00000001800fedea f i cuda:nvcuda.dll
 0001:000fde63       cuMemAlloc_v2              00000001800fee63 f   cuda:nvcuda.dll
 0001:000fde69       __imp_load_cuMemFree_v2    00000001800fee69 f   cuda:nvcuda.dll
 0001:000fde75       cuMemFree_v2               00000001800fee75 f   cuda:nvcuda.dll
 0001:000fde7b       __imp_load_cuMemFreeHost   00000001800fee7b f   cuda:nvcuda.dll
 0001:000fde87       cuMemFreeHost              00000001800fee87 f   cuda:nvcuda.dll
 0001:000fde8d       __imp_load_cuMemHostAlloc  00000001800fee8d f   cuda:nvcuda.dll
 0001:000fde99       cuMemHostAlloc             00000001800fee99 f   cuda:nvcuda.dll
 0001:000fde9f       __imp_load_cuMemHostGetDevicePointer_v2 00000001800fee9f f   cuda:nvcuda.dll
 0001:000fdeab       cuMemHostGetDevicePointer_v2 00000001800feeab f   cuda:nvcuda.dll
 0001:000fdeb1       __imp_load_cuMemcpyHtoD_v2 00000001800feeb1 f   cuda:nvcuda.dll
 0001:000fdebd       cuMemcpyHtoD_v2            00000001800feebd f   cuda:nvcuda.dll
 0001:000fdec3       __imp_load_cuMemcpyDtoH_v2 00000001800feec3 f   cuda:nvcuda.dll
 0001:000fdecf       cuMemcpyDtoH_v2            00000001800feecf f   cuda:nvcuda.dll
 0001:000fded5       __imp_load_cuMemcpyDtoD_v2 00000001800feed5 f   cuda:nvcuda.dll
 0001:000fdee1       cuMemcpyDtoD_v2            00000001800feee1 f   cuda:nvcuda.dll
 0001:000fdee7       __imp_load_cuMemsetD32_v2  00000001800feee7 f   cuda:nvcuda.dll
 0001:000fdef3       cuMemsetD32_v2             00000001800feef3 f   cuda:nvcuda.dll
 0001:000fdef9       __imp_load_cuCtxPushCurrent_v2 00000001800feef9 f   cuda:nvcuda.dll
 0001:000fdf05       cuCtxPushCurrent_v2        00000001800fef05 f   cuda:nvcuda.dll
 0001:000fdf0b       __imp_load_cuCtxPopCurrent_v2 00000001800fef0b f   cuda:nvcuda.dll
 0001:000fdf17       cuCtxPopCurrent_v2         00000001800fef17 f   cuda:nvcuda.dll
 0001:000fdf1d       __imp_load_cuDeviceGetAttribute 00000001800fef1d f   cuda:nvcuda.dll
 0001:000fdf29       cuDeviceGetAttribute       00000001800fef29 f   cuda:nvcuda.dll
 0001:000fdf2f       __imp_load_cuCtxGetDevice  00000001800fef2f f   cuda:nvcuda.dll
 0001:000fdf3b       cuCtxGetDevice             00000001800fef3b f   cuda:nvcuda.dll
 0001:000fdf41       __imp_load_cuModuleLoadFatBinary 00000001800fef41 f   cuda:nvcuda.dll
 0001:000fdf4d       cuModuleLoadFatBinary      00000001800fef4d f   cuda:nvcuda.dll
 0001:000fdf53       __imp_load_cuModuleGetFunction 00000001800fef53 f   cuda:nvcuda.dll
 0001:000fdf5f       cuModuleGetFunction        00000001800fef5f f   cuda:nvcuda.dll
 0001:000fdf65       __imp_load_cuMemcpyHtoDAsync_v2 00000001800fef65 f   cuda:nvcuda.dll
 0001:000fdf71       cuMemcpyHtoDAsync_v2       00000001800fef71 f   cuda:nvcuda.dll
 0001:000fdf77       __imp_load_cuStreamCreate  00000001800fef77 f   cuda:nvcuda.dll
 0001:000fdf83       cuStreamCreate             00000001800fef83 f   cuda:nvcuda.dll
 0001:000fdf89       __imp_load_cuStreamAddCallback 00000001800fef89 f   cuda:nvcuda.dll
 0001:000fdf95       cuStreamAddCallback        00000001800fef95 f   cuda:nvcuda.dll
 0001:000fdf9b       __imp_load_cuStreamSynchronize 00000001800fef9b f   cuda:nvcuda.dll
 0001:000fdfa7       cuStreamSynchronize        00000001800fefa7 f   cuda:nvcuda.dll
 0001:000fdfad       __imp_load_cuStreamDestroy_v2 00000001800fefad f   cuda:nvcuda.dll
 0001:000fdfb9       cuStreamDestroy_v2         00000001800fefb9 f   cuda:nvcuda.dll
 0001:000fdfbf       __imp_load_cuFuncGetAttribute 00000001800fefbf f   cuda:nvcuda.dll
 0001:000fdfcb       cuFuncGetAttribute         00000001800fefcb f   cuda:nvcuda.dll
 0001:000fdfd1       __imp_load_cuLaunchKernel  00000001800fefd1 f   cuda:nvcuda.dll
 0001:000fdfdd       cuLaunchKernel             00000001800fefdd f   cuda:nvcuda.dll
 0001:000fdfe3       __imp_load_cuFuncSetBlockShape 00000001800fefe3 f   cuda:nvcuda.dll
 0001:000fdfef       cuFuncSetBlockShape        00000001800fefef f   cuda:nvcuda.dll
 0001:000fdff8       ??$PFromRva@PEAP6A_JXZ@@YAPEAP6A_JXZK@Z 00000001800feff8 f i Delayimp:delayhlp.obj
 0001:000fe008       ??$PFromRva@PEAPEAUHINSTANCE__@@@@YAPEAPEAUHINSTANCE__@@K@Z 00000001800ff008 f i Delayimp:delayhlp.obj
 0001:000fe018       ??$PFromRva@PEAU_IMAGE_IMPORT_BY_NAME@@@@YAPEAU_IMAGE_IMPORT_BY_NAME@@K@Z 00000001800ff018 f i Delayimp:delayhlp.obj
 0001:000fe028       ??$PFromRva@PEAU_IMAGE_THUNK_DATA64@@@@YAPEAU_IMAGE_THUNK_DATA64@@K@Z 00000001800ff028 f i Delayimp:delayhlp.obj
 0001:000fe038       ??$PFromRva@PEBD@@YAPEBDK@Z 00000001800ff038 f i Delayimp:delayhlp.obj
 0001:000fe048       ??$PFromRva@PEBUImgDelayDescr@@@@YAPEBUImgDelayDescr@@K@Z 00000001800ff048 f i Delayimp:delayhlp.obj
 0001:000fe058       ??$PFromRva@PEBU_IMAGE_THUNK_DATA64@@@@YAPEBU_IMAGE_THUNK_DATA64@@K@Z 00000001800ff058 f i Delayimp:delayhlp.obj
 0001:000fe068       ?CountOfImports@@YAIPEBU_IMAGE_THUNK_DATA64@@@Z 00000001800ff068 f i Delayimp:delayhlp.obj
 0001:000fe084       ?DloadAcquireSectionWriteAccess@@YAXXZ 00000001800ff084 f i Delayimp:delayhlp.obj
 0001:000fe16c       ?DloadGetSRWLockFunctionPointers@@YAEXZ 00000001800ff16c f i Delayimp:delayhlp.obj
 0001:000fe230       ?DloadLock@@YAXXZ          00000001800ff230 f i Delayimp:delayhlp.obj
 0001:000fe298       ?DloadMakePermanentImageCommit@@YAXPEAX_K@Z 00000001800ff298 f i Delayimp:delayhlp.obj
 0001:000fe354       ?DloadObtainSection@@YAPEAXPEAK0@Z 00000001800ff354 f i Delayimp:delayhlp.obj
 0001:000fe414       ?DloadProtectSection@@YAXKPEAK@Z 00000001800ff414 f i Delayimp:delayhlp.obj
 0001:000fe4c8       ?DloadReleaseSectionWriteAccess@@YAXXZ 00000001800ff4c8 f i Delayimp:delayhlp.obj
 0001:000fe598       ?DloadUnlock@@YAXXZ        00000001800ff598 f i Delayimp:delayhlp.obj
 0001:000fe5f8       ?IndexFromPImgThunkData@@YAIPEBU_IMAGE_THUNK_DATA64@@0@Z 00000001800ff5f8 f i Delayimp:delayhlp.obj
 0001:000fe78c       HRESULT_FROM_WIN32         00000001800ff78c f i Delayimp:delayhlp.obj
 0001:000fe7a0       ReadAcquire64              00000001800ff7a0 f i Delayimp:delayhlp.obj
 0001:000fe7a4       ReadPointerAcquire         00000001800ff7a4 f i Delayimp:delayhlp.obj
 0001:000fe7a8       WritePointerRelease        00000001800ff7a8 f i Delayimp:delayhlp.obj
 0001:000fe7ac       WriteRelease64             00000001800ff7ac f i Delayimp:delayhlp.obj
 0001:000fe7b0       __FUnloadDelayLoadedDLL2   00000001800ff7b0 f   Delayimp:delayhlp.obj
 0001:000fe898       __HrLoadAllImportsForDll   00000001800ff898 f   Delayimp:delayhlp.obj
 0001:000fe928       __delayLoadHelper2         00000001800ff928 f   Delayimp:delayhlp.obj
 0001:000fece0       ?_Debug_message@std@@YAXPEBG0I@Z 00000001800ffce0 f   libcpmtd:stdthrow.obj
 0001:000fed20       ?_Debug_message@std@@YAXPEB_W0I@Z 00000001800ffd20 f   libcpmtd:stdthrow.obj
 0001:000fed80       _RTC_AllocaHelper          00000001800ffd80 f   LIBCMTD:_stack_.obj
 0001:000fedd0       _RTC_CheckStackVars        00000001800ffdd0 f   LIBCMTD:_stack_.obj
 0001:000fee80       _RTC_CheckStackVars2       00000001800ffe80 f   LIBCMTD:_stack_.obj
 0001:000fefd0       _CRT_RTC_INIT              00000001800fffd0 f   LIBCMTD:_init_.obj
 0001:000fefe0       _CRT_RTC_INITW             00000001800fffe0 f   LIBCMTD:_init_.obj
 0001:000feff0       _RTC_InitBase              00000001800ffff0 f   LIBCMTD:_init_.obj
 0001:000ff040       _RTC_Shutdown              0000000180100040 f   LIBCMTD:_init_.obj
 0001:000ff080       __chkstk                   0000000180100080 f   LIBCMTD:_chkstk_.obj
 0001:000ff080       _alloca_probe              0000000180100080 f   LIBCMTD:_chkstk_.obj
 0001:000ff0f0       ??2@YAPEAX_K@Z             00000001801000f0 f   LIBCMTD:new_scalar.obj
 0001:000ff160       ??3@YAXPEAX_K@Z            0000000180100160 f   LIBCMTD:delete_scalar_size.obj
 0001:000ff190       ??_U@YAPEAX_K@Z            0000000180100190 f   LIBCMTD:new_array.obj
 0001:000ff1b0       ??3@YAXPEAX@Z              00000001801001b0 f   LIBCMTD:delete_scalar.obj
 0001:000ff1e0       ??_V@YAXPEAX@Z             00000001801001e0 f   LIBCMTD:delete_array.obj
 0001:000ff200       ??_V@YAXPEAX_K@Z           0000000180100200 f   LIBCMTD:delete_array_size.obj
 0001:000ff720       _CRT_INIT                  0000000180100720 f   LIBCMTD:dll_dllmain.obj
 0001:000ff760       _DllMainCRTStartup         0000000180100760 f   LIBCMTD:dll_dllmain.obj
 0001:000ff7b0       _guard_check_icall_nop     00000001801007b0 f i LIBCMTD:guard_support.obj
 0001:000ff7c0       _guard_icall_checks_enforced 00000001801007c0 f i LIBCMTD:guard_support.obj
 0001:000ff800       ??$__vcrt_va_start_verify_argument_type@QEBD@@YAXXZ 0000000180100800 f i LIBCMTD:_error_.obj
 0001:000ff8e0       ?_RTC_AllocaFailure@@YAXPEAXPEAU_RTC_ALLOCA_NODE@@H@Z 00000001801008e0 f   LIBCMTD:_error_.obj
 0001:000ffad0       ?_RTC_Failure@@YAXPEAXH@Z  0000000180100ad0 f   LIBCMTD:_error_.obj
 0001:000ffb40       ?_RTC_StackFailure@@YAXPEAXPEBD@Z 0000000180100b40 f   LIBCMTD:_error_.obj
 0001:001000d0       _RTC_UninitUse             00000001801010d0 f   LIBCMTD:_error_.obj
 0001:00100240       _vsprintf_s_l              0000000180101240 f i LIBCMTD:_error_.obj
 0001:001002c0       sprintf_s                  00000001801012c0 f i LIBCMTD:_error_.obj
 0001:00100310       ?_RTC_GetErrorFunc@@YAP6AHHPEBDH00ZZPEBX@Z 0000000180101310 f   LIBCMTD:_userapi_.obj
 0001:00100320       ?_RTC_GetErrorFuncW@@YAP6AHHPEB_WH00ZZPEBX@Z 0000000180101320 f   LIBCMTD:_userapi_.obj
 0001:00100330       _RTC_GetErrDesc            0000000180101330 f   LIBCMTD:_userapi_.obj
 0001:00100350       _RTC_NumErrors             0000000180101350 f   LIBCMTD:_userapi_.obj
 0001:00100360       _RTC_SetErrorFunc          0000000180101360 f   LIBCMTD:_userapi_.obj
 0001:00100380       _RTC_SetErrorFuncW         0000000180101380 f   LIBCMTD:_userapi_.obj
 0001:001003a0       _RTC_SetErrorType          00000001801013a0 f   LIBCMTD:_userapi_.obj
 0001:001003d0       ??0bad_alloc@std@@AEAA@QEBD@Z 00000001801013d0 f i LIBCMTD:throw_bad_alloc.obj
 0001:00100420       ??0bad_alloc@std@@QEAA@AEBV01@@Z 0000000180101420 f i LIBCMTD:throw_bad_alloc.obj
 0001:00100470       ??0bad_alloc@std@@QEAA@XZ  0000000180101470 f i LIBCMTD:throw_bad_alloc.obj
 0001:001004c0       ??0bad_array_new_length@std@@QEAA@AEBV01@@Z 00000001801014c0 f i LIBCMTD:throw_bad_alloc.obj
 0001:00100510       ??0bad_array_new_length@std@@QEAA@XZ 0000000180101510 f i LIBCMTD:throw_bad_alloc.obj
 0001:00100550       ??0exception@std@@QEAA@AEBV01@@Z 0000000180101550 f i LIBCMTD:throw_bad_alloc.obj
 0001:001005c0       ??0exception@std@@QEAA@QEBDH@Z 00000001801015c0 f i LIBCMTD:throw_bad_alloc.obj
 0001:00100620       ??1bad_alloc@std@@UEAA@XZ  0000000180101620 f i LIBCMTD:throw_bad_alloc.obj
 0001:00100640       ??1bad_array_new_length@std@@UEAA@XZ 0000000180101640 f i LIBCMTD:throw_bad_alloc.obj
 0001:00100660       ??1exception@std@@UEAA@XZ  0000000180101660 f i LIBCMTD:throw_bad_alloc.obj
 0001:001006a0       ??_Gbad_alloc@std@@UEAAPEAXI@Z 00000001801016a0 f i LIBCMTD:throw_bad_alloc.obj
 0001:001006a0       ??_Ebad_alloc@std@@UEAAPEAXI@Z 00000001801016a0 f i LIBCMTD:throw_bad_alloc.obj
 0001:001006f0       ??_Gbad_array_new_length@std@@UEAAPEAXI@Z 00000001801016f0 f i LIBCMTD:throw_bad_alloc.obj
 0001:001006f0       ??_Ebad_array_new_length@std@@UEAAPEAXI@Z 00000001801016f0 f i LIBCMTD:throw_bad_alloc.obj
 0001:00100740       ??_Gexception@std@@UEAAPEAXI@Z 0000000180101740 f i LIBCMTD:throw_bad_alloc.obj
 0001:00100740       ??_Eexception@std@@UEAAPEAXI@Z 0000000180101740 f i LIBCMTD:throw_bad_alloc.obj
 0001:00100790       ?__scrt_throw_std_bad_alloc@@YAXXZ 0000000180101790 f   LIBCMTD:throw_bad_alloc.obj
 0001:001007c0       ?__scrt_throw_std_bad_array_new_length@@YAXXZ 00000001801017c0 f   LIBCMTD:throw_bad_alloc.obj
 0001:001007f0       ?what@exception@std@@UEBAPEBDXZ 00000001801017f0 f i LIBCMTD:throw_bad_alloc.obj
 0001:00100840       ??$__crt_fast_decode_pointer@PEAP6AXXZ@@YAPEAP6AXXZQEAP6AXXZ@Z 0000000180101840 f i LIBCMTD:utility.obj
 0001:00100890       ??$__crt_fast_encode_pointer@PEAP6AXXZ@@YAPEAP6AXXZQEAP6AXXZ@Z 0000000180101890 f i LIBCMTD:utility.obj
 0001:001008e0       ?__crt_rotate_pointer_value@@YA_K_KH@Z 00000001801018e0 f i LIBCMTD:utility.obj
 0001:00100900       ?configure_argv@__scrt_narrow_argv_policy@@SAHXZ 0000000180101900 f i LIBCMTD:utility.obj
 0001:00100ad0       NtCurrentTeb               0000000180101ad0 f i LIBCMTD:utility.obj
 0001:00100ae0       __scrt_acquire_startup_lock 0000000180101ae0 f   LIBCMTD:utility.obj
 0001:00100b60       __scrt_dllmain_after_initialize_c 0000000180101b60 f   LIBCMTD:utility.obj
 0001:00100ba0       __scrt_dllmain_before_initialize_c 0000000180101ba0 f   LIBCMTD:utility.obj
 0001:00100bd0       __scrt_dllmain_crt_thread_attach 0000000180101bd0 f   LIBCMTD:utility.obj
 0001:00100c10       __scrt_dllmain_crt_thread_detach 0000000180101c10 f   LIBCMTD:utility.obj
 0001:00100c30       __scrt_dllmain_exception_filter 0000000180101c30 f   LIBCMTD:utility.obj
 0001:00100cb0       __scrt_dllmain_uninitialize_c 0000000180101cb0 f   LIBCMTD:utility.obj
 0001:00100cf0       __scrt_dllmain_uninitialize_critical 0000000180101cf0 f   LIBCMTD:utility.obj
 0001:00100d10       __scrt_initialize_crt      0000000180101d10 f   LIBCMTD:utility.obj
 0001:00100d70       __scrt_initialize_onexit_tables 0000000180101d70 f   LIBCMTD:utility.obj
 0001:00100eb0       __scrt_is_nonwritable_in_current_image 0000000180101eb0 f   LIBCMTD:utility.obj
 0001:00100f60       __scrt_release_startup_lock 0000000180101f60 f   LIBCMTD:utility.obj
 0001:00100fa0       __scrt_uninitialize_crt    0000000180101fa0 f   LIBCMTD:utility.obj
 0001:00100ff0       _onexit                    0000000180101ff0 f   LIBCMTD:utility.obj
 0001:001010a0       at_quick_exit              00000001801020a0 f   LIBCMTD:utility.obj
 0001:00101110       atexit                     0000000180102110 f   LIBCMTD:utility.obj
 0001:00101150       __security_init_cookie     0000000180102150 f   LIBCMTD:gs_support.obj
 0001:001012b0       DllMain                    00000001801022b0 f   LIBCMTD:dll_dllmain_stub.obj
 0001:001012d0       ?__scrt_initialize_type_info@@YAXXZ 00000001801022d0 f   LIBCMTD:tncleanup.obj
 0001:001012f0       ?__scrt_uninitialize_type_info@@YAXXZ 00000001801022f0 f   LIBCMTD:tncleanup.obj
 0001:00101310       __local_stdio_scanf_options 0000000180102310 f i LIBCMTD:default_local_stdio_options.obj
 0001:00101320       __scrt_initialize_default_local_stdio_options 0000000180102320 f   LIBCMTD:default_local_stdio_options.obj
 0001:00101380       __scrt_get_dyn_tls_init_callback 0000000180102380 f   LIBCMTD:dyn_tls_init.obj
 0001:00101390       __crt_debugger_hook        0000000180102390 f   LIBCMTD:utility_desktop.obj
 0001:001013b0       __scrt_fastfail            00000001801023b0 f   LIBCMTD:utility_desktop.obj
 0001:001015b0       __scrt_get_show_window_mode 00000001801025b0 f   LIBCMTD:utility_desktop.obj
 0001:00101620       __scrt_initialize_winrt    0000000180102620 f   LIBCMTD:utility_desktop.obj
 0001:00101630       __scrt_is_managed_app      0000000180102630 f   LIBCMTD:utility_desktop.obj
 0001:00101700       __scrt_set_unhandled_exception_filter 0000000180102700 f   LIBCMTD:utility_desktop.obj
 0001:00101720       __scrt_unhandled_exception_filter 0000000180102720 f   LIBCMTD:utility_desktop.obj
 0001:001017b0       _RTC_Initialize            00000001801027b0 f   LIBCMTD:_initsect_.obj
 0001:00101810       _RTC_Terminate             0000000180102810 f   LIBCMTD:_initsect_.obj
 0001:00101870       _guard_check_icall         0000000180102870 f i LIBCMTD:checkcfg.obj
 0001:00101eb0       ?_RTC_GetSrcLine@@YAHPEAEPEA_WKPEAH1K@Z 0000000180102eb0 f   LIBCMTD:_pdblkup_.obj
 0001:00102440       __GSHandlerCheck           0000000180103440 f   LIBCMTD:_gshandler_.obj
 0001:00102490       __GSHandlerCheckCommon     0000000180103490 f   LIBCMTD:_gshandler_.obj
 0001:001025e0       __security_check_cookie    00000001801035e0 f   LIBCMTD:_amdsecgs_.obj
 0001:00102610       ??1type_info@@UEAA@XZ      0000000180103610 f   LIBCMTD:std_type_info_static.obj
 0001:00102630       ??_Gtype_info@@UEAAPEAXI@Z 0000000180103630 f i LIBCMTD:std_type_info_static.obj
 0001:00102630       ??_Etype_info@@UEAAPEAXI@Z 0000000180103630 f i LIBCMTD:std_type_info_static.obj
 0001:00102680       __isa_available_init       0000000180103680 f   LIBCMTD:_cpu_disp_.obj
 0001:00102ae0       _get_startup_argv_mode     0000000180103ae0 f   LIBCMTD:argv_mode.obj
 0001:00102af0       __scrt_is_ucrt_dll_in_use  0000000180103af0 f   LIBCMTD:ucrt_detection.obj
 0001:00102b20       __raise_securityfailure    0000000180103b20 f   LIBCMTD:gs_report.obj
 0001:00102b70       __report_gsfailure         0000000180103b70 f   LIBCMTD:gs_report.obj
 0001:00102c80       __report_rangecheckfailure 0000000180103c80 f   LIBCMTD:gs_report.obj
 0001:00102ca0       __report_securityfailure   0000000180103ca0 f   LIBCMTD:gs_report.obj
 0001:00102d70       __report_securityfailureEx 0000000180103d70 f   LIBCMTD:gs_report.obj
 0001:00103070       ??$__crt_fast_decode_pointer@P6AXXZ@@YAP6AXXZQ6AXXZ@Z 0000000180104070 f i libvcruntimed:purevirt.obj
 0001:001030c0       ??$__crt_fast_encode_pointer@P6AXXZ@@YAP6AXXZQ6AXXZ@Z 00000001801040c0 f i libvcruntimed:purevirt.obj
 0001:00103110       ??$__crt_interlocked_compare_exchange_pointer@$$A6AXXZ$$T$$T@@YAP6AXXZPEDS6AXXZ$$T1@Z 0000000180104110 f i libvcruntimed:purevirt.obj
 0001:00103160       ??$__crt_interlocked_exchange_pointer@$$A6AXXZP6AXXZ@@YAP6AXXZPEDS6AXXZQ6AXXZ@Z 0000000180104160 f i libvcruntimed:purevirt.obj
 0001:00103180       ??$__crt_interlocked_read_pointer@$$A6AXXZ@@YAP6AXXZPEDS6AXXZ@Z 0000000180104180 f i libvcruntimed:purevirt.obj
 0001:001031b0       _get_purecall_handler      00000001801041b0 f   libvcruntimed:purevirt.obj
 0001:001031e0       _purecall                  00000001801041e0 f   libvcruntimed:purevirt.obj
 0001:00103230       _set_purecall_handler      0000000180104230 f   libvcruntimed:purevirt.obj
 0001:00103280       memcpy                     0000000180104280 f   libvcruntimed:memcpy.obj
 0001:00103280       memmove                    0000000180104280 f   libvcruntimed:memcpy.obj
 0001:001037e0       memset                     00000001801047e0 f   libvcruntimed:memset.obj
 0001:001039f0       __C_specific_handler       00000001801049f0 f   libvcruntimed:_chandler_.obj
 0001:00103f40       ??$?RD@__crt_public_free_policy@@QEBAXQEBD@Z 0000000180104f40 f i libvcruntimed:std_exception.obj
 0001:00103f70       ??0?$__crt_unique_heap_ptr@DU__crt_public_free_policy@@@@QEAA@QEAD@Z 0000000180104f70 f i libvcruntimed:std_exception.obj
 0001:00103fa0       ??1?$__crt_unique_heap_ptr@DU__crt_public_free_policy@@@@QEAA@XZ 0000000180104fa0 f i libvcruntimed:std_exception.obj
 0001:00103fc0       ??B?$__crt_unique_heap_ptr@DU__crt_public_free_policy@@@@QEBA_NXZ 0000000180104fc0 f i libvcruntimed:std_exception.obj
 0001:00103fe0       ?detach@?$__crt_unique_heap_ptr@DU__crt_public_free_policy@@@@QEAAPEADXZ 0000000180104fe0 f i libvcruntimed:std_exception.obj
 0001:00104020       ?get@?$__crt_unique_heap_ptr@DU__crt_public_free_policy@@@@QEBAPEADXZ 0000000180105020 f i libvcruntimed:std_exception.obj
 0001:00104040       ?is_valid@?$__crt_unique_heap_ptr@DU__crt_public_free_policy@@@@QEBA_NXZ 0000000180105040 f i libvcruntimed:std_exception.obj
 0001:00104080       ?release@?$__crt_unique_heap_ptr@DU__crt_public_free_policy@@@@QEAAXXZ 0000000180105080 f i libvcruntimed:std_exception.obj
 0001:001040c0       __std_exception_copy       00000001801050c0 f   libvcruntimed:std_exception.obj
 0001:00104240       __std_exception_destroy    0000000180105240 f   libvcruntimed:std_exception.obj
 0001:00104290       _CxxThrowException         0000000180105290 f   libvcruntimed:throw.obj
 0001:00104420       __vcrt_initialize          0000000180105420 f   libvcruntimed:initialization.obj
 0001:00104470       __vcrt_thread_attach       0000000180105470 f   libvcruntimed:initialization.obj
 0001:00104490       __vcrt_thread_detach       0000000180105490 f   libvcruntimed:initialization.obj
 0001:001044b0       __vcrt_uninitialize        00000001801054b0 f   libvcruntimed:initialization.obj
 0001:001044e0       __vcrt_uninitialize_critical 00000001801054e0 f   libvcruntimed:initialization.obj
 0001:00104550       ??$?RD@__crt_internal_free_policy@@QEBAXQEBD@Z 0000000180105550 f i libvcruntimed:std_type_info.obj
 0001:00104580       ??$?RX@__crt_internal_free_policy@@QEBAXQEBX@Z 0000000180105580 f i libvcruntimed:std_type_info.obj
 0001:001045b0       ??$__crt_interlocked_compare_exchange_pointer@$$CBD$$T$$T@@YAPEBDPEDSEBD$$T1@Z 00000001801055b0 f i libvcruntimed:std_type_info.obj
 0001:00104600       ??$__crt_interlocked_compare_exchange_pointer@$$CBDPEAD$$T@@YAPEBDPEDSEBDQEAD$$T@Z 0000000180105600 f i libvcruntimed:std_type_info.obj
 0001:00104650       ??$__crt_interlocked_read_pointer@$$CBD@@YAPEBDPEDSEBD@Z 0000000180105650 f i libvcruntimed:std_type_info.obj
 0001:00104680       ??0?$__crt_unique_heap_ptr@DU__crt_internal_free_policy@@@@QEAA@QEAD@Z 0000000180105680 f i libvcruntimed:std_type_info.obj
 0001:001046b0       ??0?$__crt_unique_heap_ptr@XU__crt_internal_free_policy@@@@QEAA@QEAX@Z 00000001801056b0 f i libvcruntimed:std_type_info.obj
 0001:001046e0       ??1?$__crt_unique_heap_ptr@DU__crt_internal_free_policy@@@@QEAA@XZ 00000001801056e0 f i libvcruntimed:std_type_info.obj
 0001:00104700       ??1?$__crt_unique_heap_ptr@XU__crt_internal_free_policy@@@@QEAA@XZ 0000000180105700 f i libvcruntimed:std_type_info.obj
 0001:00104740       ??B?$__crt_unique_heap_ptr@DU__crt_internal_free_policy@@@@QEBA_NXZ 0000000180105740 f i libvcruntimed:std_type_info.obj
 0001:00104760       ??B?$__crt_unique_heap_ptr@XU__crt_internal_free_policy@@@@QEBA_NXZ 0000000180105760 f i libvcruntimed:std_type_info.obj
 0001:001047f0       ?detach@?$__crt_unique_heap_ptr@XU__crt_internal_free_policy@@@@QEAAPEAXXZ 00000001801057f0 f i libvcruntimed:std_type_info.obj
 0001:00104830       ?get@?$__crt_unique_heap_ptr@DU__crt_internal_free_policy@@@@QEBAPEADXZ 0000000180105830 f i libvcruntimed:std_type_info.obj
 0001:00104850       ?get@?$__crt_unique_heap_ptr@XU__crt_internal_free_policy@@@@QEBAPEAXXZ 0000000180105850 f i libvcruntimed:std_type_info.obj
 0001:00104870       ?is_valid@?$__crt_unique_heap_ptr@DU__crt_internal_free_policy@@@@QEBA_NXZ 0000000180105870 f i libvcruntimed:std_type_info.obj
 0001:001048b0       ?is_valid@?$__crt_unique_heap_ptr@XU__crt_internal_free_policy@@@@QEBA_NXZ 00000001801058b0 f i libvcruntimed:std_type_info.obj
 0001:001048f0       ?release@?$__crt_unique_heap_ptr@DU__crt_internal_free_policy@@@@QEAAXXZ 00000001801058f0 f i libvcruntimed:std_type_info.obj
 0001:00104930       ?release@?$__crt_unique_heap_ptr@XU__crt_internal_free_policy@@@@QEAAXXZ 0000000180105930 f i libvcruntimed:std_type_info.obj
 0001:00104970       __std_type_info_compare    0000000180105970 f   libvcruntimed:std_type_info.obj
 0001:001049c0       __std_type_info_destroy_list 00000001801059c0 f   libvcruntimed:std_type_info.obj
 0001:00104a30       __std_type_info_hash       0000000180105a30 f   libvcruntimed:std_type_info.obj
 0001:00104b10       __std_type_info_name       0000000180105b10 f   libvcruntimed:std_type_info.obj
 0001:00104e90       __vcrt_GetModuleFileNameW  0000000180105e90 f   libvcruntimed:winapi_thunks.obj
 0001:00104ed0       __vcrt_GetModuleHandleW    0000000180105ed0 f   libvcruntimed:winapi_thunks.obj
 0001:00104ef0       __vcrt_LoadLibraryExW      0000000180105ef0 f   libvcruntimed:winapi_thunks.obj
 0001:00104f30       ??$?B$$A6AXXZ@__crt_fast_encoded_nullptr_t@@QEBAP6AXXZXZ 0000000180105f30 f i libvcruntimed:purevirt_data.obj
 0001:00104f50       ?__crt_fast_encode_pointer@@YA?AU__crt_fast_encoded_nullptr_t@@$$T@Z 0000000180105f50 f i libvcruntimed:purevirt_data.obj
 0001:00104f70       __vcrt_initialize_pure_virtual_call_handler 0000000180105f70 f   libvcruntimed:purevirt_data.obj
 0001:00104fb0       _local_unwind              0000000180105fb0 f   libvcruntimed:_jmpuwind_.obj
 0001:00104fe0       _NLG_Notify                0000000180105fe0 f   libvcruntimed:_jmpuwind_.obj
 0001:00105000       __NLG_Dispatch2            0000000180106000 f   libvcruntimed:_jmpuwind_.obj
 0001:00105010       __NLG_Return2              0000000180106010 f   libvcruntimed:_jmpuwind_.obj
 0001:00105030       __except_validate_context_record 0000000180106030 f   libvcruntimed:jbcxrval.obj
 0001:001050a0       __except_validate_jump_buffer 00000001801060a0 f   libvcruntimed:jbcxrval.obj
 0001:00105130       ??$?RU__vcrt_ptd@@@__crt_internal_free_policy@@QEBAXQEBU__vcrt_ptd@@@Z 0000000180106130 f i libvcruntimed:per_thread_data.obj
 0001:00105160       ??0?$__crt_unique_heap_ptr@U__vcrt_ptd@@U__crt_internal_free_policy@@@@QEAA@QEAU__vcrt_ptd@@@Z 0000000180106160 f i libvcruntimed:per_thread_data.obj
 0001:001051c0       ??1?$__crt_unique_heap_ptr@U__vcrt_ptd@@U__crt_internal_free_policy@@@@QEAA@XZ 00000001801061c0 f i libvcruntimed:per_thread_data.obj
 0001:00105210       ??B?$__crt_unique_heap_ptr@U__vcrt_ptd@@U__crt_internal_free_policy@@@@QEBA_NXZ 0000000180106210 f i libvcruntimed:per_thread_data.obj
 0001:00105230       ?detach@?$__crt_unique_heap_ptr@U__vcrt_ptd@@U__crt_internal_free_policy@@@@QEAAPEAU__vcrt_ptd@@XZ 0000000180106230 f i libvcruntimed:per_thread_data.obj
 0001:00105270       ?get@?$__crt_unique_heap_ptr@U__vcrt_ptd@@U__crt_internal_free_policy@@@@QEBAPEAU__vcrt_ptd@@XZ 0000000180106270 f i libvcruntimed:per_thread_data.obj
 0001:00105290       ?is_valid@?$__crt_unique_heap_ptr@U__vcrt_ptd@@U__crt_internal_free_policy@@@@QEBA_NXZ 0000000180106290 f i libvcruntimed:per_thread_data.obj
 0001:001052d0       ?release@?$__crt_unique_heap_ptr@U__vcrt_ptd@@U__crt_internal_free_policy@@@@QEAAXXZ 00000001801062d0 f i libvcruntimed:per_thread_data.obj
 0001:00105350       __vcrt_freefls             0000000180106350 f   libvcruntimed:per_thread_data.obj
 0001:001053a0       __vcrt_freeptd             00000001801063a0 f   libvcruntimed:per_thread_data.obj
 0001:00105420       __vcrt_getptd              0000000180106420 f   libvcruntimed:per_thread_data.obj
 0001:00105450       __vcrt_getptd_noexit       0000000180106450 f   libvcruntimed:per_thread_data.obj
 0001:00105660       __vcrt_initialize_ptd      0000000180106660 f   libvcruntimed:per_thread_data.obj
 0001:001056c0       __vcrt_uninitialize_ptd    00000001801066c0 f   libvcruntimed:per_thread_data.obj
 0001:00105700       __vcrt_initialize_locks    0000000180106700 f   libvcruntimed:locks.obj
 0001:00105790       __vcrt_lock                0000000180106790 f   libvcruntimed:locks.obj
 0001:001057d0       __vcrt_uninitialize_locks  00000001801067d0 f   libvcruntimed:locks.obj
 0001:00105840       __vcrt_unlock              0000000180106840 f   libvcruntimed:locks.obj
 0001:00105880       ??$?BX@__crt_fast_encoded_nullptr_t@@QEBAPEAXXZ 0000000180106880 f i libvcruntimed:winapi_downlevel.obj
 0001:001058a0       ??$__crt_fast_decode_pointer@PEAX@@YAPEAXQEAX@Z 00000001801068a0 f i libvcruntimed:winapi_downlevel.obj
 0001:001058f0       ??$__crt_fast_encode_pointer@PEAX@@YAPEAXQEAX@Z 00000001801068f0 f i libvcruntimed:winapi_downlevel.obj
 0001:00105940       ??$__crt_interlocked_compare_exchange_pointer@UHINSTANCE__@@$$T$$T@@YAPEAUHINSTANCE__@@PEDSEAU0@$$T1@Z 0000000180106940 f i libvcruntimed:winapi_downlevel.obj
 0001:00105990       ??$__crt_interlocked_compare_exchange_pointer@X$$T$$T@@YAPEAXPEDSEAX$$T1@Z 0000000180106990 f i libvcruntimed:winapi_downlevel.obj
 0001:001059e0       ??$__crt_interlocked_exchange_pointer@UHINSTANCE__@@PEAU1@@@YAPEAUHINSTANCE__@@PEDSEAU0@QEAU0@@Z 00000001801069e0 f i libvcruntimed:winapi_downlevel.obj
 0001:00105a00       ??$__crt_interlocked_exchange_pointer@UHINSTANCE__@@PEAX@@YAPEAUHINSTANCE__@@PEDSEAU0@QEAX@Z 0000000180106a00 f i libvcruntimed:winapi_downlevel.obj
 0001:00105a20       ??$__crt_interlocked_exchange_pointer@XPEAX@@YAPEAXPEDSEAXQEAX@Z 0000000180106a20 f i libvcruntimed:winapi_downlevel.obj
 0001:00105a40       ??$__crt_interlocked_read_pointer@UHINSTANCE__@@@@YAPEAUHINSTANCE__@@PEDSEAU0@@Z 0000000180106a40 f i libvcruntimed:winapi_downlevel.obj
 0001:00105a70       ??$__crt_interlocked_read_pointer@X@@YAPEAXPEDSEAX@Z 0000000180106a70 f i libvcruntimed:winapi_downlevel.obj
 0001:00106200       __vcrt_EventRegister       0000000180107200 f   libvcruntimed:winapi_downlevel.obj
 0001:00106280       __vcrt_EventSetInformation 0000000180107280 f   libvcruntimed:winapi_downlevel.obj
 0001:00106300       __vcrt_EventUnregister     0000000180107300 f   libvcruntimed:winapi_downlevel.obj
 0001:00106360       __vcrt_EventWriteTransfer  0000000180107360 f   libvcruntimed:winapi_downlevel.obj
 0001:00106400       __vcrt_FlsAlloc            0000000180107400 f   libvcruntimed:winapi_downlevel.obj
 0001:00106460       __vcrt_FlsFree             0000000180107460 f   libvcruntimed:winapi_downlevel.obj
 0001:001064c0       __vcrt_FlsGetValue         00000001801074c0 f   libvcruntimed:winapi_downlevel.obj
 0001:00106520       __vcrt_FlsSetValue         0000000180107520 f   libvcruntimed:winapi_downlevel.obj
 0001:00106590       __vcrt_InitializeCriticalSectionEx 0000000180107590 f   libvcruntimed:winapi_downlevel.obj
 0001:00106610       __vcrt_initialize_winapi_thunks 0000000180107610 f   libvcruntimed:winapi_downlevel.obj
 0001:001066b0       __vcrt_uninitialize_winapi_thunks 00000001801076b0 f   libvcruntimed:winapi_downlevel.obj
 0001:00106770       ??0Block@_HeapManager@@QEAA@XZ 0000000180107770 f i libvcruntimed:undname.obj
 0001:00106790       ??0DName@@QEAA@AEAPEBDD@Z  0000000180107790 f   libvcruntimed:undname.obj
 0001:00106bb0       ??0DName@@QEAA@AEBV0@@Z    0000000180107bb0 f i libvcruntimed:undname.obj
 0001:00106be0       ??0DName@@QEAA@D@Z         0000000180107be0 f   libvcruntimed:undname.obj
 0001:00106d20       ??0DName@@QEAA@PEAV0@@Z    0000000180107d20 f   libvcruntimed:undname.obj
 0001:00106f00       ??0DName@@QEAA@PEBD@Z      0000000180107f00 f   libvcruntimed:undname.obj
 0001:00107050       ??0DName@@QEAA@W4DNameStatus@@@Z 0000000180108050 f   libvcruntimed:undname.obj
 0001:001071f0       ??0DName@@QEAA@XZ          00000001801081f0 f i libvcruntimed:undname.obj
 0001:001072f0       ??0DName@@QEAA@_J@Z        00000001801082f0 f   libvcruntimed:undname.obj
 0001:00107520       ??0DName@@QEAA@_K@Z        0000000180108520 f   libvcruntimed:undname.obj
 0001:00107700       ??0DNameNode@@IEAA@XZ      0000000180108700 f   libvcruntimed:undname.obj
 0001:00107720       ??0DNameStatusNode@@AEAA@W4DNameStatus@@@Z 0000000180108720 f   libvcruntimed:undname.obj
 0001:001077a0       ??0Replicator@@QEAA@XZ     00000001801087a0 f i libvcruntimed:undname.obj
 0001:001077c0       ??0UnDecorator@@QEAA@PEADPEBDHP6APEADJ@ZK@Z 00000001801087c0 f i libvcruntimed:undname.obj
 0001:001078c0       ??0charNode@@QEAA@D@Z      00000001801088c0 f   libvcruntimed:undname.obj
 0001:00107910       ??0pDNameNode@@QEAA@PEAVDName@@@Z 0000000180108910 f   libvcruntimed:undname.obj
 0001:001079b0       ??0pairNode@@QEAA@PEAVDNameNode@@0@Z 00000001801089b0 f   libvcruntimed:undname.obj
 0001:00107a30       ??0pcharNode@@QEAA@PEBDH@Z 0000000180108a30 f   libvcruntimed:undname.obj
 0001:00107b30       ??2@YAPEAX_KAEAV_HeapManager@@H@Z 0000000180108b30 f i libvcruntimed:undname.obj
 0001:00107b70       ??4DName@@QEAAAEAV0@AEBV0@@Z 0000000180108b70 f   libvcruntimed:undname.obj
 0001:00107ba0       ??4DName@@QEAAAEAV0@D@Z    0000000180108ba0 f i libvcruntimed:undname.obj
 0001:00107ce0       ??4DName@@QEAAAEAV0@PEAV0@@Z 0000000180108ce0 f   libvcruntimed:undname.obj
 0001:00107eb0       ??4DName@@QEAAAEAV0@PEBD@Z 0000000180108eb0 f   libvcruntimed:undname.obj
 0001:00107ff0       ??4DName@@QEAAAEAV0@W4DNameStatus@@@Z 0000000180108ff0 f   libvcruntimed:undname.obj
 0001:00108160       ??AReplicator@@QEBA?AVDName@@H@Z 0000000180109160 f   libvcruntimed:undname.obj
 0001:00108210       ??BUnDecorator@@QEAAPEADXZ 0000000180109210 f i libvcruntimed:undname.obj
 0001:00108610       ??H@YA?AVDName@@DAEBV0@@Z  0000000180109610 f i libvcruntimed:undname.obj
 0001:00108660       ??H@YA?AVDName@@PEBDAEBV0@@Z 0000000180109660 f i libvcruntimed:undname.obj
 0001:001086b0       ??H@YA?AVDName@@W4DNameStatus@@AEBV0@@Z 00000001801096b0 f i libvcruntimed:undname.obj
 0001:00108700       ??HDName@@QEBA?AV0@AEBV0@@Z 0000000180109700 f   libvcruntimed:undname.obj
 0001:00108760       ??HDName@@QEBA?AV0@D@Z     0000000180109760 f   libvcruntimed:undname.obj
 0001:001087c0       ??HDName@@QEBA?AV0@PEAV0@@Z 00000001801097c0 f   libvcruntimed:undname.obj
 0001:00108820       ??HDName@@QEBA?AV0@PEBD@Z  0000000180109820 f   libvcruntimed:undname.obj
 0001:00108880       ??HDName@@QEBA?AV0@W4DNameStatus@@@Z 0000000180109880 f   libvcruntimed:undname.obj
 0001:001088e0       ??YDName@@QEAAAEAV0@AEBV0@@Z 00000001801098e0 f   libvcruntimed:undname.obj
 0001:00108980       ??YDName@@QEAAAEAV0@D@Z    0000000180109980 f   libvcruntimed:undname.obj
 0001:00108a50       ??YDName@@QEAAAEAV0@PEAV0@@Z 0000000180109a50 f   libvcruntimed:undname.obj
 0001:00108b70       ??YDName@@QEAAAEAV0@PEBD@Z 0000000180109b70 f   libvcruntimed:undname.obj
 0001:00108c60       ??YDName@@QEAAAEAV0@W4DNameStatus@@@Z 0000000180109c60 f   libvcruntimed:undname.obj
 0001:00108cf0       ??YReplicator@@QEAAAEAV0@AEBVDName@@@Z 0000000180109cf0 f   libvcruntimed:undname.obj
 0001:00108de0       ??_5DName@@QEAAAEAV0@AEBV0@@Z 0000000180109de0 f   libvcruntimed:undname.obj
 0001:00108e60       ?Constructor@_HeapManager@@QEAAXP6APEAX_K@ZP6AXPEAX@Z@Z 0000000180109e60 f i libvcruntimed:undname.obj
 0001:00108ed0       ?Destructor@_HeapManager@@QEAAXXZ 0000000180109ed0 f i libvcruntimed:undname.obj
 0001:00108f70       ?UScore@UnDecorator@@SAPEBDW4Tokens@@@Z 0000000180109f70 f   libvcruntimed:undname.obj
 0001:00108fc0       ?append@DName@@AEAAXPEAVDNameNode@@@Z 0000000180109fc0 f   libvcruntimed:undname.obj
 0001:001090a0       ?composeDeclaration@UnDecorator@@CA?AVDName@@AEBV2@@Z 000000018010a0a0 f i libvcruntimed:undname.obj
 0001:0010b990       ?dbGetString@DName@@QEBAPEADXZ 000000018010c990 f   libvcruntimed:undname.obj
 0001:0010b9d0       ?doAccessSpecifiers@UnDecorator@@SAHXZ 000000018010c9d0 f i libvcruntimed:undname.obj
 0001:0010ba10       ?doAllocationLanguage@UnDecorator@@SAHXZ 000000018010ca10 f i libvcruntimed:undname.obj
 0001:0010ba50       ?doAllocationModel@UnDecorator@@SAHXZ 000000018010ca50 f i libvcruntimed:undname.obj
 0001:0010ba90       ?doEcsu@UnDecorator@@SAHXZ 000000018010ca90 f i libvcruntimed:undname.obj
 0001:0010bad0       ?doEllipsis@UnDecorator@@SAHXZ 000000018010cad0 f i libvcruntimed:undname.obj
 0001:0010bb10       ?doFunctionReturns@UnDecorator@@SAHXZ 000000018010cb10 f i libvcruntimed:undname.obj
 0001:0010bb50       ?doMSKeywords@UnDecorator@@SAHXZ 000000018010cb50 f i libvcruntimed:undname.obj
 0001:0010bb90       ?doMemberTypes@UnDecorator@@SAHXZ 000000018010cb90 f i libvcruntimed:undname.obj
 0001:0010bbd0       ?doNameOnly@UnDecorator@@SAHXZ 000000018010cbd0 f i libvcruntimed:undname.obj
 0001:0010bbe0       ?doNoIdentCharCheck@UnDecorator@@SAHXZ 000000018010cbe0 f i libvcruntimed:undname.obj
 0001:0010bbf0       ?doPchar@DName@@AEAAXPEBDH@Z 000000018010cbf0 f   libvcruntimed:undname.obj
 0001:0010bde0       ?doPtr64@UnDecorator@@SAHXZ 000000018010cde0 f i libvcruntimed:undname.obj
 0001:0010be20       ?doRestrictionSpec@UnDecorator@@SAHXZ 000000018010ce20 f i libvcruntimed:undname.obj
 0001:0010be60       ?doThisTypes@UnDecorator@@SAHXZ 000000018010ce60 f i libvcruntimed:undname.obj
 0001:0010bea0       ?doThrowTypes@UnDecorator@@SAHXZ 000000018010cea0 f i libvcruntimed:undname.obj
 0001:0010bee0       ?doTypeOnly@UnDecorator@@SAHXZ 000000018010cee0 f i libvcruntimed:undname.obj
 0001:0010bef0       ?doUnderScore@UnDecorator@@SAHXZ 000000018010cef0 f i libvcruntimed:undname.obj
 0001:0010bf30       ?getArgumentList@UnDecorator@@CA?AVDName@@XZ 000000018010cf30 f   libvcruntimed:undname.obj
 0001:0010c130       ?getArgumentTypes@UnDecorator@@CA?AVDName@@XZ 000000018010d130 f   libvcruntimed:undname.obj
 0001:0010c360       ?getArrayType@UnDecorator@@CA?AVDName@@AEBV2@@Z 000000018010d360 f i libvcruntimed:undname.obj
 0001:0010c710       ?getBasedType@UnDecorator@@CA?AVDName@@XZ 000000018010d710 f   libvcruntimed:undname.obj
 0001:0010c840       ?getBasicDataType@UnDecorator@@CA?AVDName@@AEBV2@@Z 000000018010d840 f   libvcruntimed:undname.obj
 0001:0010d160       ?getCallIndex@UnDecorator@@CA?AVDName@@XZ 000000018010e160 f i libvcruntimed:undname.obj
 0001:0010d190       ?getCallingConvention@UnDecorator@@CA?AVDName@@XZ 000000018010e190 f   libvcruntimed:undname.obj
 0001:0010d400       ?getDataIndirectType@UnDecorator@@CA?AVDName@@AEBV2@PEBD0H@Z 000000018010e400 f   libvcruntimed:undname.obj
 0001:0010e0e0       ?getDataIndirectType@UnDecorator@@CA?AVDName@@XZ 000000018010f0e0 f i libvcruntimed:undname.obj
 0001:0010e150       ?getDataType@UnDecorator@@CA?AVDName@@PEAV2@@Z 000000018010f150 f   libvcruntimed:undname.obj
 0001:0010e340       ?getDecoratedName@UnDecorator@@CA?AVDName@@XZ 000000018010f340 f   libvcruntimed:undname.obj
 0001:0010e840       ?getDimension@UnDecorator@@CA?AVDName@@_N@Z 000000018010f840 f   libvcruntimed:undname.obj
 0001:0010ec80       ?getDispatchTarget@UnDecorator@@CA?AVDName@@XZ 000000018010fc80 f   libvcruntimed:undname.obj
 0001:0010ed80       ?getDisplacement@UnDecorator@@CA?AVDName@@XZ 000000018010fd80 f i libvcruntimed:undname.obj
 0001:0010edb0       ?getECSUDataType@UnDecorator@@CA?AVDName@@XZ 000000018010fdb0 f   libvcruntimed:undname.obj
 0001:0010f080       ?getECSUName@UnDecorator@@CA?AVDName@@XZ 0000000180110080 f i libvcruntimed:undname.obj
 0001:0010f0b0       ?getEnumType@UnDecorator@@CA?AVDName@@XZ 00000001801100b0 f i libvcruntimed:undname.obj
 0001:0010f290       ?getExtendedDataIndirectType@UnDecorator@@CA?AVDName@@AEAPEBDAEA_NH@Z 0000000180110290 f   libvcruntimed:undname.obj
 0001:0010f680       ?getExternalDataType@UnDecorator@@CA?AVDName@@AEBV2@@Z 0000000180110680 f i libvcruntimed:undname.obj
 0001:0010f780       ?getFunctionIndirectType@UnDecorator@@CA?AVDName@@AEBV2@@Z 0000000180110780 f   libvcruntimed:undname.obj
 0001:0010fe80       ?getGuardNumber@UnDecorator@@CA?AVDName@@XZ 0000000180110e80 f i libvcruntimed:undname.obj
 0001:0010feb0       ?getLastChar@DName@@QEBADXZ 0000000180110eb0 f i libvcruntimed:undname.obj
 0001:0010ff20       ?getLastChar@DNameStatusNode@@UEBADXZ 0000000180110f20 f i libvcruntimed:undname.obj
 0001:0010ff70       ?getLastChar@charNode@@UEBADXZ 0000000180110f70 f i libvcruntimed:undname.obj
 0001:0010ff90       ?getLastChar@pDNameNode@@UEBADXZ 0000000180110f90 f i libvcruntimed:undname.obj
 0001:0010ffe0       ?getLastChar@pairNode@@UEBADXZ 0000000180110fe0 f i libvcruntimed:undname.obj
 0001:001100a0       ?getLastChar@pcharNode@@UEBADXZ 00000001801110a0 f i libvcruntimed:undname.obj
 0001:001100f0       ?getLexicalFrame@UnDecorator@@CA?AVDName@@XZ 00000001801110f0 f i libvcruntimed:undname.obj
 0001:00110140       ?getMemory@_HeapManager@@QEAAPEAX_KH@Z 0000000180111140 f   libvcruntimed:undname.obj
 0001:00110320       ?getNumberOfDimensions@UnDecorator@@CAHXZ 0000000180111320 f   libvcruntimed:undname.obj
 0001:00110490       ?getOperatorName@UnDecorator@@CA?AVDName@@_NPEA_N@Z 0000000180111490 f i libvcruntimed:undname.obj
 0001:00111570       ?getPointerType@UnDecorator@@CA?AVDName@@AEBV2@0@Z 0000000180112570 f i libvcruntimed:undname.obj
 0001:001115d0       ?getPointerTypeArray@UnDecorator@@CA?AVDName@@AEBV2@0@Z 00000001801125d0 f i libvcruntimed:undname.obj
 0001:00111630       ?getPrimaryDataType@UnDecorator@@CA?AVDName@@AEBV2@@Z 0000000180112630 f   libvcruntimed:undname.obj
 0001:00111c50       ?getPtrRefDataType@UnDecorator@@CA?AVDName@@AEBV2@H@Z 0000000180112c50 f   libvcruntimed:undname.obj
 0001:00111ea0       ?getPtrRefType@UnDecorator@@CA?AVDName@@AEBV2@0PEBD@Z 0000000180112ea0 f   libvcruntimed:undname.obj
 0001:00112140       ?getReferenceType@UnDecorator@@CA?AVDName@@AEBV2@0PEBD@Z 0000000180113140 f i libvcruntimed:undname.obj
 0001:00112190       ?getRestrictionSpec@UnDecorator@@CA?AVDName@@XZ 0000000180113190 f   libvcruntimed:undname.obj
 0001:00112390       ?getReturnType@UnDecorator@@CA?AVDName@@PEAV2@@Z 0000000180113390 f   libvcruntimed:undname.obj
 0001:00112410       ?getScope@UnDecorator@@CA?AVDName@@XZ 0000000180113410 f   libvcruntimed:undname.obj
 0001:00112b80       ?getScopedName@UnDecorator@@CA?AVDName@@XZ 0000000180113b80 f   libvcruntimed:undname.obj
 0001:00112d40       ?getSignedDimension@UnDecorator@@CA?AVDName@@XZ 0000000180113d40 f   libvcruntimed:undname.obj
 0001:00112df0       ?getStorageConvention@UnDecorator@@CA?AVDName@@XZ 0000000180113df0 f i libvcruntimed:undname.obj
 0001:00112e20       ?getString@DName@@QEBAPEADPEAD0@Z 0000000180113e20 f i libvcruntimed:undname.obj
 0001:00112eb0       ?getString@DName@@QEBAPEADPEADH@Z 0000000180113eb0 f i libvcruntimed:undname.obj
 0001:00112f90       ?getString@DNameStatusNode@@UEBAPEADPEAD0@Z 0000000180113f90 f i libvcruntimed:undname.obj
 0001:00112ff0       ?getString@charNode@@UEBAPEADPEAD0@Z 0000000180113ff0 f i libvcruntimed:undname.obj
 0001:00113040       ?getString@pDNameNode@@UEBAPEADPEAD0@Z 0000000180114040 f i libvcruntimed:undname.obj
 0001:001130b0       ?getString@pairNode@@UEBAPEADPEAD0@Z 00000001801140b0 f i libvcruntimed:undname.obj
 0001:001131a0       ?getString@pcharNode@@UEBAPEADPEAD0@Z 00000001801141a0 f i libvcruntimed:undname.obj
 0001:001131f0       ?getStringEncoding@UnDecorator@@CA?AVDName@@PEADH@Z 00000001801141f0 f   libvcruntimed:undname.obj
 0001:00113380       ?getStringHelper@@YAPEADPEAD00H@Z 0000000180114380 f i libvcruntimed:undname.obj
 0001:00113400       ?getSymbolName@UnDecorator@@CA?AVDName@@XZ 0000000180114400 f i libvcruntimed:undname.obj
 0001:001134c0       ?getTemplateArgumentList@UnDecorator@@CA?AVDName@@XZ 00000001801144c0 f   libvcruntimed:undname.obj
 0001:00113a50       ?getTemplateConstant@UnDecorator@@CA?AVDName@@XZ 0000000180114a50 f   libvcruntimed:undname.obj
 0001:001142a0       ?getTemplateName@UnDecorator@@CA?AVDName@@_N@Z 00000001801152a0 f   libvcruntimed:undname.obj
 0001:00114570       ?getThisType@UnDecorator@@CA?AVDName@@XZ 0000000180115570 f i libvcruntimed:undname.obj
 0001:001145e0       ?getThrowTypes@UnDecorator@@CA?AVDName@@XZ 00000001801155e0 f   libvcruntimed:undname.obj
 0001:00114700       ?getTypeEncoding@UnDecorator@@CAHXZ 0000000180115700 f i libvcruntimed:undname.obj
 0001:00115580       ?getVCallThunkType@UnDecorator@@CA?AVDName@@XZ 0000000180116580 f i libvcruntimed:undname.obj
 0001:00115620       ?getVbTableType@UnDecorator@@CA?AVDName@@AEBV2@@Z 0000000180116620 f i libvcruntimed:undname.obj
 0001:00115650       ?getVdispMapType@UnDecorator@@CA?AVDName@@AEBV2@@Z 0000000180116650 f i libvcruntimed:undname.obj
 0001:00115700       ?getVfTableType@UnDecorator@@CA?AVDName@@AEBV2@@Z 0000000180116700 f i libvcruntimed:undname.obj
 0001:001159b0       ?getZName@UnDecorator@@CA?AVDName@@_N0@Z 00000001801169b0 f   libvcruntimed:undname.obj
 0001:00115e40       ?haveTemplateParameters@UnDecorator@@SAHXZ 0000000180116e40 f i libvcruntimed:undname.obj
 0001:00115e50       ?isArray@DName@@QEBAHXZ    0000000180116e50 f i libvcruntimed:undname.obj
 0001:00115e70       ?isComArray@DName@@QEBAHXZ 0000000180116e70 f i libvcruntimed:undname.obj
 0001:00115e90       ?isEmpty@DName@@QEBAHXZ    0000000180116e90 f i libvcruntimed:undname.obj
 0001:00115ed0       ?isFull@Replicator@@QEBAHXZ 0000000180116ed0 f i libvcruntimed:undname.obj
 0001:00115f10       ?isNoTE@DName@@QEBAHXZ     0000000180116f10 f i libvcruntimed:undname.obj
 0001:00115f30       ?isPinPtr@DName@@QEBAHXZ   0000000180116f30 f i libvcruntimed:undname.obj
 0001:00115f50       ?isPtrRef@DName@@QEBAHXZ   0000000180116f50 f i libvcruntimed:undname.obj
 0001:00115f70       ?isUDC@DName@@QEBAHXZ      0000000180116f70 f i libvcruntimed:undname.obj
 0001:00115fd0       ?isUDTThunk@DName@@QEBAHXZ 0000000180116fd0 f i libvcruntimed:undname.obj
 0001:00116030       ?isVCallThunk@DName@@QEBAHXZ 0000000180117030 f i libvcruntimed:undname.obj
 0001:00116050       ?isValid@DName@@QEBAHXZ    0000000180117050 f i libvcruntimed:undname.obj
 0001:001160a0       ?length@DName@@QEBAHXZ     00000001801170a0 f i libvcruntimed:undname.obj
 0001:00116110       ?length@DNameStatusNode@@UEBAHXZ 0000000180117110 f i libvcruntimed:undname.obj
 0001:00116130       ?length@charNode@@UEBAHXZ  0000000180117130 f i libvcruntimed:undname.obj
 0001:00116140       ?length@pDNameNode@@UEBAHXZ 0000000180117140 f i libvcruntimed:undname.obj
 0001:00116190       ?length@pairNode@@UEBAHXZ  0000000180117190 f i libvcruntimed:undname.obj
 0001:00116270       ?length@pcharNode@@UEBAHXZ 0000000180117270 f i libvcruntimed:undname.obj
 0001:00116290       ?make@DNameStatusNode@@SAPEAV1@W4DNameStatus@@@Z 0000000180117290 f i libvcruntimed:undname.obj
 0001:00116360       ?setIsArray@DName@@QEAAXXZ 0000000180117360 f i libvcruntimed:undname.obj
 0001:00116380       ?setIsComArray@DName@@QEAAXXZ 0000000180117380 f i libvcruntimed:undname.obj
 0001:001163a0       ?setIsNoTE@DName@@QEAAXXZ  00000001801173a0 f i libvcruntimed:undname.obj
 0001:001163c0       ?setIsPinPtr@DName@@QEAAXXZ 00000001801173c0 f i libvcruntimed:undname.obj
 0001:001163e0       ?setIsUDC@DName@@QEAAXXZ   00000001801173e0 f i libvcruntimed:undname.obj
 0001:00116420       ?setIsVCallThunk@DName@@QEAAXXZ 0000000180117420 f i libvcruntimed:undname.obj
 0001:00116440       ?setPtrRef@DName@@QEAAAEAV1@XZ 0000000180117440 f i libvcruntimed:undname.obj
 0001:00116470       ?status@DName@@QEBA?AW4DNameStatus@@XZ 0000000180117470 f i libvcruntimed:undname.obj
 0001:001165e0       __unDName                  00000001801175e0 f   libvcruntimed:undname.obj
 0001:001166e0       __unDNameEx                00000001801176e0 f   libvcruntimed:undname.obj
 0001:001167e0       fabs                       00000001801177e0 f   libucrtd:fabs.obj
 0001:00116940       expf                       0000000180117940 f   libucrtd:expf.obj
 0001:00116c90       logf                       0000000180117c90 f   libucrtd:logf.obj
 0001:00117190       asinf                      0000000180118190 f   libucrtd:asinf.obj
 0001:001177c0       cosf                       00000001801187c0 f   libucrtd:cosf.obj
 0001:00117e00       sinf                       0000000180118e00 f   libucrtd:sinf.obj
 0001:001186c0       sqrtf                      00000001801196c0 f   libucrtd:sqrtf.obj
 0001:00118850       ??$?0AEBV?$stream_output_adapter@D@__crt_stdio_output@@AEB_KAEBQEBDAEBQEAU__crt_locale_pointers@@AEBQEAD@?$format_validation_base@DV?$stream_output_adapter@D@__crt_stdio_output@@@__crt_stdio_output@@IEAA@AEBV?$stream_output_adapter@D@1@AEB_KAEBQEBDAEBQEAU__crt_locale_pointers@@AEBQEAD@Z 0000000180119850 f i libucrtd:output.obj
 0001:001188c0       ??$?0AEBV?$stream_output_adapter@D@__crt_stdio_output@@AEB_KAEBQEBDAEBQEAU__crt_locale_pointers@@AEBQEAD@?$positional_parameter_base@DV?$stream_output_adapter@D@__crt_stdio_output@@@__crt_stdio_output@@IEAA@AEBV?$stream_output_adapter@D@1@AEB_KAEBQEBDAEBQEAU__crt_locale_pointers@@AEBQEAD@Z 00000001801198c0 f i libucrtd:output.obj
